(dp1
S'vocab'
p2
c__builtin__
set
p3
((lp4
S'ever.'
p5
aS'Night'
p6
aS'dynasty'
p7
aS'EVERYONE'
p8
aS'sleep'
p9
aS'hanging'
p10
aS'#CantBeatTheHeat'
p11
aS'hate'
p12
aS'up.'
p13
aS'feeding'
p14
aS'tweet'
p15
aS'Watch'
p16
aS'seriously'
p17
aS'up!'
p18
aS'under'
p19
aS"Grey's"
p20
aS'rise'
p21
aS'every'
p22
aS'gratification'
p23
aS'@_PickUrPoison_:'
p24
aS'confetti'
p25
aS'today.'
p26
aS'LOL@psid412'
p27
aS'bringing'
p28
aS'Ole'
p29
aS'mw3'
p30
aS'school'
p31
aS'bestfriend'
p32
aS'solution'
p33
aS'goes.'
p34
aS'Wayne'
p35
aS'Go'
p36
aS'Paul'
p37
aS'ups'
p38
aS'babygirl'
p39
aS'me!'
p40
aS'#frfr'
p41
aS'#ijs'
p42
aS'me.'
p43
aS'bacon'
p44
aS'Christie'
p45
aS'Balling'
p46
aS'nail'
p47
aS'second'
p48
aS'FAKESHOW'
p49
aS'me?'
p50
aS'even'
p51
aS'calculator.'
p52
aS"tonight's"
p53
aS'Diess'
p54
aS'Game'
p55
aS'above'
p56
aS'datapad'
p57
aS'new'
p58
aS'tips'
p59
aS'ever'
p60
aS'told'
p61
aS'drunkken'
p62
aS'million'
p63
aS'never'
p64
aS'stared'
p65
aS'here'
p66
aS'Disturbed'
p67
aS'path'
p68
aS'celebration'
p69
aS'rests'
p70
aS'study'
p71
aS'aphug'
p72
aS'@GetGlue!'
p73
aS"i'd"
p74
aS'smoke'
p75
aS'permit'
p76
aS'"Local"'
p77
aS'http://t.co/6uLFlxf9'
p78
aS"i'm"
p79
aS'worse:'
p80
aS'company.'
p81
aS'..wtf'
p82
aS'#NATO'
p83
aS'Messing'
p84
aS'would'
p85
aS'movie.'
p86
aS'call'
p87
aS'until'
p88
aS'RT:'
p89
aS'type'
p90
aS'tell'
p91
aS'females'
p92
aS'brings'
p93
aS'hurt'
p94
aS'phone'
p95
aS'championships'
p96
aS'hole'
p97
aS'blocking'
p98
aS'must'
p99
aS'shoot'
p100
aS'room'
p101
aS'work'
p102
aS'House.'
p103
aS'Idgaf'
p104
aS'mu'
p105
aS'movies'
p106
aS'my'
p107
aS'could'
p108
aS'give'
p109
aS'Lil'
p110
aS'tub'
p111
aS'Reality'
p112
aS'Non-negotiable!'
p113
aS'want'
p114
aS'Lord'
p115
aS'keep'
p116
aS'@briheymann'
p117
aS'!!!'
p118
aS'thing'
p119
aS'bunk'
p120
aS'sitting'
p121
aS'id'
p122
aS'how'
p123
aS'hot'
p124
aS'morbid'
p125
aS'hop'
p126
aS'interview'
p127
aS'beach'
p128
aS'A'
aS'after'
p129
aS'Touch'
p130
aS'wrong'
p131
aS'lesbian'
p132
aS'All'
p133
aS'third'
p134
aS'alout'
p135
aS'appreciate'
p136
aS'funniest'
p137
aS'ultimate'
p138
aS'goodbye'
p139
aS'ambulance'
p140
aS'@KurlieSuzahn!'
p141
aS'Trust'
p142
aS'the.'
p143
aS'@0meza'
p144
aS'bestie'
p145
aS'sanchez'
p146
aS'over'
p147
aS'7-0.'
p148
aS'school?'
p149
aS'ears.'
p150
aS'band-aids.'
p151
aS'before'
p152
aS'ima'
p153
aS'fit'
p154
aS'somewhere'
p155
aS'Bitches'
p156
aS'Here'
p157
aS'crew'
p158
aS'better'
p159
aS'Him'
p160
aS'then'
p161
aS'them'
p162
aS'woken'
p163
aS'Gotta'
p164
aS'break'
p165
aS"'Taker"
p166
aS'badge'
p167
aS'they'
p168
aS'washing'
p169
aS'makhuwa'
p170
aS'@iamtriciasantos'
p171
aS'aired'
p172
aS'meat'
p173
aS'week!'
p174
aS'debut'
p175
aS'Boutta'
p176
aS'good'
p177
aS'dollassss'
p178
aS'each'
p179
aS'Hate'
p180
aS'Check'
p181
aS'Yellawolf'
p182
aS'mean'
p183
aS'Midnight'
p184
aS'webber'
p185
aS'Anyone'
p186
aS'by'
p187
aS'trending'
p188
aS'driving'
p189
aS'god'
p190
aS'Meeting\\happyhour'
p191
aS'day.'
p192
aS'#Whatalife'
p193
aS'got'
p194
aS'Meyer'
p195
aS'workout'
p196
aS"you're"
p197
aS'u.s.'
p198
aS'Work'
p199
aS'Nosey'
p200
aS'@ninadobrev'
p201
aS'Ugh'
p202
aS'starts'
p203
aS'messages'
p204
aS'days'
p205
aS'-_____-'
p206
aS'Jhbweuyttty9idyYf'
p207
aS'000'
p208
aS'fuckin'
p209
aS'already'
p210
aS'Working'
p211
aS'too.'
p212
aS'Please'
p213
aS'#CandyCane'
p214
aS'Going'
p215
aS'comin'
p216
aS'hood'
p217
aS'lt;lt;lt;lt;'
p218
aS'Smiles'
p219
aS'basketball'
p220
aS'girls'
p221
aS'through?'
p222
aS'needed'
p223
aS'overact'
p224
aS'listen'
p225
aS'gym'
p226
aS'took'
p227
aS'Patterns'
p228
aS'cereal'
p229
aS'Suck'
p230
aS'sticker'
p231
aS'Consider'
p232
aS'frankly'
p233
aS'night.'
p234
aS'@TheBoysWho:'
p235
aS'shower'
p236
aS'matter'
p237
aS'http://t.co/Ae7ZaWKh'
p238
aS'to"'
p239
aS'polish..'
p240
aS'mini'
p241
aS'tht'
p242
aS'smke'
p243
aS'seep'
p244
aS'pass'
p245
aS'mind'
p246
aS'talking'
p247
aS'seee'
p248
aS'rap'
p249
aS'Crac'
p250
aS'seen'
p251
aS'grind'
p252
aS'forced'
p253
aS'Them'
p254
aS'guys.'
p255
aS'concrete'
p256
aS'-'
aS'Jus'
p257
aS'point.'
p258
aS'luxury'
p259
aS'They'
p260
aS'laughed'
p261
aS'blue'
p262
aS'nobody'
p263
aS'tho....'
p264
aS'though'
p265
aS'doin'
p266
aS'preset'
p267
aS'see.'
p268
aS'the'
p269
aS"It'll"
p270
aS'depressing'
p271
aS'episode'
p272
aS'released'
p273
aS'flow'
p274
aS'dog'
p275
aS'doe'
p276
aS'Single'
p277
aS'points'
p278
aS'real?'
p279
aS'Its'
p280
aS'came'
p281
aS'saying'
p282
aS'random'
p283
aS'pops'
p284
aS'radio'
p285
aS'bittchhh'
p286
aS'crush'
p287
aS'resisting'
p288
aS'Big'
p289
aS'window'
p290
aS'Ughhh'
p291
aS'Others'
p292
aS'wearing'
p293
aS'do'
p294
aS'warmers'
p295
aS'dm'
p296
aS'2):'
p297
aS'@WilI_Smith:'
p298
aS'stop'
p299
aS'television'
p300
aS'da'
p301
aS'pisseddddddddddd'
p302
aS'nasty'
p303
aS'governance:'
p304
aS'suggestions?'
p305
aS'pressed'
p306
aS'Washington'
p307
aS'bad'
p308
aS'them.'
p309
aS"grandma's"
p310
aS'blew'
p311
aS'reread'
p312
aS'w/'
p313
aS"76er's"
p314
aS'Wassup'
p315
aS'noodles'
p316
aS'best'
p317
aS'said'
p318
aS'away'
p319
aS'Maker!'
p320
aS"there's"
p321
aS'hopefully'
p322
aS'o_O'
p323
aS'muh'
p324
aS'we'
p325
aS'men'
p326
aS'rims'
p327
aS'confusion'
p328
aS'weak'
p329
aS'Ratana'
p330
aS'seriously.'
p331
aS'wtf'
p332
aS'cousin'
p333
aS'debt'
p334
aS'why.'
p335
aS'pity'
p336
aS'tings'
p337
aS'jelly'
p338
aS'#help'
p339
aS'games'
p340
aS'#ugh'
p341
aS'asked'
p342
aS'peacefully'
p343
aS'very'
p344
aS'2nd'
p345
aS'tons'
p346
aS'oblivious'
p347
aS'Laawweeed'
p348
aS'now.'
p349
aS"I've"
p350
aS'three'
p351
aS'been'
p352
aS'.'
aS'$300'
p353
aS"You've"
p354
aS'expected'
p355
aS'entered'
p356
aS'idol'
p357
aS'threw'
p358
aS'chug'
p359
aS'life'
p360
aS'Preciate'
p361
aS'yolo.'
p362
aS'prison'
p363
aS'doubts'
p364
aS'catch'
p365
aS'#inspiration'
p366
aS'International'
p367
aS'okay.'
p368
aS'#HouseFinale'
p369
aS'kentucky'
p370
aS'n'
aS'suppose'
p371
aS'leprosy'
p372
aS'YMCA'
p373
aS'remembering'
p374
aS'over.'
p375
aS'top:'
p376
aS'On'
p377
aS'is'
p378
aS'it'
p379
aS'Run!'
p380
aS'shame'
p381
aS'cant'
p382
aS'im'
p383
aS'in'
p384
aS'lovie'
p385
aS'Tell'
p386
aS'trusted'
p387
aS'if'
p388
aS'hone'
p389
aS'pathfinder'
p390
aS'things'
p391
aS'make'
p392
aS'dad!'
p393
aS'your!'
p394
aS'Of'
p395
aS'5/29!'
p396
aS'restaurant...and'
p397
aS'froyo'
p398
aS'Maybe'
p399
aS'rain'
p400
aS'hand'
p401
aS'#MichiganFanciesA1DSigning'
p402
aS'made.'
p403
aS'kid'
p404
aS'Yentl'
p405
aS'youre'
p406
aS'lt;--'
p407
aS'#whocares'
p408
aS'Batman'
p409
aS'nomore'
p410
aS'world!!'
p411
aS'cool.'
p412
aS'camps'
p413
aS'dads'
p414
aS'left'
p415
aS'blakeeeeeee'
p416
aS'Thank'
p417
aS'just'
p418
aS'yea'
p419
aS'photo'
p420
aS'thanks'
p421
aS'Oomf'
p422
aS'Oscar'
p423
aS'had'
p424
aS'easy'
p425
aS'Gah'
p426
aS'ffffff'
p427
aS'has'
p428
aS'gave'
p429
aS'happier!'
p430
aS'James'
p431
aS'Kassi'
p432
aS'IND'
p433
aS'dreams'
p434
aS'apart'
p435
aS'Art'
p436
aS'-_-'
p437
aS'ha!'
p438
aS'ha$'
p439
aS'Are'
p440
aS'night'
p441
aS'Prince'
p442
aS'antique'
p443
aS'right'
p444
aS'old'
p445
aS'deal'
p446
aS'people'
p447
aS'Literally'
p448
aS'Expressways'
p449
aS'dead'
p450
aS'Much'
p451
aS'throat!!'
p452
aS'finna'
p453
aS'Life'
p454
aS'for'
p455
aS'comments'
p456
aS'creative'
p457
aS'everything'
p458
aS'tonight?'
p459
aS'Let'
p460
aS'Cubs'
p461
aS'Hm'
p462
aS'Chris'
p463
aS'Drinking'
p464
aS'Ha'
p465
aS'He'
p466
aS'Punjabi'
p467
aS'1D'
p468
aS'losing'
p469
aS'super'
p470
aS'First'
p471
aS'obo'
p472
aS'dollars'
p473
aS'efforts'
p474
aS'turn..'
p475
aS'Best'
p476
aS'Coming'
p477
aS'sob'
p478
aS'for.'
p479
aS'lied'
p480
aS'wasting'
p481
aS'June'
p482
aS'pissssshers'
p483
aS'Cuz'
p484
aS'ppl'
p485
aS'down'
p486
aS'mambo'
p487
aS"Haven't"
p488
aS'waits'
p489
aS'class'
p490
aS'gig'
p491
aS'way'
p492
aS'fairness'
p493
aS'wat'
p494
aS'was'
p495
aS'head'
p496
aS'fireworks'
p497
aS'heat'
p498
aS'true'
p499
aS'Left'
p500
aS'lilies'
p501
aS'tryin'
p502
aS"else's"
p503
aS'crew.'
p504
aS'nono.'
p505
aS'proud'
p506
aS'hungry'
p507
aS'Hector'
p508
aS'hiccups!'
p509
aS'annoying'
p510
aS'trip'
p511
aS'shit'
p512
aS'song.'
p513
aS'#HeThrough'
p514
aS'tix'
p515
aS'clingy'
p516
aS'no'
p517
aS'commercials'
p518
aS'#drained'
p519
aS'bed.'
p520
aS'reality'
p521
aS'hurry.'
p522
aS'Celtics'
p523
aS'Taisha'
p524
aS"'s"
p525
aS'brothers'
p526
aS'football'
p527
aS"let's"
p528
aS'Idk'
p529
aS'weekend'
p530
aS'cheated'
p531
aS'#RHONJ'
p532
aS'flag'
p533
aS'together'
p534
aS'out...everyone'
p535
aS'Brought'
p536
aS'paper1'
p537
aS'paper2'
p538
aS'time'
p539
aS'push'
p540
aS'So'
p541
aS'@Civilian_Sounds.'
p542
aS':))'
p543
aS':('
p544
aS':)'
p545
aS'Republic'
p546
aS'ice'
p547
aS'grateful'
p548
aS'Today'
p549
aS'row'
p550
aS'Dad'
p551
aS'uselesslt;lt;lt;lt;lt;lt;lt;lt;lt;lt;lt;lt;lt;lt;'
p552
aS'Wed'
p553
aS'hurtin'
p554
aS'0'
aS'Pumpkins'
p555
aS'off.'
p556
aS'me'
p557
aS':o'
p558
aS'choice'
p559
aS'soul.'
p560
aS'concerts.'
p561
aS'cook'
p562
aS'#devils'
p563
aS'beating'
p564
aS'Just'
p565
aS'did'
p566
aS'turnt'
p567
aS'leave'
p568
aS'@carlito_1989'
p569
aS'#thefuck'
p570
aS'guy'
p571
aS'Royce'
p572
aS'George'
p573
aS"it'll"
p574
aS'hour....'
p575
aS'regret'
p576
aS'sigh'
p577
aS'sign'
p578
aS'sheeran'
p579
aS'irritated'
p580
aS'Head'
p581
aS'Seriously?'
p582
aS'jeopardy'
p583
aS'trend!!!'
p584
aS'Heat'
p585
aS'goes'
p586
aS'shared'
p587
aS'falling'
p588
aS'True'
p589
aS'Me'
p590
aS'Forever'
p591
aS'choose...'
p592
aS'grandparents'
p593
aS'clerk'
p594
aS'drink?'
p595
aS'baseball'
p596
aS'alone'
p597
aS'My'
p598
aS'appears'
p599
aS'change'
p600
aS'wait'
p601
aS'box'
p602
aS'boy'
p603
aS'#questionofrackem'
p604
aS'Boston'
p605
aS'lakers'
p606
aS'bol'
p607
aS'usually'
p608
aS'weird'
p609
aS'massage'
p610
aS'love'
p611
aS'beer!'
p612
aS"It's"
p613
aS'important'
p614
aS'When'
p615
aS'work."'
p616
aS'#lucianturnoffs'
p617
aS'working'
p618
aS'positive'
p619
aS'ways.'
p620
aS'is..'
p621
aS'live'
p622
aS'Flores'
p623
aS'wondering'
p624
aS'Awake'
p625
aS'thru'
p626
aS'today'
p627
aS'loving'
p628
aS'These'
p629
aS'Bed'
p630
aS'Calling'
p631
aS'drown'
p632
aS'fly'
p633
aS'Chillaxin'
p634
aS'niggas'
p635
aS'quoting'
p636
aS'cap'
p637
aS'means.'
p638
aS'can'
p639
aS'making'
p640
aS'*all'
p641
aS'Out'
p642
aS'Bummed'
p643
aS'heart'
p644
aS'awesome'
p645
aS"didn't"
p646
aS'fuck'
p647
aS'heard'
p648
aS'confuses'
p649
aS'@Weezer'
p650
aS'input.'
p651
aS'agendas'
p652
aS'Missing'
p653
aS'Hooters.'
p654
aS'dress'
p655
aS'Who'
p656
aS'gasol'
p657
aS'1'
aS'till'
p658
aS'Why'
p659
aS'!'
aS'unbelievable'
p660
aS'may'
p661
aS'http://t.co/A3w3cvVS'
p662
aS'Sensitive'
p663
aS'birthday'
p664
aS'mad'
p665
aS'date'
p666
aS'end'
p667
aS'suck'
p668
aS'hear.'
p669
aS'guys'
p670
aS'man'
p671
aS'Shin'
p672
aS'remember'
p673
aS'succeeded'
p674
aS'Watching'
p675
aS'a...'
p676
aS'Catching'
p677
aS'so'
p678
aS'talk'
p679
aS'cute'
p680
aS'shoes'
p681
aS'early?'
p682
aS'Bowie'
p683
aS'Fenna'
p684
aS'displayed'
p685
aS'cruel.'
p686
aS'years'
p687
aS'episodes'
p688
aS'@PhillyChic5'
p689
aS'weather.'
p690
aS'still'
p691
aS'ethic'
p692
aS'months!'
p693
aS'Direction'
p694
aS'idol...'
p695
aS'#fact'
p696
aS'healthcare:'
p697
aS"he's"
p698
aS'interesting'
p699
aS'sexiest'
p700
aS'coaching'
p701
aS'tweets'
p702
aS'World'
p703
aS'main'
p704
aS"well...I've"
p705
aS'Jack'
p706
aS'littlest'
p707
aS'moms'
p708
aS'Vickia'
p709
aS'answer'
p710
aS'exam...'
p711
aS'She'
p712
aS'half'
p713
aS'not'
p714
aS'now'
p715
aS'bullshit'
p716
aS'wont'
p717
aS'"Let'
p718
aS'name'
p719
aS'playin'
p720
aS'gt3'
p721
aS'cuzz'
p722
aS'#busybusybusy'
p723
aS'gt;'
p724
aS'lt;/3'
p725
aS'concerts'
p726
aS'brews'
p727
aS'much..'
p728
aS'twatching'
p729
aS'Live'
p730
aS'ex'
p731
aS'year'
p732
aS'girl'
p733
aS'car!'
p734
aS'obsession'
p735
aS'Zanrosso'
p736
aS'album'
p737
aS'living'
p738
aS'truthlt;lt;lt;lt;lt;lt;'
p739
aS'jokes'
p740
aS'Lmfao'
p741
aS'Sittin'
p742
aS'looking'
p743
aS'contained'
p744
aS"shouldn't"
p745
aS'squares'
p746
aS'Throw'
p747
aS'pity--immeasurable'
p748
aS'earlier'
p749
aS'monster'
p750
aS'G'
aS'tweet....#annoying'
p751
aS'Sometimes'
p752
aS'@SianSweeneyz.'
p753
aS'grandma'
p754
aS'care'
p755
aS'training'
p756
aS'Sigh'
p757
aS'thinx'
p758
aS'turn'
p759
aS'place'
p760
aS'redbone'
p761
aS'think'
p762
aS'Brock'
p763
aS'LETTING'
p764
aS'Giant'
p765
aS'There'
p766
aS'yourself'
p767
aS'pplz'
p768
aS'fast'
p769
aS'directly'
p770
aS'tomorrow'
p771
aS'size'
p772
aS'city'
p773
aS'Diamond'
p774
aS'checked'
p775
aS'Monday'
p776
aS'anyone'
p777
aS'2'
aS'white'
p778
aS'friend'
p779
aS'mining'
p780
aS'that'
p781
aS'season'
p782
aS'Tebow'
p783
aS'cops'
p784
aS'dudes'
p785
aS'ridiculous'
p786
aS'easier.'
p787
aS'than'
p788
aS'boyfriend'
p789
aS'10'
p790
aS'13'
p791
aS'12'
p792
aS'Love'
p793
aS'lmao'
p794
aS'gotta'
p795
aS'@foursquare'
p796
aS'were'
p797
aS'#TheUsual'
p798
aS'and'
p799
aS'now!?'
p800
aS'Court'
p801
aS'turned'
p802
aS'argument'
p803
aS'slap'
p804
aS'say'
p805
aS'any'
p806
aS'Do'
p807
aS'exposed.'
p808
aS'editing'
p809
aS'note'
p810
aS'omfg'
p811
aS'take'
p812
aS'bad!'
p813
aS'@Teresa_Giudice'
p814
aS'"water'
p815
aS'urge'
p816
aS'46.7'
p817
aS'pain'
p818
aS'Getting'
p819
aS'arguing'
p820
aS'price'
p821
aS'time..'
p822
aS'falls'
p823
aS'Illegitimate'
p824
aS'Rethinking'
p825
aS'forever'
p826
aS'especially'
p827
aS'considered'
p828
aS'later'
p829
aS'Fuck'
p830
aS'@Jessewelle'
p831
aS'**'
p832
aS'professional'
p833
aS'shot'
p834
aS'show'
p835
aS'bright'
p836
aS'welp'
p837
aS'aint'
p838
aS'We'
p839
aS'title'
p840
aS'dick'
p841
aS'only'
p842
aS'going'
p843
aS'black'
p844
aS'"was'
p845
aS'get'
p846
aS'cannot'
p847
aS'nearly'
p848
aS'lighter'
p849
aS'freaking'
p850
aS'Smashing'
p851
aS'isnt'
p852
aS'morning'
p853
aS":'("
p854
aS":')"
p855
aS'stupid'
p856
aS'friends.'
p857
aS'bought'
p858
aS'where'
p859
aS'inside'
p860
aS'husband'
p861
aS"y'all"
p862
aS'#imageniusiknow'
p863
aS'#.'
p864
aS'WM9.'
p865
aS'asleep'
p866
aS'job!'
p867
aS'hoes'
p868
aS'#1'
p869
aS'wonder'
p870
aS'@TurdFerguson135'
p871
aS'That'
p872
aS'doing?"'
p873
aS'Alpha/'
p874
aS'3'
aS'between'
p875
aS'sleepis'
p876
aS'reading'
p877
aS'across'
p878
aS'Lmao'
p879
aS'Snagged'
p880
aS'killing'
p881
aS'guitar'
p882
aS'honest.'
p883
aS'Awayy'
p884
aS'Meatball'
p885
aS'come'
p886
aS'dates'
p887
aS'many'
p888
aS'23'
p889
aS'wheels'
p890
aS"can't"
p891
aS'concert'
p892
aS'Guess'
p893
aS'12:00'
p894
aS"We've"
p895
aS'poo'
p896
aS'boar'
p897
aS'#True90sKid'
p898
aS'Dm?'
p899
aS'considering'
p900
aS'cares'
p901
aS'vacation'
p902
aS'But'
p903
aS'raging'
p904
aS'games!'
p905
aS'500'
p906
aS'wants'
p907
aS'havertown'
p908
aS'direction'
p909
aS'thousand'
p910
aS'Round'
p911
aS'those'
p912
aS'myself'
p913
aS'2.'
p914
aS'dresse'
p915
aS'pacers'
p916
aS'@Bleepthat1'
p917
aS'cancelled'
p918
aS'life.'
p919
aS'taking'
p920
aS'history!'
p921
aS'person.'
p922
aS'coffee'
p923
aS'Ashanti?'
p924
aS'Looking'
p925
aS'middle'
p926
aS'sudden'
p927
aS'@Subway'
p928
aS'smithville'
p929
aS'lol...'
p930
aS'everyday'
p931
aS'worry'
p932
aS'Ditto'
p933
aS'bags'
p934
aS'different'
p935
aS'pau'
p936
aS'I?'
p937
aS'gt;gt;gt;gt;'
p938
aS'same'
p939
aS'followers'
p940
aS'"i'
p941
aS'isle'
p942
aS'week'
p943
aS'finish'
p944
aS'I'
aS'weed'
p945
aS'II'
p946
aS'totally'
p947
aS'Is'
p948
aS'Bad'
p949
aS'TV'
p950
aS'without'
p951
aS'Im'
p952
aS'comes'
p953
aS'In'
p954
aS'#1DTourChicago'
p955
aS'If'
p956
aS'taxi'
p957
aS'summer'
p958
aS'duh.'
p959
aS'Clevvertv'
p960
aS'--gt;'
p961
aS'being'
p962
aS'money'
p963
aS'rest'
p964
aS'pissing'
p965
aS'speed'
p966
aS'blow'
p967
aS'death'
p968
aS'thinking'
p969
aS'either.'
p970
aS'#Celtics'
p971
aS'4'
aS'real'
p972
aS'#metime'
p973
aS'around'
p974
aS'found:'
p975
aS'admitting'
p976
aS'early'
p977
aS'test'
p978
aS'()'
p979
aS'Stayed'
p980
aS'world'
p981
aS'Bench'
p982
aS'lady'
p983
aS'ruled'
p984
aS'#NotBeingRudeBut'
p985
aS't'
aS'all.'
p986
aS'counter-arguments'
p987
aS'Trop'
p988
aS'@allie_t13!'
p989
aS'Threats'
p990
aS'Since'
p991
aS'New'
p992
aS';P'
p993
aS'over...sure'
p994
aS'mood'
p995
aS'unlocked'
p996
aS'cow.'
p997
aS'happened'
p998
aS'badass.'
p999
aS'caring'
p1000
aS'ridicolous'
p1001
aS'business'
p1002
aS';;'
p1003
aS'think?'
p1004
aS"You'll"
p1005
aS'tv.'
p1006
aS'in!!!!'
p1007
aS';)'
p1008
aS'on'
p1009
aS'oh'
p1010
aS'jeep'
p1011
aS'of'
p1012
aS'capable'
p1013
aS'ox'
p1014
aS'luck'
p1015
aS'or'
p1016
aS'up..'
p1017
aS'No'
p1018
aS'Rondo'
p1019
aS'house!'
p1020
aS'rising'
p1021
aS'determine'
p1022
aS'wade'
p1023
aS'your'
p1024
aS'her'
p1025
aS'Though'
p1026
aS'there'
p1027
aS'hey'
p1028
aS'lol'
p1029
aS'lmfaooo'
p1030
aS'start'
p1031
aS'lot'
p1032
aS'series'
p1033
aS'chisel'
p1034
aS'you.'
p1035
aS'mornings'
p1036
aS'complete'
p1037
aS'botth'
p1038
aS'blessings.'
p1039
aS'#IstayLaughing'
p1040
aS'you!'
p1041
aS'another.'
p1042
aS'trying'
p1043
aS'with'
p1044
aS"they're"
p1045
aS'commonality'
p1046
aS"wasn't"
p1047
aS'curses.'
p1048
aS'flirt'
p1049
aS'gone'
p1050
aS'gona'
p1051
aS'doin??'
p1052
aS'taste'
p1053
aS'am'
p1054
aS'Thursday'
p1055
aS'an'
p1056
aS'How'
p1057
aS'as'
p1058
aS'Adreal.'
p1059
aS'at'
p1060
aS'watched'
p1061
aS'again'
p1062
aS'stumbled'
p1063
aS'you.#NothingCanTearUsApart'
p1064
aS'deserve'
p1065
aS'#OccupyBoston'
p1066
aS'Simpsons'
p1067
aS'field'
p1068
aS'5'
aS'Bunyan'
p1069
aS'instantly'
p1070
aS'you'
p1071
aS'Lady'
p1072
aS'poor'
p1073
aS'obsessed'
p1074
aS'separate'
p1075
aS'@younow'
p1076
aS'lovers'
p1077
aS'serious'
p1078
aS'Holy'
p1079
aS'sobbing'
p1080
aS'Direct'
p1081
aS'cabinet!'
p1082
aS'u'
aS'starting'
p1083
aS'original'
p1084
aS'#BecauseItsOURcup'
p1085
aS'all'
p1086
aS'forget'
p1087
aS'lack'
p1088
aS'son.'
p1089
aS'month'
p1090
aS'.....'
p1091
aS'#Realshit'
p1092
aS'Take'
p1093
aS'invariably'
p1094
aS'talks'
p1095
aS'follow'
p1096
aS'Thought'
p1097
aS'referring'
p1098
aS'tv'
p1099
aS'really!'
p1100
aS'to'
p1101
aS'tail'
p1102
aS'th'
p1103
aS'smile'
p1104
aS'Chris.'
p1105
aS'#wordUp'
p1106
aS'song'
p1107
aS"Lala's"
p1108
aS'Dele'
p1109
aS'fat'
p1110
aS'Conversation'
p1111
aS'Soooo'
p1112
aS"I'd"
p1113
aS'worst'
p1114
aS'decide'
p1115
aS'fall'
p1116
aS"I'm"
p1117
aS'difference'
p1118
aS'23rd!!!!!!!!!!!!!!!!!'
p1119
aS'condition'
p1120
aS'litterally'
p1121
aS"Don't"
p1122
aS'--'
p1123
aS'list'
p1124
aS'these'
p1125
aS'Ring'
p1126
aS'Must'
p1127
aS'ten'
p1128
aS'streets'
p1129
aS'past'
p1130
aS'#Phillies'
p1131
aS'Only'
p1132
aS'Smh'
p1133
aS'creatures'
p1134
aS'what'
p1135
aS'sun'
p1136
aS'fucks'
p1137
aS'him.'
p1138
aS'full'
p1139
aS'excited!!'
p1140
aS'answers'
p1141
aS'hours'
p1142
aS'grab.'
p1143
aS'situation'
p1144
aS'directions'
p1145
aS'strong'
p1146
aS"y'all."
p1147
aS'loml'
p1148
aS'#readyforbed'
p1149
aS'amount'
p1150
aS'#thatshowthingsaregonnabe'
p1151
aS'lt;3'
p1152
aS'pick'
p1153
aS'fuck"'
p1154
aS'http://t.co/z9kQDuYP'
p1155
aS'Devil'
p1156
aS'@washingtonpost:'
p1157
aS'ask'
p1158
aS'America.'
p1159
aS'know.'
p1160
aS'guess.'
p1161
aS'wanted'
p1162
aS'takes'
p1163
aS'appraised.'
p1164
aS'waving.'
p1165
aS'two'
p1166
aS'what????!!!'
p1167
aS'#opinions'
p1168
aS'Block'
p1169
aS'6'
aS'more'
p1170
aS'tryna'
p1171
aS'knows'
p1172
aS'company'
p1173
aS'Patrick.'
p1174
aS'bhodho'
p1175
aS"ain't"
p1176
aS'known'
p1177
aS'hurry'
p1178
aS'glad'
p1179
aS'town'
p1180
aS'couples'
p1181
aS'none'
p1182
aS'conversating'
p1183
aS'shit.'
p1184
aS'Gods'
p1185
aS'farted'
p1186
aS'me!!'
p1187
aS'learn'
p1188
aS'abandon'
p1189
aS'Wade'
p1190
aS'Your'
p1191
aS'history'
p1192
aS'beautiful'
p1193
aS'challenging'
p1194
aS'share'
p1195
aS'flips'
p1196
aS'CAN'
p1197
aS'people.....'
p1198
aS'Cause'
p1199
aS'days.U'
p1200
aS'/'
aS'fstw..'
p1201
aS'information'
p1202
aS'needs'
p1203
aS't.v'
p1204
aS'goal'
p1205
aS'awkward'
p1206
aS'rather'
p1207
aS'acts'
p1208
aS'untied'
p1209
aS'#OverTheLimit'
p1210
aS'whore'
p1211
aS'Updating'
p1212
aS'okay'
p1213
aS'tried'
p1214
aS'rude'
p1215
aS'blood'
p1216
aS'coming'
p1217
aS'bahaha'
p1218
aS'response'
p1219
aS'a'
aS'#ifonlyicould'
p1220
aS'read'
p1221
aS'http://t.co/ISc4XBz3'
p1222
aS'influence.'
p1223
aS'bugs'
p1224
aS'act!'
p1225
aS'dream'
p1226
aS'playing'
p1227
aS"that's"
p1228
aS'Ima'
p1229
aS'What'
p1230
aS'addiction...'
p1231
aS'help'
p1232
aS"don't"
p1233
aS'soon'
p1234
aS'wiener'
p1235
aS'through'
p1236
aS'hell'
p1237
aS'its'
p1238
aS'Full'
p1239
aS'20'
p1240
aS'#Vegas'
p1241
aS'Thares'
p1242
aS'LONG'
p1243
aS'actually'
p1244
aS'truth.'
p1245
aS'lata'
p1246
aS'bout'
p1247
aS'it.'
p1248
aS'hurting'
p1249
aS'someone'
p1250
aS'somebody'
p1251
aS'yo'
p1252
aS'ya'
p1253
aS'it!'
p1254
aS'laptop..'
p1255
aS'great!'
p1256
aS'yu'
p1257
aS'complain'
p1258
aS'bigger'
p1259
aS'hotdogs'
p1260
aS'Ran'
p1261
aS'always'
p1262
aS'coniued'
p1263
aS'countersign'
p1264
aS':D'
p1265
aS'bullshit...'
p1266
aS'Ready'
p1267
aS'Hmmm'
p1268
aS'everyone'
p1269
aS'house'
p1270
aS'hard'
p1271
aS'idea'
p1272
aS'Waiting'
p1273
aS'Build'
p1274
aS'event'
p1275
aS'really'
p1276
aS'perry'
p1277
aS'Omg'
p1278
aS'missed'
p1279
aS'since'
p1280
aS'Laker'
p1281
aS'research'
p1282
aS'health'
p1283
aS'7'
aS'occurs'
p1284
aS'ass'
p1285
aS'eveerryywheerrre!!!'
p1286
aS'story'
p1287
aS'blessed-of'
p1288
aS'Wellllll'
p1289
aS'reason'
p1290
aS'Sonia'
p1291
aS'Architecture'
p1292
aS'imagine'
p1293
aS'put'
p1294
aS'beginning'
p1295
aS'illustion'
p1296
aS'benefits'
p1297
aS'People'
p1298
aS'MGK'
p1299
aS'Ed'
p1300
aS'needing'
p1301
aS'foreiGn...'
p1302
aS'american'
p1303
aS'summer!!'
p1304
aS'Respect'
p1305
aS'dis'
p1306
aS'dear.'
p1307
aS'#iphone4'
p1308
aS'major'
p1309
aS'dont'
p1310
aS'feel'
p1311
aS'number'
p1312
aS'sisters'
p1313
aS'dejavu'
p1314
aS'done'
p1315
aS'earthly'
p1316
aS'kobe'
p1317
aS'miss'
p1318
aS'sign..'
p1319
aS'guess'
p1320
aS'"'
aS'#rt'
p1321
aS'5th'
p1322
aS'least'
p1323
aS'bye..'
p1324
aS'too'
p1325
aS'#PartyRockin'
p1326
aS'relationship'
p1327
aS'park'
p1328
aS'Bugs'
p1329
aS'Out"'
p1330
aS'part'
p1331
aS'http://t.co/qwndbirS'
p1332
aS'believe'
p1333
aS'convinced'
p1334
aS'grace'
p1335
aS'kind'
p1336
aS'grew'
p1337
aS'sixers...'
p1338
aS'"Law'
p1339
aS'stall'
p1340
aS'supposed'
p1341
aS'Reunion'
p1342
aS'headache'
p1343
aS'shirts'
p1344
aS'outta'
p1345
aS'God'
p1346
aS'Kuchar'
p1347
aS'It'
p1348
aS'beast!'
p1349
aS'Dept.'
p1350
aS'showers'
p1351
aS'Got'
p1352
aS'Bout'
p1353
aS'lie'
p1354
aS'nights'
p1355
aS'lil'
p1356
aS'fashion.'
p1357
aS'panties.'
p1358
aS'finding'
p1359
aS'With'
p1360
aS'understand.'
p1361
aS'waitin'
p1362
aS'play'
p1363
aS'reach'
p1364
aS'#lovemercs'
p1365
aS'most'
p1366
aS'nothing'
p1367
aS'Fresh'
p1368
aS'The'
p1369
aS'understands'
p1370
aS'cover'
p1371
aS'stoning'
p1372
aS'night!'
p1373
aS'serious!'
p1374
aS'lying'
p1375
aS"You're"
p1376
aS'Had'
p1377
aS'Mathers'
p1378
aS'fine'
p1379
aS'overwhelmed'
p1380
aS'Zumba'
p1381
aS'@FreshPirnce'
p1382
aS'$2'
p1383
aS'marathons'
p1384
aS'circle'
p1385
aS'his'
p1386
aS'hit'
p1387
aS'feels'
p1388
aS'b'
aS'him'
p1389
aS"convo's"
p1390
aS'....'
p1391
aS'towards.'
p1392
aS'crush....'
p1393
aS'lemonade.'
p1394
aS'hype'
p1395
aS'wrote'
p1396
aS'gt;gt;gt;'
p1397
aS'I.Ds!'
p1398
aS'set'
p1399
aS'For'
p1400
aS'racing.'
p1401
aS'see'
p1402
aS'dumb'
p1403
aS'are'
p1404
aS'sea'
p1405
aS'b4...'
p1406
aS'leaving.'
p1407
aS'movie'
p1408
aS'please'
p1409
aS'won'
p1410
aS'years.'
p1411
aS'3pm?'
p1412
aS'pictured'
p1413
aS'available'
p1414
aS'Could'
p1415
aS'attention'
p1416
aS'pissed'
p1417
aS'AND'
p1418
aS'league'
p1419
aS'toward'
p1420
aS'last'
p1421
aS'thoe'
p1422
aS'"lol'
p1423
aS'whole'
p1424
aS'Friday'
p1425
aS'~Temptations'
p1426
aS'bridge'
p1427
aS'sweet'
p1428
aS'community'
p1429
aS'#BondingTime'
p1430
aS'http://t.co/mwipZRbo'
p1431
aS'there.'
p1432
aS'due'
p1433
aS'damn'
p1434
aS"That'll"
p1435
aS'#IncaseYouDidntKnow'
p1436
aS'meeting'
p1437
aS'woke'
p1438
aS'Women'
p1439
aS'gay'
p1440
aS'like.'
p1441
aS"what's"
p1442
aS'else'
p1443
aS'lives'
p1444
aS'tornados'
p1445
aS'Pick'
p1446
aS'instructor'
p1447
aS'Old'
p1448
aS'look'
p1449
aS'fuq'
p1450
aS'convo'
p1451
aS'bs.'
p1452
aS'while'
p1453
aS'match'
p1454
aS'fun'
p1455
aS'Kobe'
p1456
aS'yet...'
p1457
aS'pack'
p1458
aS'mac!'
p1459
aS'#House.'
p1460
aS'well*'
p1461
aS'@RevRunWisdom:'
p1462
aS'ready'
p1463
aS'away.'
p1464
aS'anymore'
p1465
aS'amp;'
p1466
aS'wierd'
p1467
aS'some.'
p1468
aS'peoples'
p1469
aS'About'
p1470
aS'used'
p1471
aS'Dear'
p1472
aS'moment'
p1473
aS'strength'
p1474
aS'moving'
p1475
aS'gonna'
p1476
aS'YOU'
p1477
aS'Wanna'
p1478
aS'kno'
p1479
aS'overwhelming.'
p1480
aS'people.'
p1481
aS'#OKC'
p1482
aS'anybody'
p1483
aS'Soo'
p1484
aS'picks'
p1485
aS'person'
p1486
aS'Girl'
p1487
aS'gt;gt;gt;gt;gt;gt;gt;gt;gt;gt;gt;gt;gt;'
p1488
aS'Quality'
p1489
aS'spend'
p1490
aS'questions'
p1491
aS'complain.'
p1492
aS'praying'
p1493
aS'cut'
p1494
aS'alternate'
p1495
aS'cuz'
p1496
aS'parents'
p1497
aS'questioned'
p1498
aS'crying'
p1499
aS'excited'
p1500
aS'surprised'
p1501
aS'...'
p1502
aS'Ok'
p1503
aS'forces'
p1504
aS'Oh'
p1505
aS'Did'
p1506
aS'big'
p1507
aS'p235-70r16104s'
p1508
aS'game'
p1509
aS'abound'
p1510
aS'Or'
p1511
aS'#GetHype'
p1512
aS'underway'
p1513
aS'ignore'
p1514
aS'brakes'
p1515
aS'spring'
p1516
aS'yolo'
p1517
aS'some'
p1518
aS'back'
p1519
aS'lips'
p1520
aS'Damn'
p1521
aS'reruns'
p1522
aS'into..'
p1523
aS'LMAO'
p1524
aS'Fire'
p1525
aS'decisiom'
p1526
aS'#oomf'
p1527
aS'prom'
p1528
aS'Nothing'
p1529
aS'pee'
p1530
aS"Here's"
p1531
aS'laughing'
p1532
aS'be'
p1533
aS'loud.'
p1534
aS'eating'
p1535
aS"fuckin'"
p1536
aS'fed'
p1537
aS'O'
aS'bk'
p1538
aS'step'
p1539
aS'crap'
p1540
aS'http://t.co/yhuVnuIU'
p1541
aS'tripping'
p1542
aS"Y'all"
p1543
aS'Taylor'
p1544
aS'Obsessed'
p1545
aS'anything'
p1546
aS'cigarette'
p1547
aS'graduation'
p1548
aS'ounce'
p1549
aS'wanna'
p1550
aS'ME!'
p1551
aS'oomf'
p1552
aS'into'
p1553
aS'-2Corinthians'
p1554
aS'Their'
p1555
aS'because'
p1556
aS'Gaga'
p1557
aS'lebron'
p1558
aS'people..'
p1559
aS'span'
p1560
aS'..'
p1561
aS'Reminds'
p1562
aS'Ooo'
p1563
aS'@jkalanie_x3'
p1564
aS'question'
p1565
aS'long'
p1566
aS'u.'
p1567
aS"we're"
p1568
aS':'
aS'u!'
p1569
aS'scared'
p1570
aS'wna'
p1571
aS'smiles*'
p1572
aS'boys'
p1573
aS'Fuxx'
p1574
aS"I'll"
p1575
aS'Mumford'
p1576
aS'Doing'
p1577
aS'Twitter'
p1578
aS'Sooo'
p1579
aS'up'
p1580
aS'ur'
p1581
aS'highlight'
p1582
aS'called'
p1583
aS'fans!'
p1584
aS'Tv'
p1585
aS'5-9'
p1586
aS'#fail'
p1587
aS'cute!!'
p1588
aS'To'
p1589
aS'chat'
p1590
aS'fabricating'
p1591
aS'May'
p1592
aS'peace'
p1593
aS'nap'
p1594
aS'tits'
p1595
aS'Believe'
p1596
aS'hell.'
p1597
aS'nice'
p1598
aS'AA'
p1599
aS'problems'
p1600
aS'before.'
p1601
aS'Shower'
p1602
aS'bonding'
p1603
aS'sides'
p1604
aS'@breezybabez'
p1605
aS'ago'
p1606
aS'happier'
p1607
aS"she'd"
p1608
aS'At'
p1609
aS'Aw'
p1610
aS'far'
p1611
aS'having'
p1612
aS'back!'
p1613
aS'katy'
p1614
aS'gt'
p1615
aS'@BernieStillFly:'
p1616
aS'happy!'
p1617
aS'go'
p1618
aS'young'
p1619
aS'kuvunzana'
p1620
aS'answer!!!'
p1621
aS'dislike'
p1622
aS'Now'
p1623
aS'knoooooow'
p1624
aS'more.'
p1625
aS'gender'
p1626
aS'try'
p1627
aS'workout....'
p1628
aS'Spo'
p1629
aS'havent'
p1630
aS"amp;'"
p1631
aS'other!'
p1632
aS'Spending'
p1633
aS'other.'
p1634
aS'sensation'
p1635
aS'waking'
p1636
aS'#idontlikeit'
p1637
aS'*oh'
p1638
aS'odd'
p1639
aS'@SocialRejectx:'
p1640
aS'that.'
p1641
aS'JUST'
p1642
aS'giving'
p1643
aS'that!'
p1644
aS'find'
p1645
aS'lmfao'
p1646
aS'waiting'
p1647
aS'that?'
p1648
aS'Cross*'
p1649
aS'America'
p1650
aS'Swift'
p1651
aS'Might'
p1652
aS'body'
p1653
aS'river?'
p1654
aS'pushing'
p1655
aS'punch'
p1656
aS'Obviously'
p1657
aS'youngest'
p1658
aS'http://t.co/WV3scfie'
p1659
aS'let'
p1660
aS'sing'
p1661
aS'irritating'
p1662
aS'great'
p1663
aS'Chinese'
p1664
aS'headache!!'
p1665
aS'skills!'
p1666
aS'CBP'
p1667
aS'derby'
p1668
aS'2chainz'
p1669
aS'thats'
p1670
aS'win'
p1671
aS'app'
p1672
aS'apt'
p1673
aS'wit'
p1674
aS'Treat'
p1675
aS'duck'
p1676
aS'sux.'
p1677
aS'cha'
p1678
aS'use'
p1679
aS'from'
p1680
aS'@ohheyitscallie'
p1681
aS"I'ma"
p1682
aS'next'
p1683
aS'few'
p1684
aS'themselves'
p1685
aS'touched'
p1686
aS'becomes'
p1687
aS'sister'
p1688
aS'finish-line'
p1689
aS'trail'
p1690
aS'#cheerobsessed'
p1691
aS'train'
p1692
aS'ap.'
p1693
aS'next!!!'
p1694
aS'this'
p1695
aS'ride'
p1696
aS'when'
p1697
aS'amp;amp;'
p1698
aS'\\~/'
p1699
aS'fetch'
p1700
aS'control'
p1701
aS'alcohol.'
p1702
aS'@Naabb21'
p1703
aS'blunt...'
p1704
aS'YO'
p1705
aS'pieces'
p1706
aS'high'
p1707
aS'Mr.'
p1708
aS'something'
p1709
aS'line.'
p1710
aS'instead'
p1711
aS'amazing!!!!!!'
p1712
aS'@grahamorama'
p1713
aS'http://t.co/cfeui8Jd'
p1714
aS'watch'
p1715
aS'act'
p1716
aS'#missedhim'
p1717
aS'Arietty!'
p1718
aS'gone.'
p1719
aS'light'
p1720
aS'summer?'
p1721
aS'One'
p1722
aS'agenda'
p1723
aS'addiction'
p1724
aS'9:8'
p1725
aS'Gonzales'
p1726
aS'move'
p1727
aS'(No.'
p1728
aS"won't"
p1729
aS'bunch'
p1730
aS'perfect'
p1731
aS'thanking'
p1732
aS'me?!'
p1733
aS'orange'
p1734
aS'holiday'
p1735
aS'world.'
p1736
aS'dad'
p1737
aS'happened.'
p1738
aS'Brother'
p1739
aS'dat'
p1740
aS'mention'
p1741
aS'Can'
p1742
aS'das'
p1743
aS'day'
p1744
aS'refering'
p1745
aS'Summer'
p1746
aS'feast'
p1747
aS'truth'
p1748
aS'#OneTreeHill'
p1749
aS'stock'
p1750
aS'|'
aS'girl!!'
p1751
aS'doing'
p1752
aS'books'
p1753
aS'b*tch'
p1754
aS'our'
p1755
aS'special'
p1756
aS'out'
p1757
aS'Borrowed'
p1758
aS'stripper.'
p1759
aS'lt;'
p1760
aS'then......'
p1761
aS'cause'
p1762
aS'announced'
p1763
aS'shut'
p1764
aS'jessica'
p1765
aS'headphones.'
p1766
aS'This'
p1767
aS'weridest'
p1768
aS'phone..'
p1769
aS'Enforced'
p1770
aS'organic'
p1771
aS'(8)'
p1772
aS'times'
p1773
aS'conversation'
p1774
aS'mine...'
p1775
aS'FaceTime'
p1776
aS'anyone.'
p1777
aS'bars'
p1778
aS'sack'
p1779
aS'bitch'
p1780
aS'such'
p1781
aS'fuck?..'
p1782
aS"doesn't"
p1783
aS'Hubby'
p1784
aS'be.'
p1785
aS'fuckery'
p1786
aS'-George'
p1787
aS'*tear*'
p1788
aS'their'
p1789
aS'Twonkies.The'
p1790
aS'be?'
p1791
aS'laughs.'
p1792
aS'exactly'
p1793
aS'relationship?"'
p1794
aS'Reminding'
p1795
aS'grandpa'
p1796
aS"that'll"
p1797
aS'herself'
p1798
aS'loved'
p1799
aS'yrs'
p1800
aS'Stressing'
p1801
aS'bed'
p1802
aS'can...'
p1803
aS'curiosity.'
p1804
aS'bet'
p1805
aS'drunk'
p1806
aS'bisexual'
p1807
aS'tonight!!!'
p1808
aS'minessssssss'
p1809
aS'tonight'
p1810
aS'Secret'
p1811
aS'have'
p1812
aS'need'
p1813
aS'http://t.co/nHl1A3fJ'
p1814
aS'blessings!'
p1815
aS'screw'
p1816
aS'afraid'
p1817
aS'min'
p1818
aS'studying'
p1819
aS'sufficiency'
p1820
aS'='
aS'Borrowers'
p1821
aS'lectures'
p1822
aS'@MPalestisxo'
p1823
aS'who'
p1824
aS'whr'
p1825
aS'why'
p1826
aS'Yeeahhhh'
p1827
aS'#RT'
p1828
aS'eachother'
p1829
aS'face'
p1830
aS'looked'
p1831
aS"you'll"
p1832
aS'Shit'
p1833
aS'painting'
p1834
aS'fact'
p1835
aS'son'
p1836
aS'text'
p1837
aS'life...gone.'
p1838
aS'one.'
p1839
aS'bring'
p1840
aS'crib....'
p1841
aS'Independence'
p1842
aS'one'
p1843
aS'true.'
p1844
aS'Vanessa'
p1845
aS'much'
p1846
aS'should'
p1847
aS'true?'
p1848
aS'Sons'
p1849
aS'Mom'
p1850
aS'riding'
p1851
aS'Radio.'
p1852
aS'hope'
p1853
aS'watching'
p1854
aS'beat'
p1855
aS'overall'
p1856
aS'inseam'
p1857
aS'Keep'
p1858
aS'abundance'
p1859
aS'c63'
p1860
aS'probably'
p1861
aS'@TheGlrlsWho:'
p1862
aS'=)'
p1863
aS'gray'
p1864
aS'talking.'
p1865
aS'#NotEvenDistance'
p1866
aS'ughh'
p1867
aS'stuff'
p1868
aS'she'
p1869
aS'end?'
p1870
aS'!!!!'
p1871
aS'accused'
p1872
aS'Passion'
p1873
aS'cold'
p1874
aS'Sent'
p1875
aS'Good'
p1876
aS'week...'
p1877
aS'Coachin'
p1878
aS'frustrated'
p1879
aS'sold'
p1880
aS'pants'
p1881
aS'Shoulder'
p1882
aS'RT'
p1883
aS'opening'
p1884
aS'job'
p1885
aS'group'
p1886
aS'staring'
p1887
aS'instant'
p1888
aS'iPod'
p1889
aS'Design'
p1890
aS'comment'
p1891
aS'#house'
p1892
aS'Alarm.'
p1893
aS'Her'
p1894
aS'wall'
p1895
aS'DVD'
p1896
aS'Lol'
p1897
aS'walk'
p1898
aS'Finally'
p1899
aS'Music'
p1900
aS'laugh'
p1901
aS'.-.'
p1902
aS'respect'
p1903
aS'Regrets'
p1904
aS"it's"
p1905
aS'copies'
p1906
aS'"just'
p1907
aS'recurring'
p1908
aS'realize'
p1909
aS'c:'
p1910
aS'finished'
p1911
aS'-.-'
p1912
aS'CDs'
p1913
aS"That's"
p1914
aS'And'
p1915
aS'quiet...'
p1916
aS'nd'
p1917
aS'will'
p1918
aS'Pulling'
p1919
aS'wild'
p1920
aS'Babe?!'
p1921
aS'Goin'
p1922
aS'sister!'
p1923
aS'vs'
p1924
aS'You'
p1925
aS'Hope'
p1926
aS'though!'
p1927
aS'-___-'
p1928
aS'of.'
p1929
aS'Sore'
p1930
aS'parts'
p1931
aS'tumbling'
p1932
aS'units'
p1933
aS'party'
p1934
aS'gets'
p1935
aS'difficult'
p1936
aS'ball'
p1937
aS'innings'
p1938
aS'drink'
p1939
aS'Lala'
p1940
aS'#motivation'
p1941
aS'ion'
p1942
aS'fucked'
p1943
aS'//'
p1944
aS'off'
p1945
aS'i'
aS'well'
p1946
aS'year.'
p1947
aS'fighting'
p1948
aS'thought'
p1949
aS'wyd'
p1950
aS'Have'
p1951
aS'Need'
p1952
aS'cup.....with'
p1953
aS'newest'
p1954
aS'less'
p1955
aS'moments'
p1956
aS'believe..'
p1957
aS'hands'
p1958
aS'ATTITUDE'
p1959
aS'twat.'
p1960
aS'#yeesh'
p1961
aS'Be'
p1962
aS'work.'
p1963
aS'point'
p1964
aS'sky'
p1965
aS'wen'
p1966
aS'bench'
p1967
aS'other'
p1968
aS'wet'
p1969
aS'@AneduKAtor_508:'
p1970
aS'balloons'
p1971
aS'By'
p1972
aS'homework'
p1973
aS'checking'
p1974
aS'Attributed'
p1975
aS'CREEEEEEEWWWWW!!'
p1976
aS'know'
p1977
aS'fireworks..my'
p1978
aS'immediately'
p1979
aS'tweet.'
p1980
aS'like'
p1981
aS'lost'
p1982
aS'Lorraine'
p1983
aS'Simple'
p1984
aS'Sheeran'
p1985
aS'lose'
p1986
aS'become'
p1987
aS'Streets....'
p1988
aS'poesssion'
p1989
aS'nigga'
p1990
aS'Sun'
p1991
aS'twitter'
p1992
aS'alive'
p1993
aS'self'
p1994
aS'hair'
p1995
aS'Thrones:'
p1996
aS"There's"
p1997
aS'ceremony!!!!!'
p1998
aS'home'
p1999
aS'happens'
p2000
aS'Mike'
p2001
aS'iPad-'
p2002
aS'lead'
p2003
aS'heals'
p2004
aS'does'
p2005
aS'passion'
p2006
aS'ovaaaaa!'
p2007
aS'?'
aS'Inside'
p2008
aS'http://t.co/Nul8oZ8q'
p2009
aS'hurts.'
p2010
aS'about'
p2011
aS'swear'
p2012
aS'urges'
p2013
aS'introduced'
p2014
aS'own'
p2015
aS'awkward.'
p2016
aS'pussy'
p2017
aS'Two'
p2018
aS'billions'
p2019
aS'now!'
p2020
aS'weather'
p2021
aS'female'
p2022
aS'dondo'
p2023
aS'Approach'
p2024
aS'death.'
p2025
aS'minute.'
p2026
aS'van'
p2027
aS"put'em"
p2028
aS'*fingers'
p2029
aS'#UpAllNight'
p2030
aS'noticed'
p2031
aS'bump'
p2032
aS'now?'
p2033
aS'Listening'
p2034
aS'ed'
p2035
aS'@NurseJessica_88:'
p2036
aS'place.'
p2037
aS'Chill'
p2038
aS'buy'
p2039
aS'bitches'
p2040
aS'but'
p2041
aS'http://t.co/LJCAkOh8'
p2042
aS'Welp'
p2043
aS'Den'
p2044
aS'ha'
p2045
aS'eat'
p2046
aS'he'
p2047
aS'count'
p2048
aS'Ive'
p2049
aS'made'
p2050
aS'wish'
p2051
aS'this.'
p2052
aS'Tex'
p2053
aS'http://t.co/QMThx7Ek'
p2054
aS'limit'
p2055
aS'Tahlia'
p2056
aS'cake'
p2057
aS'most.'
p2058
aS'piece'
p2059
aS'Nats'
p2060
aS'Yeah'
p2061
aS'happen'
p2062
aS'Never'
p2063
aS'offensive'
p2064
aS'fire'
p2065
aS'book'
p2066
aS'sick'
p2067
aS'talkin'
p2068
aS'Like'
p2069
aS'period.'
p2070
aS'shouldve'
p2071
aS'#here'
p2072
aS'stay'
p2073
aS'again:'
p2074
aS'U'
aS'kinda'
p2075
aS'extremity.'
p2076
aS'Out!!!!!!'
p2077
aS'friends'
p2078
aS'South'
p2079
aS'http://t.co/xu6pw1IR'
p2080
aS'http://t.co/yWLMGEPR'
p2081
aS'COD..gettin'
p2082
aS"dog's"
p2083
aS'understand'
p2084
aS'commencement'
p2085
atRp2086
sS'categories'
p2087
(dp2088
S'positive'
p2089
(dp2090
S'prob_word'
p2091
(dp2092
g8
F-12.29748950116098
sg6
F-12.29748950116098
sg7
F-11.29748950116098
sg5
F-12.29748950116098
sg9
F-10.29748950116098
sg10
F-11.29748950116098
sg11
F-11.29748950116098
sg12
F-12.29748950116098
sg1930
F-12.29748950116098
sg13
F-12.29748950116098
sg14
F-12.29748950116098
sg15
F-12.29748950116098
sg16
F-12.29748950116098
sg17
F-12.29748950116098
sg18
F-12.29748950116098
sg19
F-12.29748950116098
sg20
F-11.29748950116098
sg21
F-11.29748950116098
sg22
F-9.9755614062736182
sg23
F-11.29748950116098
sg24
F-12.29748950116098
sg25
F-11.29748950116098
sg26
F-12.29748950116098
sg27
F-11.29748950116098
sg28
F-11.29748950116098
sg1449
F-11.29748950116098
sg30
F-11.29748950116098
sg31
F-10.712527000439824
sg32
F-11.29748950116098
sg33
F-11.29748950116098
sg34
F-11.29748950116098
sg1091
F-12.29748950116098
sg36
F-10.29748950116098
sg37
F-12.29748950116098
sg38
F-12.29748950116098
sg39
F-11.29748950116098
sg40
F-11.29748950116098
sg41
F-11.29748950116098
sg42
F-12.29748950116098
sg43
F-10.29748950116098
sg44
F-11.29748950116098
sg45
F-11.29748950116098
sg46
F-11.29748950116098
sg47
F-11.29748950116098
sg48
F-10.712527000439824
sg49
F-12.29748950116098
sg50
F-11.29748950116098
sg51
F-10.712527000439824
sg52
F-12.29748950116098
sg53
F-12.29748950116098
sg54
F-11.29748950116098
sg55
F-11.29748950116098
sg56
F-11.29748950116098
sg57
F-12.29748950116098
sg58
F-9.9755614062736182
sg59
F-11.29748950116098
sg60
F-11.29748950116098
sg310
F-11.29748950116098
sg62
F-11.29748950116098
sg752
F-10.712527000439824
sg64
F-9.4901345791033762
sg65
F-11.29748950116098
sg66
F-12.29748950116098
sg67
F-11.29748950116098
sg68
F-11.29748950116098
sg69
F-11.29748950116098
sg70
F-11.29748950116098
sg71
F-12.29748950116098
sg72
F-12.29748950116098
sg73
F-11.29748950116098
sg74
F-11.29748950116098
sg75
F-12.29748950116098
sg76
F-11.29748950116098
sg77
F-11.29748950116098
sg78
F-11.29748950116098
sg79
F-12.29748950116098
sg80
F-12.29748950116098
sg81
F-11.29748950116098
sg497
F-11.29748950116098
sg82
F-12.29748950116098
sg83
F-11.29748950116098
sg84
F-11.29748950116098
sg85
F-10.29748950116098
sg86
F-11.29748950116098
sg87
F-11.29748950116098
sg502
F-11.29748950116098
sg90
F-12.29748950116098
sg88
F-12.29748950116098
sg92
F-11.29748950116098
sg93
F-11.29748950116098
sg94
F-12.29748950116098
sg95
F-11.29748950116098
sg96
F-11.29748950116098
sg97
F-11.29748950116098
sg98
F-12.29748950116098
sg556
F-12.29748950116098
sg557
F-8.1275644997186678
sg101
F-11.29748950116098
sg102
F-11.29748950116098
sg103
F-11.29748950116098
sg104
F-11.29748950116098
sg105
F-12.29748950116098
sg106
F-10.712527000439824
sg107
F-7.0120872822987312
sg1772
F-12.29748950116098
sg109
F-12.29748950116098
sg621
F-11.29748950116098
sg112
F-12.29748950116098
sg1463
F-10.29748950116098
sg114
F-8.5970497830198873
sg115
F-11.29748950116098
sg1773
F-10.712527000439824
sg117
F-11.29748950116098
sg118
F-11.29748950116098
sg675
F-11.29748950116098
sg120
F-12.29748950116098
sg1107
F-10.712527000439824
sg122
F-11.29748950116098
sg123
F-11.29748950116098
sg124
F-11.29748950116098
sg125
F-12.29748950116098
sg126
F-11.29748950116098
sg127
F-12.29748950116098
sg128
F-11.29748950116098
sS'A'
F-10.29748950116098
sg129
F-11.29748950116098
sg130
F-11.29748950116098
sg131
F-10.712527000439824
sg132
F-11.29748950116098
sg133
F-9.9755614062736182
sg134
F-11.29748950116098
sg135
F-11.29748950116098
sg136
F-12.29748950116098
sg137
F-11.29748950116098
sg138
F-11.29748950116098
sg139
F-12.29748950116098
sg140
F-11.29748950116098
sg1114
F-11.29748950116098
sg142
F-11.29748950116098
sg143
F-11.29748950116098
sg144
F-11.29748950116098
sg1115
F-12.29748950116098
sg147
F-10.29748950116098
sg148
F-12.29748950116098
sg149
F-11.29748950116098
sg150
F-11.29748950116098
sg151
F-12.29748950116098
sg152
F-10.712527000439824
sg153
F-11.29748950116098
sg1602
F-11.29748950116098
sg154
F-11.29748950116098
sg1466
F-9.1275644997186678
sg155
F-12.29748950116098
sg156
F-12.29748950116098
sg157
F-11.29748950116098
sg158
F-9.9755614062736182
sg159
F-9.9755614062736182
sg160
F-12.29748950116098
sg161
F-9.7125270004398239
sg162
F-9.9755614062736182
sg933
F-11.29748950116098
sg164
F-10.712527000439824
sg165
F-11.29748950116098
sg166
F-12.29748950116098
sg168
F-9.1275644997186678
sg1121
F-12.29748950116098
sg170
F-12.29748950116098
sg171
F-11.29748950116098
sg173
F-11.29748950116098
sg174
F-11.29748950116098
sg175
F-11.29748950116098
sg176
F-11.29748950116098
sg178
F-11.29748950116098
sg179
F-11.29748950116098
sg180
F-12.29748950116098
sg181
F-11.29748950116098
sg182
F-12.29748950116098
sg1015
F-11.29748950116098
sg1124
F-12.29748950116098
sg185
F-12.29748950116098
sg186
F-11.29748950116098
sg188
F-11.29748950116098
sg189
F-12.29748950116098
sg190
F-9.7125270004398239
sg191
F-12.29748950116098
sg192
F-11.29748950116098
sg193
F-11.29748950116098
sg194
F-9.4901345791033762
sg195
F-11.29748950116098
sg196
F-10.712527000439824
sg1783
F-12.29748950116098
sg198
F-11.29748950116098
sg199
F-11.29748950116098
sg1162
F-11.29748950116098
sg201
F-11.29748950116098
sg202
F-11.29748950116098
sg203
F-12.29748950116098
sg204
F-11.29748950116098
sg205
F-11.29748950116098
sg206
F-11.29748950116098
sg209
F-12.29748950116098
sg210
F-10.712527000439824
sg211
F-11.29748950116098
sg212
F-12.29748950116098
sg213
F-12.29748950116098
sg214
F-11.29748950116098
sg215
F-11.29748950116098
sg216
F-11.29748950116098
sg217
F-11.29748950116098
sg218
F-12.29748950116098
sg219
F-12.29748950116098
sg1291
F-11.29748950116098
sg221
F-10.29748950116098
sg223
F-11.29748950116098
sg224
F-12.29748950116098
sg225
F-11.29748950116098
sg226
F-11.29748950116098
sg227
F-12.29748950116098
sg228
F-10.712527000439824
sg229
F-11.29748950116098
sg778
F-10.712527000439824
sg231
F-11.29748950116098
sg232
F-12.29748950116098
sg233
F-12.29748950116098
sg235
F-11.29748950116098
sg236
F-10.712527000439824
sg237
F-10.712527000439824
sg238
F-11.29748950116098
sg239
F-11.29748950116098
sg240
F-11.29748950116098
sg241
F-12.29748950116098
sg242
F-11.29748950116098
sg243
F-11.29748950116098
sg244
F-11.29748950116098
sg1133
F-12.29748950116098
sg246
F-11.29748950116098
sg247
F-11.29748950116098
sg248
F-12.29748950116098
sg249
F-11.29748950116098
sg250
F-12.29748950116098
sg251
F-11.29748950116098
sg1485
F-12.29748950116098
sg253
F-12.29748950116098
sg254
F-11.29748950116098
sg255
F-11.29748950116098
sg1486
F-9.9755614062736182
sS'-'
F-11.29748950116098
sg1907
F-11.29748950116098
sg258
F-12.29748950116098
sg259
F-12.29748950116098
sg260
F-9.9755614062736182
sg261
F-11.29748950116098
sg262
F-11.29748950116098
sg1793
F-11.29748950116098
sg264
F-12.29748950116098
sg265
F-11.29748950116098
sg266
F-11.29748950116098
sg267
F-11.29748950116098
sg268
F-11.29748950116098
sg269
F-5.3549749958217401
sg270
F-12.29748950116098
sg1795
F-12.29748950116098
sg272
F-12.29748950116098
sg273
F-11.29748950116098
sg274
F-11.29748950116098
sg275
F-12.29748950116098
sg276
F-11.29748950116098
sg277
F-11.29748950116098
sg278
F-12.29748950116098
sg279
F-12.29748950116098
sg280
F-11.29748950116098
sg281
F-11.29748950116098
sg282
F-12.29748950116098
sg283
F-10.712527000439824
sg284
F-11.29748950116098
sg285
F-11.29748950116098
sg286
F-11.29748950116098
sg1138
F-11.29748950116098
sg288
F-12.29748950116098
sg289
F-11.29748950116098
sg291
F-12.29748950116098
sg292
F-12.29748950116098
sg293
F-12.29748950116098
sg294
F-9.2974895011609799
sg295
F-11.29748950116098
sg296
F-11.29748950116098
sg297
F-11.29748950116098
sg1799
F-12.29748950116098
sg299
F-10.712527000439824
sg791
F-12.29748950116098
sg301
F-10.29748950116098
sg302
F-12.29748950116098
sg303
F-12.29748950116098
sg304
F-11.29748950116098
sg305
F-11.29748950116098
sg307
F-11.29748950116098
sg308
F-10.712527000439824
sg309
F-12.29748950116098
sg61
F-12.29748950116098
sg311
F-12.29748950116098
sg312
F-12.29748950116098
sg313
F-12.29748950116098
sg314
F-12.29748950116098
sg315
F-12.29748950116098
sg316
F-11.29748950116098
sg317
F-9.7125270004398239
sg318
F-10.29748950116098
sg319
F-11.29748950116098
sg320
F-11.29748950116098
sg321
F-11.29748950116098
sg322
F-11.29748950116098
sg323
F-10.712527000439824
sg324
F-11.29748950116098
sg325
F-9.9755614062736182
sg961
F-12.29748950116098
sg327
F-12.29748950116098
sg328
F-12.29748950116098
sg329
F-12.29748950116098
sg330
F-11.29748950116098
sg222
F-11.29748950116098
sg332
F-12.29748950116098
sg333
F-11.29748950116098
sg334
F-12.29748950116098
sg335
F-12.29748950116098
sg336
F-12.29748950116098
sg337
F-12.29748950116098
sg338
F-12.29748950116098
sg339
F-11.29748950116098
sg340
F-11.29748950116098
sg341
F-12.29748950116098
sg1108
F-12.29748950116098
sg342
F-12.29748950116098
sg343
F-11.29748950116098
sg345
F-11.29748950116098
sg346
F-12.29748950116098
sg347
F-11.29748950116098
sg348
F-11.29748950116098
sg349
F-9.9755614062736182
sg350
F-10.712527000439824
sg351
F-11.29748950116098
sg352
F-10.29748950116098
sS'.'
F-8.9755614062736164
sg353
F-11.29748950116098
sg354
F-12.29748950116098
sg355
F-11.29748950116098
sg356
F-11.29748950116098
sg357
F-11.29748950116098
sg358
F-11.29748950116098
sg359
F-11.29748950116098
sg360
F-9.7125270004398239
sg361
F-12.29748950116098
sg362
F-11.29748950116098
sg363
F-12.29748950116098
sg364
F-11.29748950116098
sg365
F-12.29748950116098
sg366
F-11.29748950116098
sg1579
F-10.712527000439824
sg368
F-11.29748950116098
sg369
F-11.29748950116098
sg370
F-11.29748950116098
sS'n'
F-11.29748950116098
sg371
F-10.712527000439824
sg372
F-12.29748950116098
sg373
F-11.29748950116098
sg374
F-11.29748950116098
sg375
F-11.29748950116098
sg376
F-11.29748950116098
sg1502
F-11.29748950116098
sg378
F-6.8056364048313052
sg379
F-7.9051720783822192
sg380
F-11.29748950116098
sg381
F-12.29748950116098
sg382
F-11.29748950116098
sg383
F-9.9755614062736182
sg384
F-7.2530953818025257
sg1503
F-12.29748950116098
sg386
F-12.29748950116098
sg387
F-12.29748950116098
sg388
F-11.29748950116098
sg389
F-12.29748950116098
sg390
F-11.29748950116098
sg391
F-9.9755614062736182
sg392
F-9.9755614062736182
sg393
F-11.29748950116098
sg394
F-12.29748950116098
sg1507
F-11.29748950116098
sg396
F-11.29748950116098
sg397
F-12.29748950116098
sg398
F-11.29748950116098
sg399
F-11.29748950116098
sg400
F-11.29748950116098
sg401
F-12.29748950116098
sg402
F-11.29748950116098
sg1474
F-11.29748950116098
sg403
F-11.29748950116098
sg404
F-11.29748950116098
sg405
F-11.29748950116098
sg406
F-11.29748950116098
sg407
F-11.29748950116098
sg408
F-12.29748950116098
sg1819
F-12.29748950116098
sg410
F-12.29748950116098
sg411
F-11.29748950116098
sg412
F-11.29748950116098
sg413
F-11.29748950116098
sg414
F-11.29748950116098
sg415
F-10.712527000439824
sg416
F-11.29748950116098
sg417
F-11.29748950116098
sg418
F-8.2974895011609799
sg419
F-11.29748950116098
sg420
F-10.712527000439824
sg421
F-11.29748950116098
sg1623
F-11.29748950116098
sg422
F-12.29748950116098
sg423
F-11.29748950116098
sg424
F-9.7125270004398239
sg425
F-11.29748950116098
sg426
F-12.29748950116098
sg427
F-12.29748950116098
sg428
F-11.29748950116098
sg429
F-11.29748950116098
sg430
F-11.29748950116098
sg1922
F-11.29748950116098
sg431
F-12.29748950116098
sg434
F-12.29748950116098
sg435
F-12.29748950116098
sg436
F-11.29748950116098
sg437
F-12.29748950116098
sg438
F-11.29748950116098
sg439
F-11.29748950116098
sg440
F-10.712527000439824
sg441
F-10.712527000439824
sg442
F-11.29748950116098
sg443
F-11.29748950116098
sg444
F-9.9755614062736182
sg445
F-10.712527000439824
sg446
F-12.29748950116098
sg447
F-9.2974895011609799
sg448
F-12.29748950116098
sg449
F-11.29748950116098
sg450
F-12.29748950116098
sg451
F-12.29748950116098
sg453
F-11.29748950116098
sg454
F-10.712527000439824
sg455
F-7.8380578825236826
sg547
F-11.29748950116098
sg457
F-11.29748950116098
sg552
F-12.29748950116098
sg459
F-11.29748950116098
sg460
F-12.29748950116098
sg461
F-12.29748950116098
sg462
F-12.29748950116098
sg561
F-11.29748950116098
sg464
F-11.29748950116098
sg564
F-12.29748950116098
sg572
F-11.29748950116098
sg467
F-12.29748950116098
sg469
F-12.29748950116098
sg470
F-12.29748950116098
sg471
F-11.29748950116098
sg472
F-11.29748950116098
sg473
F-11.29748950116098
sg1646
F-11.29748950116098
sg1825
F-11.29748950116098
sg474
F-11.29748950116098
sg475
F-12.29748950116098
sg476
F-11.29748950116098
sg478
F-12.29748950116098
sg479
F-12.29748950116098
sg697
F-11.29748950116098
sg481
F-12.29748950116098
sg482
F-11.29748950116098
sg483
F-11.29748950116098
sg709
F-11.29748950116098
sg1166
F-11.29748950116098
sg486
F-10.712527000439824
sg487
F-12.29748950116098
sg488
F-12.29748950116098
sg489
F-11.29748950116098
sg1826
F-11.29748950116098
sg491
F-12.29748950116098
sg492
F-9.7125270004398239
sg493
F-12.29748950116098
sg494
F-12.29748950116098
sg495
F-9.4901345791033762
sg496
F-11.29748950116098
sg477
F-11.29748950116098
sg1519
F-9.4901345791033762
sg498
F-11.29748950116098
sg499
F-11.29748950116098
sg500
F-11.29748950116098
sg501
F-12.29748950116098
sg503
F-11.29748950116098
sg860
F-11.29748950116098
sg505
F-12.29748950116098
sg829
F-12.29748950116098
sg507
F-11.29748950116098
sg508
F-11.29748950116098
sg509
F-11.29748950116098
sg510
F-12.29748950116098
sg511
F-11.29748950116098
sg512
F-9.9755614062736182
sg513
F-12.29748950116098
sg514
F-12.29748950116098
sg515
F-11.29748950116098
sg516
F-12.29748950116098
sg517
F-9.4901345791033762
sg518
F-12.29748950116098
sg519
F-12.29748950116098
sg520
F-12.29748950116098
sg521
F-12.29748950116098
sg522
F-12.29748950116098
sg978
F-11.29748950116098
sg524
F-12.29748950116098
sg525
F-11.29748950116098
sg526
F-12.29748950116098
sg527
F-12.29748950116098
sg528
F-11.29748950116098
sg529
F-12.29748950116098
sg530
F-10.712527000439824
sg531
F-12.29748950116098
sg532
F-12.29748950116098
sg1175
F-12.29748950116098
sg534
F-10.712527000439824
sg535
F-11.29748950116098
sg536
F-11.29748950116098
sg537
F-12.29748950116098
sg538
F-12.29748950116098
sg539
F-9.4901345791033762
sg540
F-11.29748950116098
sg1176
F-11.29748950116098
sg542
F-11.29748950116098
sg543
F-11.29748950116098
sg544
F-12.29748950116098
sg545
F-9.9755614062736182
sg546
F-12.29748950116098
sS'/'
F-11.29748950116098
sg548
F-10.712527000439824
sg549
F-11.29748950116098
sg550
F-12.29748950116098
sg551
F-11.29748950116098
sg458
F-11.29748950116098
sg553
F-11.29748950116098
sg554
F-12.29748950116098
sS'0'
F-12.29748950116098
sg555
F-12.29748950116098
sg99
F-10.712527000439824
sg100
F-12.29748950116098
sg558
F-11.29748950116098
sg559
F-12.29748950116098
sg560
F-11.29748950116098
sg463
F-12.29748950116098
sg562
F-11.29748950116098
sg563
F-12.29748950116098
sg465
F-10.712527000439824
sg565
F-9.7125270004398239
sg566
F-10.29748950116098
sg567
F-11.29748950116098
sg568
F-10.712527000439824
sg569
F-11.29748950116098
sg570
F-12.29748950116098
sg571
F-11.29748950116098
sg466
F-11.29748950116098
sg573
F-11.29748950116098
sg574
F-11.29748950116098
sg575
F-12.29748950116098
sg576
F-12.29748950116098
sg577
F-12.29748950116098
sg578
F-12.29748950116098
sg579
F-12.29748950116098
sg580
F-12.29748950116098
sg581
F-12.29748950116098
sg582
F-12.29748950116098
sg583
F-11.29748950116098
sg584
F-11.29748950116098
sg585
F-11.29748950116098
sg586
F-11.29748950116098
sg587
F-11.29748950116098
sg588
F-11.29748950116098
sg167
F-11.29748950116098
sg590
F-10.712527000439824
sg591
F-11.29748950116098
sg592
F-12.29748950116098
sg593
F-11.29748950116098
sg594
F-11.29748950116098
sg595
F-11.29748950116098
sg596
F-11.29748950116098
sg597
F-11.29748950116098
sg598
F-11.29748950116098
sg599
F-12.29748950116098
sg600
F-12.29748950116098
sg601
F-10.712527000439824
sg602
F-12.29748950116098
sg603
F-11.29748950116098
sg604
F-12.29748950116098
sg606
F-11.29748950116098
sg607
F-12.29748950116098
sg433
F-11.29748950116098
sg609
F-11.29748950116098
sg610
F-11.29748950116098
sg611
F-8.8380578825236817
sg612
F-11.29748950116098
sg613
F-11.29748950116098
sg615
F-10.712527000439824
sg616
F-11.29748950116098
sg617
F-11.29748950116098
sg618
F-12.29748950116098
sg619
F-11.29748950116098
sg620
F-12.29748950116098
sg110
F-11.29748950116098
sg622
F-10.29748950116098
sg623
F-11.29748950116098
sg624
F-12.29748950116098
sg625
F-11.29748950116098
sg626
F-11.29748950116098
sg627
F-11.29748950116098
sg628
F-9.9755614062736182
sg629
F-11.29748950116098
sg630
F-12.29748950116098
sg631
F-12.29748950116098
sg632
F-12.29748950116098
sg633
F-12.29748950116098
sg634
F-11.29748950116098
sg635
F-11.29748950116098
sg636
F-12.29748950116098
sg637
F-11.29748950116098
sg638
F-12.29748950116098
sg639
F-8.8380578825236817
sg640
F-11.29748950116098
sg641
F-11.29748950116098
sg642
F-12.29748950116098
sg643
F-12.29748950116098
sg644
F-11.29748950116098
sg645
F-12.29748950116098
sg646
F-10.29748950116098
sg647
F-11.29748950116098
sg648
F-11.29748950116098
sg649
F-12.29748950116098
sg650
F-11.29748950116098
sg651
F-11.29748950116098
sg652
F-11.29748950116098
sg653
F-11.29748950116098
sg654
F-12.29748950116098
sg1199
F-12.29748950116098
sg656
F-11.29748950116098
sg657
F-11.29748950116098
sS'1'
F-10.712527000439824
sg658
F-11.29748950116098
sg659
F-12.29748950116098
sg1201
F-12.29748950116098
sg660
F-11.29748950116098
sg661
F-12.29748950116098
sg662
F-11.29748950116098
sg663
F-12.29748950116098
sg664
F-11.29748950116098
sg665
F-11.29748950116098
sg666
F-11.29748950116098
sg1109
F-11.29748950116098
sg668
F-12.29748950116098
sg669
F-11.29748950116098
sg670
F-11.29748950116098
sg671
F-11.29748950116098
sg672
F-12.29748950116098
sg673
F-11.29748950116098
sg674
F-11.29748950116098
sg676
F-11.29748950116098
sg677
F-11.29748950116098
sg678
F-8.9755614062736164
sg679
F-10.712527000439824
sg680
F-12.29748950116098
sg681
F-12.29748950116098
sg682
F-12.29748950116098
sg683
F-12.29748950116098
sg684
F-11.29748950116098
sg685
F-12.29748950116098
sg686
F-12.29748950116098
sg687
F-12.29748950116098
sg688
F-12.29748950116098
sg689
F-11.29748950116098
sg690
F-12.29748950116098
sg691
F-10.712527000439824
sg692
F-12.29748950116098
sg693
F-11.29748950116098
sg694
F-11.29748950116098
sg695
F-11.29748950116098
sg696
F-12.29748950116098
sg480
F-12.29748950116098
sg698
F-12.29748950116098
sg699
F-11.29748950116098
sg700
F-11.29748950116098
sg290
F-11.29748950116098
sg702
F-10.29748950116098
sg703
F-11.29748950116098
sg704
F-12.29748950116098
sg705
F-11.29748950116098
sg706
F-12.29748950116098
sg1864
F-12.29748950116098
sg708
F-11.29748950116098
sg1983
F-12.29748950116098
sg484
F-11.29748950116098
sg710
F-11.29748950116098
sg711
F-12.29748950116098
sg712
F-12.29748950116098
sg713
F-12.29748950116098
sg714
F-9.4901345791033762
sg715
F-9.2974895011609799
sg716
F-12.29748950116098
sg717
F-12.29748950116098
sg718
F-11.29748950116098
sg719
F-12.29748950116098
sg720
F-11.29748950116098
sg721
F-11.29748950116098
sg722
F-11.29748950116098
sg723
F-12.29748950116098
sg724
F-10.712527000439824
sg725
F-11.29748950116098
sg726
F-12.29748950116098
sg727
F-11.29748950116098
sg728
F-12.29748950116098
sg729
F-12.29748950116098
sg730
F-11.29748950116098
sg731
F-12.29748950116098
sg732
F-11.29748950116098
sg733
F-10.29748950116098
sg734
F-11.29748950116098
sg735
F-12.29748950116098
sg736
F-11.29748950116098
sg737
F-11.29748950116098
sg738
F-12.29748950116098
sg1215
F-12.29748950116098
sg740
F-12.29748950116098
sg741
F-12.29748950116098
sg742
F-12.29748950116098
sg743
F-11.29748950116098
sg744
F-12.29748950116098
sg745
F-10.712527000439824
sg746
F-11.29748950116098
sg747
F-11.29748950116098
sg748
F-12.29748950116098
sg749
F-10.29748950116098
sg750
F-11.29748950116098
sS'G'
F-11.29748950116098
sg751
F-12.29748950116098
sg63
F-11.29748950116098
sg753
F-11.29748950116098
sg754
F-11.29748950116098
sg89
F-11.29748950116098
sg756
F-11.29748950116098
sg757
F-12.29748950116098
sg758
F-12.29748950116098
sg119
F-9.4901345791033762
sg760
F-10.29748950116098
sg761
F-11.29748950116098
sg762
F-10.712527000439824
sg763
F-11.29748950116098
sg146
F-11.29748950116098
sg765
F-12.29748950116098
sg766
F-10.712527000439824
sg767
F-11.29748950116098
sg468
F-11.29748950116098
sg770
F-12.29748950116098
sg771
F-11.29748950116098
sg772
F-11.29748950116098
sg773
F-12.29748950116098
sg774
F-11.29748950116098
sg775
F-11.29748950116098
sg776
F-12.29748950116098
sg777
F-12.29748950116098
sS'2'
F-11.29748950116098
sg91
F-12.29748950116098
sg230
F-11.29748950116098
sg779
F-11.29748950116098
sg780
F-11.29748950116098
sg781
F-7.4395085060334081
sg782
F-12.29748950116098
sg783
F-12.29748950116098
sg784
F-12.29748950116098
sg786
F-12.29748950116098
sg787
F-12.29748950116098
sg788
F-10.29748950116098
sg789
F-12.29748950116098
sg790
F-11.29748950116098
sg300
F-11.29748950116098
sg792
F-12.29748950116098
sg793
F-10.29748950116098
sg794
F-12.29748950116098
sg795
F-12.29748950116098
sg796
F-11.29748950116098
sg1872
F-12.29748950116098
sg797
F-10.29748950116098
sg798
F-12.29748950116098
sg799
F-6.2974895011609791
sg800
F-11.29748950116098
sg801
F-12.29748950116098
sg802
F-12.29748950116098
sg803
F-12.29748950116098
sg804
F-12.29748950116098
sg805
F-9.2974895011609799
sg806
F-11.29748950116098
sg807
F-11.29748950116098
sg808
F-12.29748950116098
sg810
F-12.29748950116098
sg811
F-12.29748950116098
sg812
F-11.29748950116098
sg813
F-12.29748950116098
sg814
F-12.29748950116098
sg816
F-12.29748950116098
sg817
F-11.29748950116098
sg818
F-10.712527000439824
sg819
F-11.29748950116098
sg820
F-12.29748950116098
sg821
F-11.29748950116098
sg822
F-11.29748950116098
sg823
F-11.29748950116098
sg824
F-12.29748950116098
sg825
F-11.29748950116098
sg826
F-11.29748950116098
sg827
F-11.29748950116098
sg828
F-11.29748950116098
sg506
F-11.29748950116098
sg830
F-11.29748950116098
sg831
F-11.29748950116098
sg833
F-11.29748950116098
sg834
F-11.29748950116098
sg835
F-10.712527000439824
sg836
F-11.29748950116098
sg838
F-12.29748950116098
sg839
F-11.29748950116098
sg840
F-11.29748950116098
sg841
F-12.29748950116098
sg842
F-10.712527000439824
sg843
F-8.9755614062736164
sg844
F-11.29748950116098
sg845
F-12.29748950116098
sg846
F-8.9755614062736164
sg847
F-11.29748950116098
sg848
F-12.29748950116098
sg849
F-11.29748950116098
sg850
F-11.29748950116098
sg1946
F-10.712527000439824
sg851
F-12.29748950116098
sg852
F-12.29748950116098
sg853
F-10.712527000439824
sg854
F-11.29748950116098
sg855
F-12.29748950116098
sg856
F-11.29748950116098
sg857
F-11.29748950116098
sg1881
F-11.29748950116098
sg859
F-11.29748950116098
sg504
F-11.29748950116098
sg861
F-12.29748950116098
sg862
F-12.29748950116098
sg863
F-11.29748950116098
sg892
F-11.29748950116098
sg865
F-12.29748950116098
sg866
F-11.29748950116098
sg867
F-12.29748950116098
sg868
F-12.29748950116098
sg869
F-11.29748950116098
sg870
F-12.29748950116098
sg871
F-11.29748950116098
sg872
F-12.29748950116098
sg873
F-11.29748950116098
sg874
F-11.29748950116098
sS'3'
F-11.29748950116098
sg875
F-10.712527000439824
sg876
F-12.29748950116098
sg877
F-10.712527000439824
sg878
F-11.29748950116098
sg879
F-10.712527000439824
sg880
F-11.29748950116098
sg881
F-12.29748950116098
sg882
F-11.29748950116098
sg883
F-12.29748950116098
sg884
F-11.29748950116098
sg111
F-11.29748950116098
sg886
F-11.29748950116098
sg887
F-11.29748950116098
sg888
F-11.29748950116098
sg890
F-11.29748950116098
sg891
F-10.29748950116098
sg893
F-11.29748950116098
sg894
F-11.29748950116098
sg895
F-11.29748950116098
sg896
F-11.29748950116098
sg897
F-11.29748950116098
sg885
F-12.29748950116098
sg899
F-11.29748950116098
sg900
F-12.29748950116098
sg1013
F-12.29748950116098
sg902
F-12.29748950116098
sg903
F-10.712527000439824
sg1585
F-12.29748950116098
sg905
F-11.29748950116098
sg906
F-12.29748950116098
sg207
F-11.29748950116098
sg908
F-11.29748950116098
sg909
F-12.29748950116098
sg910
F-11.29748950116098
sg911
F-12.29748950116098
sg912
F-10.712527000439824
sg913
F-11.29748950116098
sg1125
F-10.29748950116098
sg764
F-11.29748950116098
sg916
F-11.29748950116098
sg917
F-11.29748950116098
sg918
F-12.29748950116098
sg1144
F-12.29748950116098
sg1889
F-12.29748950116098
sg921
F-11.29748950116098
sg1591
F-12.29748950116098
sg922
F-12.29748950116098
sg923
F-12.29748950116098
sg924
F-12.29748950116098
sg925
F-11.29748950116098
sg926
F-11.29748950116098
sg1250
F-11.29748950116098
sg928
F-11.29748950116098
sg929
F-12.29748950116098
sg930
F-11.29748950116098
sg931
F-11.29748950116098
sg932
F-10.712527000439824
sg163
F-11.29748950116098
sg934
F-12.29748950116098
sg935
F-11.29748950116098
sg936
F-10.712527000439824
sg937
F-11.29748950116098
sg938
F-11.29748950116098
sg939
F-11.29748950116098
sg940
F-11.29748950116098
sg941
F-11.29748950116098
sg942
F-11.29748950116098
sg1214
F-12.29748950116098
sg943
F-10.712527000439824
sg944
F-12.29748950116098
sS'I'
F-6.1682064842160127
sg945
F-11.29748950116098
sg946
F-11.29748950116098
sg947
F-12.29748950116098
sg948
F-11.29748950116098
sg949
F-12.29748950116098
sg1592
F-11.29748950116098
sg951
F-11.29748950116098
sg952
F-11.29748950116098
sg953
F-10.712527000439824
sg954
F-11.29748950116098
sg955
F-11.29748950116098
sg1784
F-11.29748950116098
sg956
F-9.2974895011609799
sg957
F-12.29748950116098
sg958
F-12.29748950116098
sg959
F-12.29748950116098
sg960
F-12.29748950116098
sg1381
F-11.29748950116098
sg962
F-9.7125270004398239
sg963
F-12.29748950116098
sg964
F-10.712527000439824
sg965
F-12.29748950116098
sg966
F-12.29748950116098
sg967
F-11.29748950116098
sg968
F-12.29748950116098
sg969
F-10.712527000439824
sg970
F-12.29748950116098
sg971
F-11.29748950116098
sS'4'
F-11.29748950116098
sg972
F-11.29748950116098
sg973
F-11.29748950116098
sg974
F-12.29748950116098
sg1221
F-12.29748950116098
sg976
F-12.29748950116098
sg977
F-11.29748950116098
sg523
F-11.29748950116098
sg979
F-11.29748950116098
sg1897
F-11.29748950116098
sg981
F-11.29748950116098
sg1898
F-12.29748950116098
sg983
F-12.29748950116098
sg984
F-11.29748950116098
sg985
F-12.29748950116098
sS't'
F-12.29748950116098
sg1262
F-9.9755614062736182
sg987
F-12.29748950116098
sg988
F-12.29748950116098
sg989
F-11.29748950116098
sg990
F-12.29748950116098
sg991
F-11.29748950116098
sg1716
F-11.29748950116098
sg992
F-10.712527000439824
sg993
F-11.29748950116098
sg994
F-12.29748950116098
sg995
F-12.29748950116098
sg996
F-10.712527000439824
sg999
F-11.29748950116098
sg1000
F-12.29748950116098
sg1001
F-12.29748950116098
sg1002
F-11.29748950116098
sg1003
F-12.29748950116098
sg1004
F-12.29748950116098
sg1005
F-11.29748950116098
sg1006
F-12.29748950116098
sg1007
F-12.29748950116098
sg1008
F-10.29748950116098
sg1009
F-7.1682064842160127
sg1010
F-11.29748950116098
sg1011
F-11.29748950116098
sg1012
F-6.9755614062736173
sg901
F-12.29748950116098
sg1014
F-12.29748950116098
sg183
F-12.29748950116098
sg1016
F-10.29748950116098
sg864
F-12.29748950116098
sg1017
F-12.29748950116098
sg1018
F-11.29748950116098
sg1019
F-11.29748950116098
sg1906
F-11.29748950116098
sg1269
F-11.29748950116098
sg1021
F-11.29748950116098
sg1022
F-11.29748950116098
sg1023
F-12.29748950116098
sg1024
F-8.7125270004398221
sg1025
F-10.712527000439824
sg1026
F-12.29748950116098
sg1027
F-10.712527000439824
sg1028
F-12.29748950116098
sg1029
F-9.4901345791033762
sg1030
F-11.29748950116098
sg1031
F-12.29748950116098
sg1032
F-11.29748950116098
sg1033
F-11.29748950116098
sg1034
F-11.29748950116098
sg1035
F-10.712527000439824
sg1036
F-11.29748950116098
sg1037
F-11.29748950116098
sg1038
F-12.29748950116098
sg1039
F-11.29748950116098
sg1040
F-11.29748950116098
sg1041
F-12.29748950116098
sg1042
F-12.29748950116098
sg1043
F-10.712527000439824
sg1044
F-7.7125270004398239
sg1045
F-12.29748950116098
sg1046
F-12.29748950116098
sg1047
F-12.29748950116098
sg1048
F-12.29748950116098
sg1049
F-11.29748950116098
sg755
F-9.9755614062736182
sg1050
F-11.29748950116098
sg1051
F-12.29748950116098
sg1052
F-12.29748950116098
sg1053
F-11.29748950116098
sg1054
F-9.9755614062736182
sg1055
F-12.29748950116098
sg1056
F-11.29748950116098
sg1057
F-11.29748950116098
sg1058
F-8.9755614062736164
sg1059
F-11.29748950116098
sg1060
F-8.2974895011609799
sg1061
F-12.29748950116098
sg1062
F-11.29748950116098
sg1063
F-11.29748950116098
sg1065
F-12.29748950116098
sg1066
F-11.29748950116098
sg1067
F-12.29748950116098
sg1068
F-12.29748950116098
sS'5'
F-12.29748950116098
sg1069
F-12.29748950116098
sg1070
F-12.29748950116098
sg1071
F-7.21002665991064
sg1072
F-12.29748950116098
sg1609
F-11.29748950116098
sg1073
F-11.29748950116098
sg1074
F-12.29748950116098
sg1075
F-12.29748950116098
sg1076
F-11.29748950116098
sg1077
F-11.29748950116098
sg1078
F-10.712527000439824
sg1079
F-11.29748950116098
sg1080
F-12.29748950116098
sg1081
F-12.29748950116098
sg1082
F-11.29748950116098
sS'u'
F-10.712527000439824
sg1083
F-12.29748950116098
sg1084
F-12.29748950116098
sg1085
F-11.29748950116098
sg1086
F-8.4901345791033762
sg1087
F-10.29748950116098
sg1088
F-12.29748950116098
sg1089
F-11.29748950116098
sg1090
F-12.29748950116098
sg35
F-11.29748950116098
sg1092
F-11.29748950116098
sg1093
F-12.29748950116098
sg1094
F-12.29748950116098
sg1095
F-11.29748950116098
sg1096
F-11.29748950116098
sg1098
F-11.29748950116098
sg1099
F-12.29748950116098
sg1100
F-11.29748950116098
sg1101
F-5.8380578825236817
sg1102
F-11.29748950116098
sg907
F-12.29748950116098
sg1103
F-11.29748950116098
sg1104
F-11.29748950116098
sg1914
F-12.29748950116098
sg1106
F-12.29748950116098
sg121
F-10.712527000439824
sg344
F-10.712527000439824
sg1110
F-11.29748950116098
sg1111
F-12.29748950116098
sg1112
F-11.29748950116098
sg1113
F-10.712527000439824
sg141
F-11.29748950116098
sg145
F-11.29748950116098
sg1116
F-11.29748950116098
sg768
F-11.29748950116098
sg1118
F-12.29748950116098
sg1119
F-11.29748950116098
sg1120
F-11.29748950116098
sg169
F-11.29748950116098
sg1122
F-9.9755614062736182
sg1123
F-11.29748950116098
sg184
F-11.29748950116098
sg915
F-12.29748950116098
sg1126
F-11.29748950116098
sg1127
F-11.29748950116098
sg1128
F-11.29748950116098
sg1129
F-11.29748950116098
sg1130
F-11.29748950116098
sg1131
F-12.29748950116098
sg1132
F-11.29748950116098
sg245
F-11.29748950116098
sg1134
F-11.29748950116098
sg1135
F-8.7125270004398221
sg1136
F-10.712527000439824
sg1137
F-12.29748950116098
sg287
F-11.29748950116098
sg1139
F-11.29748950116098
sg1140
F-11.29748950116098
sg1141
F-12.29748950116098
sg1142
F-12.29748950116098
sg1143
F-11.29748950116098
sg919
F-11.29748950116098
sg1145
F-11.29748950116098
sg1146
F-10.712527000439824
sg1147
F-11.29748950116098
sg1148
F-11.29748950116098
sg1149
F-12.29748950116098
sg1150
F-12.29748950116098
sg1151
F-11.29748950116098
sg1152
F-10.712527000439824
sg1153
F-12.29748950116098
sg898
F-11.29748950116098
sg1154
F-11.29748950116098
sg1964
F-10.712527000439824
sg1155
F-11.29748950116098
sg1156
F-12.29748950116098
sg1157
F-12.29748950116098
sg1158
F-10.29748950116098
sg1159
F-12.29748950116098
sg1949
F-11.29748950116098
sg1160
F-11.29748950116098
sg1161
F-11.29748950116098
sg1163
F-12.29748950116098
sg1164
F-11.29748950116098
sg1165
F-11.29748950116098
sg1064
F-11.29748950116098
sg1167
F-12.29748950116098
sg1168
F-12.29748950116098
sg1296
F-12.29748950116098
sS'6'
F-11.29748950116098
sg1973
F-12.29748950116098
sg1170
F-9.9755614062736182
sg1171
F-11.29748950116098
sg1172
F-12.29748950116098
sg1173
F-11.29748950116098
sg1174
F-11.29748950116098
sg533
F-11.29748950116098
sg541
F-10.29748950116098
sg1177
F-11.29748950116098
sg1178
F-12.29748950116098
sg1179
F-10.712527000439824
sg1180
F-12.29748950116098
sg1181
F-12.29748950116098
sg1182
F-11.29748950116098
sg1596
F-11.29748950116098
sg1184
F-12.29748950116098
sg1185
F-11.29748950116098
sg1186
F-12.29748950116098
sg1187
F-12.29748950116098
sg927
F-12.29748950116098
sg1188
F-10.29748950116098
sg1189
F-12.29748950116098
sg1190
F-12.29748950116098
sg1191
F-11.29748950116098
sg1192
F-12.29748950116098
sg1193
F-11.29748950116098
sg1194
F-12.29748950116098
sg1195
F-11.29748950116098
sg1197
F-11.29748950116098
sg1198
F-12.29748950116098
sg655
F-11.29748950116098
sS'!'
F-9.7125270004398239
sg1202
F-11.29748950116098
sg1203
F-10.712527000439824
sg1204
F-11.29748950116098
sg1205
F-12.29748950116098
sg1206
F-12.29748950116098
sg1207
F-11.29748950116098
sg1208
F-12.29748950116098
sg1209
F-11.29748950116098
sg1210
F-12.29748950116098
sg1926
F-11.29748950116098
sg1212
F-11.29748950116098
sg1213
F-11.29748950116098
sg997
F-11.29748950116098
sg739
F-12.29748950116098
sg1216
F-12.29748950116098
sg1217
F-12.29748950116098
sg1218
F-11.29748950116098
sg1219
F-11.29748950116098
sS'a'
F-6.9399374965428962
sg1220
F-11.29748950116098
sg1222
F-11.29748950116098
sg1223
F-11.29748950116098
sg1224
F-12.29748950116098
sg1225
F-11.29748950116098
sg1226
F-12.29748950116098
sg1227
F-11.29748950116098
sg1228
F-11.29748950116098
sg1229
F-11.29748950116098
sg1230
F-12.29748950116098
sg1231
F-11.29748950116098
sg1232
F-11.29748950116098
sg1233
F-10.712527000439824
sg1234
F-11.29748950116098
sg1235
F-11.29748950116098
sg1236
F-10.29748950116098
sg1237
F-11.29748950116098
sg1238
F-10.29748950116098
sg1239
F-12.29748950116098
sg1240
F-10.712527000439824
sg889
F-11.29748950116098
sg1858
F-11.29748950116098
sg1242
F-11.29748950116098
sg1243
F-11.29748950116098
sg1244
F-11.29748950116098
sg1245
F-11.29748950116098
sg1246
F-12.29748950116098
sg914
F-11.29748950116098
sg1248
F-11.29748950116098
sg1249
F-12.29748950116098
sg177
F-9.2974895011609799
sg1251
F-12.29748950116098
sg1252
F-10.712527000439824
sg1253
F-10.712527000439824
sg1254
F-12.29748950116098
sg1933
F-12.29748950116098
sg1256
F-11.29748950116098
sg1257
F-11.29748950116098
sg1258
F-12.29748950116098
sg1259
F-12.29748950116098
sg1260
F-11.29748950116098
sg1261
F-12.29748950116098
sg986
F-11.29748950116098
sg1263
F-12.29748950116098
sg1264
F-12.29748950116098
sg1265
F-11.29748950116098
sg1266
F-12.29748950116098
sg1267
F-10.712527000439824
sg1268
F-12.29748950116098
sg1020
F-12.29748950116098
sg1270
F-12.29748950116098
sg1271
F-11.29748950116098
sg1272
F-12.29748950116098
sg1273
F-11.29748950116098
sg1274
F-12.29748950116098
sg1275
F-12.29748950116098
sg1276
F-9.9755614062736182
sg1277
F-11.29748950116098
sg1278
F-11.29748950116098
sg1279
F-12.29748950116098
sg1280
F-12.29748950116098
sg1281
F-11.29748950116098
sg1282
F-11.29748950116098
sg1283
F-12.29748950116098
sS'7'
F-11.29748950116098
sg1284
F-12.29748950116098
sg1285
F-10.712527000439824
sg1286
F-12.29748950116098
sg1320
F-12.29748950116098
sg1288
F-11.29748950116098
sg1289
F-12.29748950116098
sg1290
F-12.29748950116098
sg220
F-11.29748950116098
sg1292
F-11.29748950116098
sg1293
F-12.29748950116098
sg1294
F-10.712527000439824
sg1295
F-11.29748950116098
sg1169
F-11.29748950116098
sg1297
F-12.29748950116098
sg1298
F-12.29748950116098
sg1299
F-12.29748950116098
sg605
F-11.29748950116098
sg1301
F-11.29748950116098
sg1302
F-11.29748950116098
sg1303
F-11.29748950116098
sg1304
F-10.712527000439824
sg1305
F-11.29748950116098
sg1306
F-11.29748950116098
sg1307
F-12.29748950116098
sg1308
F-11.29748950116098
sg1309
F-12.29748950116098
sg1310
F-10.29748950116098
sg1311
F-11.29748950116098
sg1312
F-11.29748950116098
sg1943
F-12.29748950116098
sg1314
F-12.29748950116098
sg1315
F-12.29748950116098
sg1317
F-11.29748950116098
sg1318
F-11.29748950116098
sg1319
F-11.29748950116098
sg1287
F-11.29748950116098
sS'"'
F-11.29748950116098
sg1321
F-11.29748950116098
sg1322
F-12.29748950116098
sg1323
F-11.29748950116098
sg1324
F-12.29748950116098
sg1325
F-11.29748950116098
sg1326
F-11.29748950116098
sg1327
F-11.29748950116098
sg1328
F-11.29748950116098
sg1329
F-11.29748950116098
sg1330
F-12.29748950116098
sg1331
F-11.29748950116098
sg1332
F-11.29748950116098
sg1333
F-12.29748950116098
sg1334
F-12.29748950116098
sg1335
F-11.29748950116098
sg1336
F-12.29748950116098
sg1337
F-12.29748950116098
sg1338
F-11.29748950116098
sg1339
F-12.29748950116098
sg1340
F-11.29748950116098
sg1341
F-12.29748950116098
sg1342
F-11.29748950116098
sg1343
F-12.29748950116098
sg1344
F-11.29748950116098
sg1345
F-11.29748950116098
sg1346
F-11.29748950116098
sg1347
F-11.29748950116098
sg1348
F-10.29748950116098
sg1638
F-12.29748950116098
sg1350
F-11.29748950116098
sg1351
F-12.29748950116098
sg1352
F-11.29748950116098
sg1353
F-11.29748950116098
sg1354
F-12.29748950116098
sg1355
F-12.29748950116098
sg1356
F-11.29748950116098
sg1357
F-12.29748950116098
sg1358
F-11.29748950116098
sg1359
F-12.29748950116098
sg1360
F-11.29748950116098
sg1361
F-11.29748950116098
sg1362
F-12.29748950116098
sg172
F-11.29748950116098
sg1364
F-12.29748950116098
sg1365
F-11.29748950116098
sg1366
F-10.712527000439824
sg1367
F-12.29748950116098
sg1368
F-11.29748950116098
sg1369
F-7.7739275451039669
sg1370
F-12.29748950116098
sg1371
F-12.29748950116098
sg1372
F-12.29748950116098
sg1373
F-12.29748950116098
sg1374
F-11.29748950116098
sg234
F-11.29748950116098
sg1376
F-11.29748950116098
sg1377
F-11.29748950116098
sg1644
F-11.29748950116098
sg1379
F-11.29748950116098
sg1380
F-12.29748950116098
sg1383
F-12.29748950116098
sg1384
F-11.29748950116098
sg1385
F-11.29748950116098
sg1386
F-11.29748950116098
sg1387
F-9.7125270004398239
sg1388
F-11.29748950116098
sS'b'
F-11.29748950116098
sg1389
F-11.29748950116098
sg1390
F-11.29748950116098
sg589
F-11.29748950116098
sg1392
F-12.29748950116098
sg1393
F-11.29748950116098
sg1394
F-12.29748950116098
sg1395
F-11.29748950116098
sg1396
F-10.712527000439824
sg1397
F-10.712527000439824
sg1398
F-11.29748950116098
sg1399
F-12.29748950116098
sg1400
F-10.29748950116098
sg1401
F-11.29748950116098
sg1402
F-9.7125270004398239
sg1403
F-12.29748950116098
sg1404
F-8.8380578825236817
sg1405
F-11.29748950116098
sg1406
F-11.29748950116098
sg1407
F-11.29748950116098
sg1408
F-9.9755614062736182
sg1409
F-11.29748950116098
sg1410
F-10.712527000439824
sg1411
F-12.29748950116098
sg1412
F-12.29748950116098
sg1413
F-12.29748950116098
sg1414
F-11.29748950116098
sg1415
F-11.29748950116098
sg1416
F-12.29748950116098
sg1417
F-12.29748950116098
sg1418
F-11.29748950116098
sg1419
F-12.29748950116098
sg1420
F-11.29748950116098
sg1421
F-10.712527000439824
sg1422
F-11.29748950116098
sg1423
F-11.29748950116098
sg1424
F-10.712527000439824
sg1426
F-11.29748950116098
sg1427
F-12.29748950116098
sg1428
F-12.29748950116098
sg785
F-11.29748950116098
sg1430
F-11.29748950116098
sg1431
F-11.29748950116098
sg1967
F-11.29748950116098
sg1432
F-11.29748950116098
sg1433
F-12.29748950116098
sg1434
F-11.29748950116098
sg1435
F-11.29748950116098
sg1436
F-11.29748950116098
sg1437
F-12.29748950116098
sg1438
F-12.29748950116098
sg1439
F-11.29748950116098
sg1440
F-11.29748950116098
sg1441
F-12.29748950116098
sg1442
F-11.29748950116098
sg1443
F-11.29748950116098
sg1444
F-12.29748950116098
sg1445
F-12.29748950116098
sg1446
F-11.29748950116098
sg1447
F-11.29748950116098
sg1448
F-11.29748950116098
sg29
F-11.29748950116098
sg1450
F-11.29748950116098
sg1451
F-11.29748950116098
sg1452
F-11.29748950116098
sg1453
F-10.29748950116098
sg306
F-11.29748950116098
sg1455
F-10.712527000439824
sg1456
F-11.29748950116098
sg1457
F-11.29748950116098
sg1458
F-12.29748950116098
sg1459
F-11.29748950116098
sg1460
F-12.29748950116098
sg1461
F-12.29748950116098
sg1462
F-12.29748950116098
sg113
F-11.29748950116098
sg1464
F-11.29748950116098
sg1465
F-12.29748950116098
sg975
F-12.29748950116098
sg1467
F-12.29748950116098
sg1468
F-11.29748950116098
sg1469
F-12.29748950116098
sg1470
F-10.712527000439824
sg1471
F-12.29748950116098
sg608
F-12.29748950116098
sg1473
F-11.29748950116098
sg208
F-11.29748950116098
sg1475
F-12.29748950116098
sg1476
F-10.712527000439824
sg1477
F-11.29748950116098
sg1478
F-11.29748950116098
sg1479
F-12.29748950116098
sg1480
F-12.29748950116098
sg1481
F-12.29748950116098
sg1300
F-11.29748950116098
sg1482
F-11.29748950116098
sg1483
F-11.29748950116098
sg1484
F-12.29748950116098
sg252
F-11.29748950116098
sg256
F-11.29748950116098
sg1487
F-11.29748950116098
sg1670
F-10.712527000439824
sg1489
F-11.29748950116098
sg1490
F-11.29748950116098
sg1977
F-10.29748950116098
sg2081
F-11.29748950116098
sg1491
F-12.29748950116098
sg1492
F-11.29748950116098
sg1493
F-11.29748950116098
sg1494
F-11.29748950116098
sg1495
F-12.29748950116098
sg1496
F-12.29748950116098
sg1497
F-11.29748950116098
sg1498
F-11.29748950116098
sg1499
F-12.29748950116098
sg1500
F-11.29748950116098
sg1501
F-11.29748950116098
sg377
F-12.29748950116098
sg385
F-11.29748950116098
sg1504
F-12.29748950116098
sg1505
F-10.712527000439824
sg1506
F-11.29748950116098
sg395
F-11.29748950116098
sg1508
F-11.29748950116098
sg1509
F-9.9755614062736182
sg1510
F-11.29748950116098
sg1511
F-12.29748950116098
sg1247
F-11.29748950116098
sg1512
F-11.29748950116098
sg1514
F-12.29748950116098
sg1515
F-11.29748950116098
sg1516
F-12.29748950116098
sg1517
F-9.9755614062736182
sg1518
F-9.9755614062736182
sg1363
F-11.29748950116098
sg1520
F-11.29748950116098
sg1521
F-12.29748950116098
sg1522
F-11.29748950116098
sg1523
F-11.29748950116098
sg1524
F-11.29748950116098
sg1525
F-10.712527000439824
sg1526
F-12.29748950116098
sg1527
F-10.712527000439824
sg1528
F-11.29748950116098
sg1529
F-11.29748950116098
sg1530
F-12.29748950116098
sg1531
F-11.29748950116098
sg1532
F-11.29748950116098
sg1533
F-7.3905989055524621
sg1534
F-12.29748950116098
sg1535
F-11.29748950116098
sg1536
F-12.29748950116098
sg1679
F-10.712527000439824
sS'O'
F-11.29748950116098
sg1538
F-11.29748950116098
sg1539
F-11.29748950116098
sg1680
F-9.4901345791033762
sg1541
F-11.29748950116098
sg187
F-10.712527000439824
sg1543
F-11.29748950116098
sg1544
F-12.29748950116098
sg1545
F-11.29748950116098
sg1546
F-10.712527000439824
sg1547
F-11.29748950116098
sg1548
F-11.29748950116098
sg1549
F-12.29748950116098
sg1550
F-9.9755614062736182
sg485
F-12.29748950116098
sg1551
F-11.29748950116098
sg1553
F-9.9755614062736182
sg1554
F-11.29748950116098
sg1555
F-11.29748950116098
sg1990
F-11.29748950116098
sg1557
F-12.29748950116098
sg1558
F-11.29748950116098
sg1559
F-12.29748950116098
sg1560
F-12.29748950116098
sg1561
F-10.712527000439824
sg1684
F-12.29748950116098
sg1563
F-11.29748950116098
sg1564
F-11.29748950116098
sg1565
F-11.29748950116098
sg769
F-12.29748950116098
sg1567
F-11.29748950116098
sg1568
F-11.29748950116098
sS':'
F-11.29748950116098
sg1569
F-12.29748950116098
sg1992
F-11.29748950116098
sg1571
F-11.29748950116098
sg1573
F-10.712527000439824
sg1574
F-11.29748950116098
sg1575
F-9.2974895011609799
sg1576
F-11.29748950116098
sg1577
F-11.29748950116098
sg1578
F-11.29748950116098
sg1391
F-11.29748950116098
sg1580
F-8.5970497830198873
sg1581
F-11.29748950116098
sg1582
F-11.29748950116098
sg1583
F-11.29748950116098
sg1584
F-12.29748950116098
sg904
F-12.29748950116098
sg1586
F-12.29748950116098
sg1587
F-12.29748950116098
sg1588
F-12.29748950116098
sg1589
F-10.712527000439824
sg1590
F-11.29748950116098
sg367
F-11.29748950116098
sg950
F-11.29748950116098
sg1593
F-11.29748950116098
sg1594
F-12.29748950116098
sg1595
F-11.29748950116098
sg1597
F-12.29748950116098
sg1598
F-10.29748950116098
sg1599
F-12.29748950116098
sg1600
F-12.29748950116098
sg2001
F-11.29748950116098
sg1097
F-12.29748950116098
sg1603
F-11.29748950116098
sg1604
F-11.29748950116098
sg1605
F-11.29748950116098
sg1606
F-11.29748950116098
sg1607
F-11.29748950116098
sg1608
F-12.29748950116098
sg1375
F-11.29748950116098
sg1610
F-12.29748950116098
sg1611
F-11.29748950116098
sg1612
F-10.712527000439824
sg1613
F-11.29748950116098
sg1614
F-11.29748950116098
sg1615
F-12.29748950116098
sg1616
F-12.29748950116098
sg1617
F-11.29748950116098
sg1117
F-8.4901345791033762
sg452
F-12.29748950116098
sg1619
F-11.29748950116098
sg1620
F-12.29748950116098
sg1621
F-11.29748950116098
sg1622
F-12.29748950116098
sg1183
F-12.29748950116098
sg667
F-11.29748950116098
sg1624
F-11.29748950116098
sg1625
F-11.29748950116098
sg1626
F-11.29748950116098
sg1627
F-12.29748950116098
sg1628
F-11.29748950116098
sg1629
F-12.29748950116098
sg1630
F-11.29748950116098
sg1631
F-12.29748950116098
sg1632
F-11.29748950116098
sg1633
F-11.29748950116098
sg1634
F-11.29748950116098
sg1635
F-12.29748950116098
sg1636
F-11.29748950116098
sg1637
F-12.29748950116098
sg1618
F-9.7125270004398239
sg1349
F-11.29748950116098
sg1639
F-12.29748950116098
sg1640
F-12.29748950116098
sg1641
F-11.29748950116098
sg1642
F-12.29748950116098
sg1643
F-11.29748950116098
sg1378
F-11.29748950116098
sg1645
F-9.9755614062736182
sg1382
F-11.29748950116098
sg1647
F-12.29748950116098
sg1648
F-11.29748950116098
sg1649
F-11.29748950116098
sg1650
F-10.712527000439824
sg1651
F-12.29748950116098
sg1652
F-11.29748950116098
sg1653
F-12.29748950116098
sg1654
F-11.29748950116098
sg1655
F-11.29748950116098
sg1656
F-12.29748950116098
sg1657
F-12.29748950116098
sg1658
F-11.29748950116098
sg1659
F-11.29748950116098
sg1660
F-10.712527000439824
sg1661
F-11.29748950116098
sg1662
F-12.29748950116098
sg1663
F-12.29748950116098
sg1664
F-12.29748950116098
sg1665
F-12.29748950116098
sg1666
F-12.29748950116098
sg1667
F-12.29748950116098
sg1668
F-11.29748950116098
sg1669
F-11.29748950116098
sg1488
F-11.29748950116098
sg1671
F-9.9755614062736182
sg1672
F-11.29748950116098
sg1673
F-11.29748950116098
sg1674
F-11.29748950116098
sg1675
F-11.29748950116098
sg1676
F-11.29748950116098
sg1677
F-12.29748950116098
sg1678
F-12.29748950116098
sg1537
F-12.29748950116098
sg1540
F-12.29748950116098
sg1681
F-11.29748950116098
sg1682
F-12.29748950116098
sg1683
F-10.712527000439824
sg1562
F-11.29748950116098
sg1685
F-12.29748950116098
sg1686
F-11.29748950116098
sg1687
F-11.29748950116098
sg2011
F-9.4901345791033762
sg1689
F-11.29748950116098
sg1690
F-11.29748950116098
sg1691
F-11.29748950116098
sg1692
F-12.29748950116098
sg1693
F-11.29748950116098
sg1694
F-11.29748950116098
sg1695
F-7.9051720783822192
sg1696
F-11.29748950116098
sg1697
F-9.4901345791033762
sg1698
F-11.29748950116098
sg1708
F-11.29748950116098
sg200
F-12.29748950116098
sg1700
F-12.29748950116098
sg1701
F-12.29748950116098
sg1702
F-12.29748950116098
sg1703
F-11.29748950116098
sg1704
F-11.29748950116098
sg1705
F-11.29748950116098
sg1706
F-11.29748950116098
sg1707
F-9.9755614062736182
sg1699
F-11.29748950116098
sg1709
F-9.9755614062736182
sg1710
F-11.29748950116098
sg2012
F-11.29748950116098
sg1711
F-11.29748950116098
sg1712
F-12.29748950116098
sg1713
F-11.29748950116098
sg1714
F-12.29748950116098
sg1715
F-9.7125270004398239
sg1513
F-11.29748950116098
sg326
F-11.29748950116098
sg1717
F-11.29748950116098
sg1718
F-11.29748950116098
sg1719
F-11.29748950116098
sg1720
F-11.29748950116098
sg1721
F-11.29748950116098
sg1722
F-11.29748950116098
sg1723
F-11.29748950116098
sg1724
F-10.29748950116098
sg2045
F-11.29748950116098
sg1725
F-11.29748950116098
sg1726
F-12.29748950116098
sg1727
F-10.712527000439824
sg1728
F-11.29748950116098
sg1729
F-12.29748950116098
sg1730
F-12.29748950116098
sg1731
F-10.712527000439824
sg1732
F-11.29748950116098
sg2033
F-12.29748950116098
sg1733
F-11.29748950116098
sg1734
F-11.29748950116098
sg1735
F-11.29748950116098
sg1736
F-10.712527000439824
sg1737
F-11.29748950116098
sg1738
F-11.29748950116098
sg1739
F-11.29748950116098
sg1740
F-11.29748950116098
sg1741
F-10.712527000439824
sg1742
F-11.29748950116098
sg1743
F-12.29748950116098
sg815
F-11.29748950116098
sg1745
F-12.29748950116098
sg1746
F-12.29748950116098
sg1747
F-11.29748950116098
sg1748
F-12.29748950116098
sg1749
F-11.29748950116098
sg1750
F-11.29748950116098
sS'|'
F-11.29748950116098
sg2022
F-11.29748950116098
sg1752
F-10.712527000439824
sg1753
F-10.712527000439824
sg1754
F-12.29748950116098
sg1755
F-10.29748950116098
sg1756
F-12.29748950116098
sg1757
F-8.4901345791033762
sg1758
F-11.29748950116098
sg1759
F-11.29748950116098
sg1760
F-12.29748950116098
sg1761
F-12.29748950116098
sg1762
F-10.29748950116098
sg1763
F-11.29748950116098
sg1764
F-12.29748950116098
sg1765
F-11.29748950116098
sg1766
F-11.29748950116098
sg1767
F-9.7125270004398239
sg1768
F-11.29748950116098
sg1769
F-12.29748950116098
sg1770
F-12.29748950116098
sg1771
F-12.29748950116098
sg108
F-10.29748950116098
sg116
F-12.29748950116098
sg1774
F-11.29748950116098
sg1775
F-11.29748950116098
sg1776
F-11.29748950116098
sg2029
F-11.29748950116098
sg1777
F-11.29748950116098
sg1778
F-11.29748950116098
sg1779
F-12.29748950116098
sg1780
F-11.29748950116098
sg1781
F-11.29748950116098
sg2031
F-11.29748950116098
sg197
F-11.29748950116098
sg1566
F-9.9755614062736182
sg1785
F-11.29748950116098
sg1786
F-11.29748950116098
sg1787
F-11.29748950116098
sg1788
F-12.29748950116098
sg1789
F-10.29748950116098
sg1790
F-12.29748950116098
sg1791
F-12.29748950116098
sg1792
F-12.29748950116098
sg263
F-11.29748950116098
sg1794
F-12.29748950116098
sg271
F-12.29748950116098
sg1796
F-11.29748950116098
sg1797
F-11.29748950116098
sg1798
F-11.29748950116098
sg298
F-11.29748950116098
sg2037
F-12.29748950116098
sg1801
F-12.29748950116098
sg1802
F-11.29748950116098
sg1803
F-11.29748950116098
sg1804
F-12.29748950116098
sg1805
F-11.29748950116098
sg1806
F-11.29748950116098
sg1807
F-11.29748950116098
sg1808
F-11.29748950116098
sg1809
F-11.29748950116098
sg1810
F-10.29748950116098
sg1811
F-11.29748950116098
sg1812
F-8.3905989055524604
sg1813
F-9.2974895011609799
sg759
F-12.29748950116098
sg1814
F-11.29748950116098
sg1815
F-11.29748950116098
sg1816
F-12.29748950116098
sg1817
F-12.29748950116098
sg1818
F-12.29748950116098
sg409
F-11.29748950116098
sg1820
F-11.29748950116098
sS'='
F-11.29748950116098
sg1821
F-11.29748950116098
sg1822
F-11.29748950116098
sg1823
F-11.29748950116098
sg1824
F-8.8380578825236817
sg832
F-11.29748950116098
sg490
F-11.29748950116098
sg1827
F-11.29748950116098
sg1828
F-11.29748950116098
sg1829
F-11.29748950116098
sg1830
F-10.712527000439824
sg1831
F-12.29748950116098
sg1832
F-10.712527000439824
sg1833
F-12.29748950116098
sg1834
F-11.29748950116098
sg1835
F-12.29748950116098
sg1836
F-11.29748950116098
sg1837
F-11.29748950116098
sg1838
F-12.29748950116098
sg1839
F-11.29748950116098
sg1840
F-10.29748950116098
sg1841
F-11.29748950116098
sg1842
F-11.29748950116098
sg1843
F-8.5970497830198873
sg1844
F-11.29748950116098
sg1845
F-12.29748950116098
sg1847
F-9.9755614062736182
sg1848
F-11.29748950116098
sg1849
F-11.29748950116098
sg1850
F-11.29748950116098
sg1851
F-10.712527000439824
sg1852
F-11.29748950116098
sg1853
F-10.29748950116098
sg1854
F-11.29748950116098
sg1855
F-10.712527000439824
sg1856
F-11.29748950116098
sg1857
F-11.29748950116098
sg1196
F-11.29748950116098
sg1859
F-11.29748950116098
sg1860
F-11.29748950116098
sg1861
F-10.712527000439824
sg1862
F-11.29748950116098
sg1863
F-11.29748950116098
sg707
F-12.29748950116098
sg1865
F-11.29748950116098
sg1866
F-11.29748950116098
sg1867
F-12.29748950116098
sg1868
F-11.29748950116098
sg1869
F-9.9755614062736182
sg1870
F-11.29748950116098
sg1871
F-10.712527000439824
sg1552
F-12.29748950116098
sg1873
F-12.29748950116098
sg1874
F-11.29748950116098
sg1875
F-12.29748950116098
sg1542
F-12.29748950116098
sg1876
F-9.7125270004398239
sg1877
F-11.29748950116098
sg1878
F-12.29748950116098
sg1879
F-12.29748950116098
sg1880
F-11.29748950116098
sg858
F-11.29748950116098
sg1882
F-12.29748950116098
sg1883
F-9.9755614062736182
sg1884
F-11.29748950116098
sg1885
F-11.29748950116098
sg1886
F-12.29748950116098
sg1887
F-11.29748950116098
sg1888
F-11.29748950116098
sg920
F-11.29748950116098
sg1890
F-10.712527000439824
sg331
F-11.29748950116098
sg1891
F-12.29748950116098
sg1892
F-11.29748950116098
sg1893
F-11.29748950116098
sg1894
F-12.29748950116098
sg1895
F-11.29748950116098
sg1896
F-10.712527000439824
sg980
F-11.29748950116098
sg982
F-12.29748950116098
sg1899
F-12.29748950116098
sg1900
F-11.29748950116098
sg1901
F-11.29748950116098
sg1902
F-11.29748950116098
sg1903
F-9.9755614062736182
sg1904
F-12.29748950116098
sg1905
F-9.2974895011609799
sg701
F-11.29748950116098
sg257
F-11.29748950116098
sg1908
F-12.29748950116098
sg1909
F-11.29748950116098
sg1910
F-12.29748950116098
sg1911
F-11.29748950116098
sg1912
F-12.29748950116098
sg1913
F-11.29748950116098
sg1105
F-11.29748950116098
sg1915
F-11.29748950116098
sg1916
F-12.29748950116098
sg1917
F-11.29748950116098
sg1918
F-8.9755614062736164
sg1919
F-11.29748950116098
sg1920
F-11.29748950116098
sg1921
F-12.29748950116098
sg998
F-12.29748950116098
sg1923
F-11.29748950116098
sg1924
F-12.29748950116098
sg1925
F-9.9755614062736182
sg1211
F-12.29748950116098
sg1927
F-11.29748950116098
sg1928
F-12.29748950116098
sg1929
F-11.29748950116098
sg1241
F-11.29748950116098
sg1931
F-11.29748950116098
sg1932
F-11.29748950116098
sg1255
F-11.29748950116098
sg1934
F-10.29748950116098
sg1935
F-12.29748950116098
sg1936
F-12.29748950116098
sg1937
F-12.29748950116098
sg1938
F-12.29748950116098
sg1939
F-11.29748950116098
sg1940
F-12.29748950116098
sg1941
F-11.29748950116098
sg1942
F-12.29748950116098
sg1313
F-12.29748950116098
sg1944
F-12.29748950116098
sg1945
F-10.712527000439824
sS'i'
F-8.4901345791033762
sg1200
F-11.29748950116098
sg1947
F-11.29748950116098
sg1948
F-12.29748950116098
sg837
F-12.29748950116098
sg1950
F-11.29748950116098
sg1951
F-12.29748950116098
sg1952
F-10.712527000439824
sg2076
F-11.29748950116098
sg1953
F-11.29748950116098
sg1954
F-11.29748950116098
sg1955
F-11.29748950116098
sg1956
F-11.29748950116098
sg1957
F-12.29748950116098
sg1958
F-11.29748950116098
sg1959
F-11.29748950116098
sg1960
F-12.29748950116098
sg1961
F-12.29748950116098
sg1962
F-11.29748950116098
sg1963
F-12.29748950116098
sg1425
F-11.29748950116098
sg1965
F-10.712527000439824
sg1966
F-12.29748950116098
sg1744
F-9.9755614062736182
sg2066
F-12.29748950116098
sg1969
F-12.29748950116098
sg1970
F-11.29748950116098
sg1971
F-11.29748950116098
sg1972
F-11.29748950116098
sg1454
F-12.29748950116098
sg456
F-12.29748950116098
sg1974
F-11.29748950116098
sg1975
F-12.29748950116098
sg1976
F-11.29748950116098
sg1429
F-12.29748950116098
sg1978
F-12.29748950116098
sg1979
F-12.29748950116098
sg1980
F-11.29748950116098
sg1981
F-9.2974895011609799
sg1982
F-12.29748950116098
sg432
F-11.29748950116098
sg1984
F-11.29748950116098
sg1985
F-11.29748950116098
sg1986
F-12.29748950116098
sg1987
F-12.29748950116098
sg1988
F-11.29748950116098
sg1989
F-12.29748950116098
sg1556
F-9.9755614062736182
sg1991
F-11.29748950116098
sg1570
F-12.29748950116098
sg1993
F-11.29748950116098
sg1994
F-11.29748950116098
sg1995
F-12.29748950116098
sg1996
F-11.29748950116098
sg1997
F-10.29748950116098
sg1998
F-12.29748950116098
sg1999
F-12.29748950116098
sg2000
F-10.712527000439824
sg1601
F-11.29748950116098
sg2002
F-11.29748950116098
sg2003
F-11.29748950116098
sg2004
F-11.29748950116098
sg2005
F-10.712527000439824
sg2006
F-11.29748950116098
sS'?'
F-10.712527000439824
sg2008
F-11.29748950116098
sg2009
F-11.29748950116098
sg2073
F-12.29748950116098
sg2010
F-12.29748950116098
sg1688
F-12.29748950116098
sg614
F-11.29748950116098
sg2013
F-11.29748950116098
sg2014
F-12.29748950116098
sg2015
F-10.712527000439824
sg2016
F-12.29748950116098
sg2017
F-11.29748950116098
sg2018
F-11.29748950116098
sg2019
F-11.29748950116098
sg2020
F-11.29748950116098
sg2021
F-12.29748950116098
sg1751
F-11.29748950116098
sg2075
F-12.29748950116098
sg2023
F-11.29748950116098
sg2024
F-11.29748950116098
sg2026
F-12.29748950116098
sg2027
F-12.29748950116098
sg2028
F-11.29748950116098
sg2007
F-11.29748950116098
sg2030
F-11.29748950116098
sg1782
F-11.29748950116098
sg2032
F-11.29748950116098
sg1846
F-10.29748950116098
sg2034
F-10.712527000439824
sg2035
F-12.29748950116098
sg2036
F-12.29748950116098
sg1800
F-11.29748950116098
sg1472
F-11.29748950116098
sg2038
F-11.29748950116098
sg2039
F-11.29748950116098
sg2040
F-12.29748950116098
sg2041
F-9.7125270004398239
sg2042
F-11.29748950116098
sg2043
F-12.29748950116098
sg2044
F-12.29748950116098
sg809
F-11.29748950116098
sg2046
F-11.29748950116098
sg2047
F-11.29748950116098
sg2048
F-10.712527000439824
sg2049
F-11.29748950116098
sg2050
F-12.29748950116098
sg2051
F-10.712527000439824
sg2052
F-12.29748950116098
sg2053
F-12.29748950116098
sg2054
F-11.29748950116098
sg2055
F-12.29748950116098
sg2057
F-11.29748950116098
sg2058
F-11.29748950116098
sg2059
F-10.712527000439824
sg2060
F-11.29748950116098
sg2061
F-12.29748950116098
sg2062
F-11.29748950116098
sg2063
F-10.712527000439824
sg2064
F-12.29748950116098
sg2065
F-11.29748950116098
sg1968
F-12.29748950116098
sg2067
F-12.29748950116098
sg2068
F-12.29748950116098
sg2069
F-12.29748950116098
sg2070
F-11.29748950116098
sg2071
F-12.29748950116098
sg2072
F-12.29748950116098
sg1572
F-11.29748950116098
sg2074
F-11.29748950116098
sS'U'
F-10.712527000439824
sg1316
F-11.29748950116098
sg2025
F-11.29748950116098
sg2077
F-11.29748950116098
sg2078
F-10.712527000439824
sg2079
F-11.29748950116098
sg2080
F-11.29748950116098
sg2056
F-11.29748950116098
sg2082
F-11.29748950116098
sg2083
F-12.29748950116098
sg2084
F-12.29748950116098
sg2085
F-12.29748950116098
ssS'num_docs'
p2093
I256
sS'freqs'
p2094
(dp2095
S'all'
p2096
I13
sS'forget'
p2097
I3
sg1446
I1
sg1089
I1
sg7
I1
sg35
I1
sS'sleep'
p2098
I3
sg10
I1
sg11
I1
sg1096
I1
sg1098
I1
sg1777
I1
sg1100
I1
sS'to'
p2099
I87
sg1102
I1
sg1103
I1
sg1104
I1
sg20
I1
sS'7'
I1
sg121
I2
sg1611
I1
sg21
I1
sg1110
I1
sg1112
I1
sS"I'd"
p2100
I2
sS'every'
p2101
I4
sg23
I1
sg145
I1
sg1116
I1
sg25
I1
sg768
I1
sg27
I1
sg28
I1
sg1119
I1
sg1120
I1
sg1449
I1
sg30
I1
sS'school'
p2102
I2
sg32
I1
sS"Don't"
p2103
I4
sg1123
I1
sg184
I1
sg33
I1
sg747
I1
sg1562
I1
sS'Go'
p2104
I3
sg1092
I1
sg1126
I1
sg195
I1
sg39
I1
sS'me!'
p2105
I1
sg41
I1
sg1451
I1
sS'me.'
p2106
I3
sg44
I1
sg45
I1
sg46
I1
sg47
I1
sg1095
I1
sS'second'
p2107
I2
sg245
I1
sS'me?'
p2108
I1
sg1134
I1
sS'even'
p2109
I2
sS'what'
p2110
I11
sg1766
I1
sg1136
I2
sg287
I1
sg54
I1
sg55
I1
sg56
I1
sS'new'
p2111
I4
sg59
I1
sS'ever'
p2112
I1
sg310
I1
sg62
I1
sg63
I1
sg1140
I1
sS'never'
p2113
I6
sg65
I1
sg222
I1
sg1143
I1
sg67
I1
sg1145
I1
sg68
I1
sg2039
I1
sS'strong'
p2114
I2
sg69
I1
sg1147
I1
sg70
I1
sg1148
I1
sg73
I1
sg74
I1
sg398
I1
sg76
I1
sg77
I1
sg78
I1
sg1154
I1
sg81
I1
sg1155
I1
sg1768
I1
sg1619
I1
sS'ask'
p2115
I3
sg83
I1
sg1630
I1
sg1160
I1
sg84
I1
sg1161
I1
sS'would'
p2116
I3
sg1164
I1
sg1165
I1
sS'movie.'
p2117
I1
sS'two'
p2118
I1
sg87
I1
sg477
I1
sg502
I1
sS'is'
p2119
I44
sg1170
I4
sg1171
I1
sg92
I1
sg93
I1
sg1173
I1
sg1174
I1
sg941
I1
sS'phone'
p2120
I1
sg533
I1
sg96
I1
sS'So'
p2121
I3
sg1177
I1
sg97
I1
sg1179
I2
sS'must'
p2122
I2
sg1859
I1
sS'none'
p2123
I1
sS'Now'
p2124
I1
sS'room'
p2125
I1
sg1185
I1
sS'work'
p2126
I1
sg103
I1
sg104
I1
sg106
I2
sg1602
I1
sg1188
I3
sS'my'
p2127
I38
sS'Your'
p2128
I1
sg1193
I1
sg110
I1
sg1195
I1
sS'ready'
p2129
I3
sg1197
I1
sS'want'
p2130
I12
sS'Lord'
p2131
I1
sg655
I1
sg117
I1
sg1202
I1
sg1203
I2
sg1204
I1
sg1109
I1
sg675
I1
sS'rather'
p2132
I1
sg1107
I2
sS'how'
p2133
I1
sg124
I1
sg1277
I1
sg126
I1
sg710
I1
sS'"'
I1
sg128
I1
sg1212
I1
sS'A'
I3
sS'okay'
p2134
I1
sg997
I1
sS'after'
p2135
I1
sg130
I1
sS'wrong'
p2136
I2
sg1218
I1
sg132
I1
sg1927
I1
sS'a'
I40
sS'#ifonlyicould'
p2137
I1
sg133
I4
sg134
I1
sg135
I1
sg1222
I1
sg1223
I1
sS'doing'
p2138
I2
sg137
I1
sg138
I1
sg140
I1
sS'worst'
p2139
I1
sg142
I1
sS'playing'
p2140
I1
sS"that's"
p2141
I1
sg143
I1
sg144
I1
sg1232
I1
sS"don't"
p2142
I2
sS'of.'
p2143
I1
sS'over'
p2144
I3
sg1234
I1
sg1358
I1
sg149
I1
sS'hell'
p2145
I1
sg150
I1
sg874
I1
sg152
I2
sg153
I1
sg1240
I2
sg154
I1
sg889
I1
sg1858
I1
sg1242
I1
sg157
I1
sg158
I4
sg159
I4
sg1245
I1
sg1468
I1
sg1932
I1
sS'bout'
p2146
I1
sg1248
I1
sS'then'
p2147
I5
sS'them'
p2148
I4
sS'someone'
p2149
I1
sg163
I1
sg1252
I2
sg1253
I2
sS'Gotta'
p2150
I2
sg2046
I1
sg165
I1
sg1256
I1
sS'they'
p2151
I8
sg169
I1
sS'yourself'
p2152
I1
sg1257
I1
sg171
I1
sg173
I1
sg174
I1
sS'always'
p2153
I4
sg175
I1
sg176
I1
sg942
I1
sg1265
I1
sg178
I1
sS'each'
p2154
I1
sg1267
I2
sg181
I1
sg1015
I1
sS'everyone'
p2155
I1
sg1033
I1
sS'hard'
p2156
I1
sg186
I1
sS'Waiting'
p2157
I1
sS'really'
p2158
I4
sg188
I1
sS'Omg'
p2159
I1
sg1410
I2
sg1079
I1
sg190
I5
sS'ha'
p2160
I1
sg1281
I1
sg1282
I1
sg192
I1
sg193
I1
sS'got'
p2161
I6
sg1127
I1
sS'ass'
p2162
I2
sg2060
I1
sg198
I1
sg199
I1
sg1288
I1
sS'basketball'
p2163
I1
sg1292
I1
sS'put'
p2164
I2
sg1785
I1
sg1162
I1
sg1295
I1
sg201
I1
sg1169
I1
sg1941
I1
sg202
I1
sg605
I1
sS'needing'
p2165
I1
sg204
I1
sS'days'
p2166
I1
sg206
I1
sg1303
I1
sg208
I1
sg1304
I2
sg1305
I1
sg1306
I1
sg1308
I1
sS'already'
p2167
I2
sS'dont'
p2168
I3
sg211
I1
sS'feel'
p2169
I1
sg1312
I1
sg214
I1
sS'Going'
p2170
I1
sg216
I1
sg1317
I1
sS'miss'
p2171
I1
sg217
I1
sg1632
I1
sg1287
I1
sg1291
I1
sg1128
I1
sg1321
I1
sg221
I3
sg1323
I1
sg223
I1
sS'too'
p2172
I1
sg225
I1
sg1129
I1
sg1327
I1
sg226
I1
sg1328
I1
sg1365
I1
sg228
I2
sg1331
I1
sg229
I1
sg1332
I1
sg1880
I1
sg230
I1
sg1130
I1
sS'b'
I1
sg2074
I1
sg1338
I1
sg234
I1
sg235
I1
sg236
I2
sS'matter'
p2173
I2
sg238
I1
sg1342
I1
sg239
I1
sg1420
I1
sg240
I1
sg242
I1
sg243
I1
sg244
I1
sS'God'
p2174
I1
sS'mind'
p2175
I1
sg1347
I1
sS'It'
p2176
I3
sS'talking'
p2177
I1
sg1452
I1
sg1326
I1
sg1350
I1
sg249
I1
sg251
I1
sg1353
I1
sg254
I1
sg255
I1
sS'drunk'
p2178
I1
sg256
I1
sg1356
I1
sg1994
I1
sS'-'
I1
sg1950
I1
sS'They'
p2179
I4
sg261
I1
sg1360
I1
sg1361
I1
sS'blue'
p2180
I1
sg172
I1
sg1793
I1
sg265
I1
sg266
I1
sg1329
I1
sg1366
I2
sg267
I1
sg268
I1
sS'The'
p2181
I22
sS'the'
p2182
I122
sg1776
I1
sg274
I1
sg276
I1
sg277
I1
sg1374
I1
sS'Its'
p2183
I1
sS'came'
p2184
I1
sg283
I2
sg1377
I1
sg1644
I1
sg284
I1
sg285
I1
sg286
I1
sg1379
I1
sS'find'
p2185
I4
sg1482
I1
sS'him.'
p2186
I1
sg1659
I1
sg289
I1
sg1335
I1
sg1956
I1
sg1686
I1
sg1384
I1
sS'circle'
p2187
I1
sS'do'
p2188
I7
sg295
I1
sg296
I1
sg297
I1
sg298
I1
sS'watch'
p2189
I5
sg301
I3
sg1388
I1
sg304
I1
sg1390
I1
sg305
I1
sg167
I1
sg307
I1
sS'bad'
p2190
I2
sg1395
I1
sg89
I1
sS'gt;gt;gt;'
p2191
I2
sg1778
I1
sg1400
I3
sg1401
I1
sS'see'
p2192
I5
sg1139
I1
sS'are'
p2193
I10
sg1405
I1
sg1406
I1
sg316
I1
sS'best'
p2194
I5
sS'said'
p2195
I3
sg1408
I4
sg319
I1
sS'please'
p2196
I1
sg320
I1
sS"there's"
p2197
I1
sg322
I1
sg1861
I2
sg323
I2
sg324
I1
sg1414
I1
sS'we'
p2198
I4
sS'men'
p2199
I1
sg1415
I1
sg330
I1
sg331
I1
sg333
I1
sg1418
I1
sS'last'
p2200
I2
sg339
I1
sS'games'
p2201
I1
sS'thoe'
p2202
I1
sg1660
I2
sg1423
I1
sS'whole'
p2203
I2
sg343
I1
sg344
I2
sg1426
I1
sS'point'
p2204
I2
sg785
I1
sg345
I1
sg1431
I1
sg432
I1
sg347
I1
sg348
I1
sS'now.'
p2205
I4
sg350
I2
sg2020
I1
sS'been'
p2206
I3
sS'.'
I9
sS'$300'
p2207
I1
sS'damn'
p2208
I1
sg1459
I1
sg355
I1
sg1435
I1
sg356
I1
sg357
I1
sg358
I1
sg359
I1
sS'life'
p2209
I5
sg362
I1
sg2065
I1
sg1442
I1
sS'else'
p2210
I1
sg364
I1
sg366
I1
sg1447
I1
sS'play'
p2211
I1
sg1448
I1
sg29
I1
sg1450
I1
sg368
I1
sg369
I1
sg1811
I1
sg370
I1
sS'n'
I1
sS'while'
p2212
I3
sg371
I2
sg306
I1
sg373
I1
sg1455
I2
sg1456
I1
sg1457
I1
sg374
I1
sS'over.'
p2213
I1
sg376
I1
sg231
I1
sS'it'
p2214
I20
sg380
I1
sg382
I1
sS'im'
p2215
I4
sS'in'
p2216
I32
sg113
I1
sg122
I1
sg1554
I1
sS'if'
p2217
I1
sg1464
I1
sg390
I1
sS'things'
p2218
I4
sS'make'
p2219
I4
sg393
I1
sS'amp;'
p2220
I8
sg1151
I1
sg395
I1
sg396
I1
sS'day'
p2221
I4
sg1470
I2
sS'lt;3'
p2222
I2
sg399
I1
sg400
I1
sg433
I1
sS'moment'
p2223
I1
sg1474
I1
sg402
I1
sg1477
I1
sg1478
I1
sg403
I1
sg404
I1
sg405
I1
sg406
I1
sg407
I1
sg1483
I1
sg252
I1
sS'person'
p2224
I4
sg1669
I1
sg1996
I1
sg411
I1
sg412
I1
sg413
I1
sg1489
I1
sg1490
I1
sg414
I1
sS'left'
p2225
I2
sg416
I1
sg417
I1
sS'just'
p2226
I15
sg419
I1
sg420
I2
sS'thanks'
p2227
I1
sg1492
I1
sg1493
I1
sg1494
I1
sg423
I1
sS'had'
p2228
I5
sg1407
I1
sg1497
I1
sg1498
I1
sS'easy'
p2229
I1
sg1671
I4
sg428
I1
sS'excited'
p2230
I1
sg1501
I1
sS'gave'
p2231
I1
sg430
I1
sg1502
I1
sg385
I1
sg2007
I1
sg1505
I2
sg1506
I1
sS'big'
p2232
I1
sg1508
I1
sS'game'
p2233
I4
sg1510
I1
sg436
I1
sS"ain't"
p2234
I1
sg438
I1
sg439
I1
sg1512
I1
sg1674
I1
sS'Are'
p2235
I2
sS'night'
p2236
I2
sg442
I1
sg443
I1
sS'right'
p2237
I4
sg445
I2
sg1515
I1
sS'people'
p2238
I7
sg449
I1
sS'some'
p2239
I4
sS'back'
p2240
I6
sS'lips'
p2241
I1
sg1823
I1
sg453
I1
sS'Life'
p2242
I2
sg1522
I1
sg1523
I1
sg1524
I1
sS'for'
p2243
I21
sg1525
I2
sg1527
I2
sg547
I1
sg457
I1
sg458
I1
sg459
I1
sg561
I1
sg464
I1
sg465
I2
sg1531
I1
sg572
I1
sS'be'
p2244
I29
sg1535
I1
sS'O'
I1
sg1538
I1
sg1539
I1
sg1541
I1
sS'by'
p2245
I2
sg471
I1
sg1543
I1
sg472
I1
sg1546
I2
sg1547
I1
sg473
I1
sg1548
I1
sg474
I1
sS'wanna'
p2246
I4
sg476
I1
sg1551
I1
sg1825
I1
sg697
I1
sg482
I1
sS'into'
p2247
I4
sg483
I1
sg709
I1
sg1064
I1
sS'down'
p2248
I2
sg1555
I1
sS'nigga'
p2249
I1
sg1368
I1
sg1340
I1
sg1558
I1
sS'..'
p2250
I2
sg489
I1
sg1563
I1
sg1564
I1
sS'question'
p2251
I1
sg1566
I4
sS'why'
p2252
I1
sg1567
I1
sg1568
I1
sS'way'
p2253
I5
sg1572
I1
sS':'
I1
sS'was'
p2254
I6
sg496
I1
sg1517
I4
sS'fireworks'
p2255
I1
sg1573
I2
sg498
I1
sg1574
I1
sg499
I1
sg500
I1
sS"I'll"
p2256
I7
sg2030
I1
sg503
I1
sg1577
I1
sS'inside'
p2257
I1
sg1579
I2
sS'up'
p2258
I12
sg1581
I1
sg1582
I1
sg1583
I1
sS'Fuck'
p2259
I1
sg508
I1
sg1590
I1
sg367
I1
sg509
I1
sS'trip'
p2260
I1
sS'shit'
p2261
I4
sg515
I1
sg1132
I1
sS'no'
p2262
I6
sg1592
I1
sg1593
I1
sg1917
I1
sg1595
I1
sg978
I1
sS'nice'
p2263
I3
sg525
I1
sg1601
I1
sg528
I1
sg1603
I1
sg530
I2
sg1604
I1
sg1606
I1
sg1607
I1
sS'together'
p2264
I2
sg535
I1
sg536
I1
sg1609
I1
sS'time'
p2265
I6
sg540
I1
sg1078
I2
sg542
I1
sg543
I1
sg1614
I1
sS':)'
p2266
I4
sg1617
I1
sS"I'm"
p2267
I13
sS'/'
I1
sg548
I2
sS'go'
p2268
I5
sg1345
I1
sS'conversation'
p2269
I1
sg549
I1
sg551
I1
sg1976
I1
sg1528
I1
sg1621
I1
sg1596
I1
sS'me'
p2270
I17
sg558
I1
sS'end'
p2271
I1
sg560
I1
sg1529
I1
sg562
I1
sg1624
I1
sg1625
I1
sg1694
I1
sS'Just'
p2272
I5
sS'did'
p2273
I3
sg1626
I1
sg567
I1
sg568
I2
sg569
I1
sg1628
I1
sg571
I1
sS'He'
p2274
I1
sg573
I1
sg574
I1
sg1319
I1
sg1633
I1
sg1034
I1
sg1634
I1
sg1636
I1
sg1344
I1
sg1349
I1
sS'that.'
p2275
I1
sg1643
I1
sg583
I1
sg1378
I1
sg1488
I1
sg584
I1
sg1382
I1
sg585
I1
sg1648
I1
sg1649
I1
sg586
I1
sg587
I1
sg588
I1
sg1650
I2
sg589
I1
sS'Me'
p2276
I2
sg591
I1
sg1654
I1
sg593
I1
sg594
I1
sS'pushing'
p2277
I1
sg1658
I1
sg595
I1
sg596
I1
sS'alone'
p2278
I1
sg1661
I1
sS'My'
p2279
I1
sg601
I2
sg603
I1
sg606
I1
sg1668
I1
sg1472
I1
sg609
I1
sg610
I1
sS'thats'
p2280
I2
sg1487
I1
sS'love'
p2281
I10
sg612
I1
sS"It's"
p2282
I1
sg1672
I1
sS'When'
p2283
I2
sg616
I1
sg1673
I1
sg617
I1
sg1675
I1
sg1676
I1
sS'use'
p2284
I2
sS'from'
p2285
I6
sg1545
I1
sg1681
I1
sg619
I1
sg1848
I1
sS'next'
p2286
I2
sg621
I1
sg622
I3
sg623
I1
sg625
I1
sg626
I1
sg627
I1
sg628
I4
sS'These'
p2287
I1
sg1687
I1
sg1710
I1
sg1689
I1
sg1690
I1
sg1691
I1
sg1693
I1
sg634
I1
sg635
I1
sS'this'
p2288
I20
sg1696
I1
sg637
I1
sg1698
I1
sg1699
I1
sS'can'
p2289
I10
sS'making'
p2290
I1
sg641
I1
sg644
I1
sg1703
I1
sg1704
I1
sg1705
I1
sg646
I3
sS'fuck'
p2291
I1
sg1706
I1
sg1707
I4
sS'heard'
p2292
I1
sg1708
I1
sS'his'
p2293
I1
sS'something'
p2294
I4
sS'hit'
p2295
I5
sg650
I1
sg651
I1
sg652
I1
sg1849
I1
sg653
I1
sg656
I1
sg657
I1
sS'1'
I2
sS'till'
p2296
I1
sg2012
I1
sg1711
I1
sg1713
I1
sg1750
I1
sS'!'
I5
sg660
I1
sS'stop'
p2297
I2
sg662
I1
sg664
I1
sS'mad'
p2298
I1
sg666
I1
sS'!!!'
p2299
I1
sg669
I1
sg670
I1
sg671
I1
sg1718
I1
sg1719
I1
sS'remember'
p2300
I1
sg674
I1
sg1720
I1
sg1721
I1
sg1722
I1
sg676
I1
sg677
I1
sS'so'
p2301
I9
sg1723
I1
sg1724
I3
sS'talk'
p2302
I2
sg1725
I1
sg684
I1
sg1727
I2
sg1196
I1
sg689
I1
sg1874
I1
sS'still'
p2303
I2
sg1352
I1
sS'RT'
p2304
I4
sg693
I1
sg694
I1
sg695
I1
sg1209
I1
sS'interesting'
p2305
I1
sg700
I1
sg1733
I1
sS'him'
p2306
I1
sg290
I1
sg702
I3
sg703
I1
sg1735
I1
sg1736
I2
sg705
I1
sS'Goin'
p2307
I1
sg1737
I1
sg1738
I1
sg708
I1
sg1739
I1
sg484
I1
sg1740
I1
sg1741
I2
sg1947
I1
sg1742
I1
sg1958
I1
sS'not'
p2308
I6
sS'now'
p2309
I7
sg1909
I1
sg718
I1
sg1980
I1
sg1984
I1
sg1747
I1
sg721
I1
sg722
I1
sg1749
I1
sg724
I2
sg725
I1
sS'|'
I1
sg727
I1
sg1866
I1
sg2022
I1
sg2032
I1
sg1393
I1
sg2025
I1
sg730
I1
sg1753
I2
sg2058
I1
sg732
I1
sS'our'
p2310
I3
sg733
I3
sg734
I1
sg736
I1
sg737
I1
sg1759
I1
sg2080
I1
sS'looking'
p2311
I1
sS'stuff'
p2312
I1
sg745
I2
sg746
I1
sS'cause'
p2313
I3
sg34
I1
sg1763
I1
sg1732
I1
sg749
I3
sg750
I1
sS'G'
I1
sS'This'
p2314
I5
sg752
I2
sg753
I1
sS'grandma'
p2315
I1
sS'care'
p2316
I4
sS'training'
p2317
I1
sS'could'
p2318
I3
sg1773
I2
sg119
I6
sS'place'
p2319
I3
sg1396
I2
sg761
I1
sg1775
I1
sS'think'
p2320
I2
sg763
I1
sg146
I1
sS'There'
p2321
I2
sg1398
I1
sS'one'
p2322
I12
sg1717
I1
sg468
I1
sS'such'
p2323
I1
sg1782
I1
sg771
I1
sg772
I1
sS"you're"
p2324
I1
sg774
I1
sg775
I1
sg1786
I1
sg2028
I1
sg1219
I1
sS'their'
p2325
I3
sS'2'
I1
sg778
I2
sg779
I1
sg780
I1
sg2034
I2
sS'that'
p2326
I28
sg263
I1
sg273
I1
sg1796
I1
sg1797
I1
sg1798
I1
sS'than'
p2327
I3
sS'10'
p2328
I1
sg300
I1
sg793
I3
sS'lying'
p2329
I1
sg1802
I1
sg796
I1
sg1803
I1
sS'were'
p2330
I3
sg1805
I1
sS'and'
p2331
I63
sg800
I1
sg1807
I1
sg1808
I1
sg1809
I1
sS'tonight'
p2332
I3
sS'say'
p2333
I7
sg1571
I1
sS'have'
p2334
I14
sS'need'
p2335
I7
sg1814
I1
sS'any'
p2336
I1
sg1815
I1
sg807
I1
sg409
I1
sg1985
I1
sS'take'
p2337
I1
sg1820
I1
sS'='
I1
sg815
I1
sg1821
I1
sg1822
I1
sg817
I1
sS'pain'
p2338
I2
sg819
I1
sg821
I1
sS'who'
p2339
I10
sg822
I1
sg823
I1
sg1876
I5
sg832
I1
sg1225
I1
sg490
I1
sg825
I1
sg826
I1
sg1827
I1
sg827
I1
sg1828
I1
sS'considered'
p2340
I1
sg1829
I1
sg506
I1
sg507
I1
sS'face'
p2341
I2
sS"you'll"
p2342
I2
sg831
I1
sg833
I1
sg1834
I1
sS'son'
p2343
I1
sg1844
I1
sg834
I1
sg1952
I2
sS'show'
p2344
I2
sS'text'
p2345
I1
sS'one.'
p2346
I1
sS'bring'
p2347
I3
sg836
I1
sg1231
I1
sg1841
I1
sg1842
I1
sg839
I1
sS'trying'
p2348
I2
sg840
I1
sS'Twitter'
p2349
I1
sS'should'
p2350
I4
sS'only'
p2351
I2
sS'going'
p2352
I9
sS'black'
p2353
I1
sg1850
I1
sg1851
I2
sS'watching'
p2354
I1
sg1852
I1
sS'hope'
p2355
I3
sS'get'
p2356
I9
sg1855
I2
sg1856
I1
sg1857
I1
sS'act'
p2357
I1
sg847
I1
sg849
I1
sg1862
I1
sg1728
I1
sg850
I1
sg141
I1
sg1946
I2
sg1926
I1
sg1865
I1
sS'New'
p2358
I2
sg1576
I1
sg1235
I1
sg853
I2
sg854
I1
sS'stupid'
p2359
I1
sS'she'
p2360
I4
sg857
I1
sS'through'
p2361
I3
sg1881
I1
sg859
I1
sg504
I1
sg1302
I1
sg863
I1
sg892
I1
sg1391
I1
sg1870
I1
sS'!!!!'
p2362
I2
sg866
I1
sg869
I1
sg871
I1
sg873
I1
sS'its'
p2363
I3
sg1877
I1
sS'3'
I1
sg875
I2
sg877
I2
sg878
I1
sg858
I1
sg1731
I2
sg879
I2
sg880
I1
sg1884
I1
sg882
I1
sg1885
I1
sg884
I1
sg898
I1
sS'come'
p2364
I1
sg1887
I1
sg887
I1
sg2059
I2
sg1888
I1
sg888
I1
sg920
I1
sg1890
I2
sg890
I1
sS"can't"
p2365
I3
sS'6'
I1
sg893
I1
sg1892
I1
sg894
I1
sg1893
I1
sg1895
I1
sg895
I1
sg1897
I1
sg896
I1
sg1900
I1
sg1243
I1
sg1901
I1
sg897
I1
sS'respect'
p2366
I4
sS'actually'
p2367
I1
sg111
I1
sg899
I1
sS"it's"
p2368
I7
sg701
I1
sg903
I2
sg1907
I1
sg905
I1
sg207
I1
sg908
I1
sg910
I1
sg1734
I1
sg1911
I1
sg1913
I1
sg914
I1
sS'those'
p2369
I2
sg1105
I1
sS'And'
p2370
I1
sS'myself'
p2371
I1
sS'To'
p2372
I2
sS'these'
p2373
I3
sg764
I1
sS'will'
p2374
I9
sg916
I1
sg1919
I1
sg917
I1
sg1920
I1
sS'life.'
p2375
I1
sg921
I1
sg1923
I1
sS'Looking'
p2376
I1
sg926
I1
sS'good'
p2377
I7
sg928
I1
sg930
I1
sS'You'
p2378
I4
sg931
I1
sg932
I2
sg933
I1
sg935
I1
sg936
I2
sg937
I1
sg938
I1
sS'same'
p2379
I1
sg1241
I1
sg1931
I1
sg940
I1
sg1255
I1
sS'party'
p2380
I3
sg196
I2
sS'week'
p2381
I2
sS'I'
I69
sg1939
I1
sg945
I1
sg946
I1
sg1751
I1
sS'off'
p2382
I2
sS'i'
I13
sS'Is'
p2383
I1
sg1200
I1
sg1860
I1
sS'know'
p2384
I3
sS'thought'
p2385
I1
sg950
I1
sg1765
I1
sg951
I1
sS'Im'
p2386
I1
sS'comes'
p2387
I2
sS'In'
p2388
I1
sg955
I1
sg1784
I1
sS'If'
p2389
I7
sg1376
I1
sg1953
I1
sg1954
I1
sg1381
I1
sS'less'
p2390
I1
sS'being'
p2391
I5
sS'when'
p2392
I6
sS'rest'
p2393
I2
sg1959
I1
sg1652
I1
sg967
I1
sg1962
I1
sg969
I2
sg1425
I1
sg1965
I2
sg1967
I1
sg971
I1
sS'4'
I1
sg1896
I2
sg1260
I1
sg1971
I1
sg1972
I1
sS'real'
p2394
I1
sg973
I1
sg1974
I1
sS'gonna'
p2395
I2
sS'early'
p2396
I1
sg523
I1
sS'()'
p2397
I1
sS'bitch'
p2398
I1
sg980
I1
sS'world'
p2399
I1
sg1430
I1
sg984
I1
sS'like'
p2400
I7
sS'laughing'
p2401
I1
sS'all.'
p2402
I1
sg989
I1
sg1988
I1
sS'because'
p2403
I4
sg1991
I1
sS'twitter'
p2404
I1
sg991
I1
sg1993
I1
sg1902
I1
sS"There's"
p2405
I3
sg720
I1
sg2000
I2
sg2001
I1
sg993
I1
sg2002
I1
sg1605
I1
sg2003
I1
sg996
I2
sg2004
I1
sS'does'
p2406
I2
sg2006
I1
sS'three'
p2407
I1
sg999
I1
sS'?'
I2
sg1002
I1
sg1646
I1
sg2008
I1
sg1432
I1
sg2009
I1
sS"You'll"
p2408
I1
sS';)'
p2409
I3
sS'on'
p2410
I34
sS'about'
p2411
I6
sg1010
I1
sg1011
I1
sS'of'
p2412
I39
sg614
I1
sg1513
I1
sg2013
I1
sS'or'
p2413
I3
sg2015
I2
sS'No'
p2414
I1
sg2017
I1
sg1019
I1
sS'Two'
p2415
I1
sg2019
I1
sg1906
I1
sg1021
I1
sg1022
I1
sg2023
I1
sg2024
I1
sS'your'
p2416
I11
sg553
I1
sS'her'
p2417
I2
sg257
I1
sS'there'
p2418
I2
sg2029
I1
sS'lol'
p2419
I6
sg2031
I1
sg1030
I1
sg1787
I1
sg1846
I3
sS'lot'
p2420
I1
sg1800
I1
sg2038
I1
sS'you.'
p2421
I2
sg1036
I1
sS'complete'
p2422
I1
sg1039
I1
sg1040
I1
sS'but'
p2423
I5
sg2042
I1
sg809
I1
sS'with'
p2424
I23
sg1436
I1
sS'he'
p2425
I1
sg2048
I2
sg2049
I1
sS'wish'
p2426
I2
sg1049
I1
sg2054
I1
sS'cake'
p2427
I1
sg1439
I1
sS'gone'
p2428
I1
sS'taste'
p2429
I1
sg1054
I4
sS'an'
p2430
I1
sg1057
I1
sS'as'
p2431
I9
sg1059
I1
sS'at'
p2432
I15
sg2062
I1
sg1229
I1
sS'again'
p2433
I1
sg1063
I1
sg1440
I1
sS'Never'
p2434
I2
sg1066
I1
sg1863
I1
sg1300
I1
sg1970
I1
sS'you'
p2435
I33
sS'out'
p2436
I13
sS'poor'
p2437
I1
sg1758
I1
sg2070
I1
sg1076
I1
sg1077
I1
sS'U'
I2
sg1316
I1
sg2076
I1
sg2077
I1
sg2078
I2
sg2079
I1
sg2056
I1
sg2082
I1
sg1612
I2
sg1082
I1
sS'u'
I2
sg1613
I1
sg2081
I1
sg1085
I1
ssS'label'
p2438
g2089
sS'prob'
p2439
F-0.80089989992030475
sS'num_words'
p2440
I2925
ssS'negative'
p2441
(dp2442
g2091
(dp2443
g8
F-11.12734954105912
sg6
F-11.12734954105912
sg7
F-12.12734954105912
sg5
F-11.12734954105912
sg9
F-11.12734954105912
sg10
F-12.12734954105912
sg11
F-12.12734954105912
sg12
F-8.957424539616806
sg1930
F-11.12734954105912
sg13
F-10.12734954105912
sg14
F-11.12734954105912
sg15
F-10.542387040337964
sg16
F-11.12734954105912
sg17
F-10.542387040337964
sg18
F-10.542387040337964
sg19
F-11.12734954105912
sg20
F-12.12734954105912
sg21
F-12.12734954105912
sg22
F-10.12734954105912
sg23
F-12.12734954105912
sg24
F-11.12734954105912
sg25
F-12.12734954105912
sg26
F-11.12734954105912
sg27
F-12.12734954105912
sg28
F-12.12734954105912
sg1449
F-12.12734954105912
sg30
F-12.12734954105912
sg31
F-10.542387040337964
sg32
F-12.12734954105912
sg33
F-12.12734954105912
sg34
F-12.12734954105912
sg1091
F-11.12734954105912
sg36
F-11.12734954105912
sg37
F-11.12734954105912
sg38
F-11.12734954105912
sg39
F-12.12734954105912
sg40
F-11.12734954105912
sg41
F-12.12734954105912
sg42
F-11.12734954105912
sg43
F-10.12734954105912
sg44
F-12.12734954105912
sg45
F-12.12734954105912
sg46
F-12.12734954105912
sg47
F-12.12734954105912
sg48
F-11.12734954105912
sg49
F-11.12734954105912
sg50
F-11.12734954105912
sg51
F-9.8054214461717581
sg52
F-11.12734954105912
sg53
F-11.12734954105912
sg54
F-12.12734954105912
sg55
F-12.12734954105912
sg56
F-12.12734954105912
sg57
F-11.12734954105912
sg58
F-11.12734954105912
sg59
F-12.12734954105912
sg60
F-10.12734954105912
sg310
F-12.12734954105912
sg62
F-12.12734954105912
sg752
F-12.12734954105912
sg64
F-9.5423870403379638
sg65
F-12.12734954105912
sg66
F-10.12734954105912
sg67
F-12.12734954105912
sg68
F-12.12734954105912
sg69
F-12.12734954105912
sg70
F-12.12734954105912
sg71
F-10.542387040337964
sg72
F-11.12734954105912
sg73
F-12.12734954105912
sg74
F-12.12734954105912
sg75
F-11.12734954105912
sg76
F-12.12734954105912
sg77
F-12.12734954105912
sg78
F-12.12734954105912
sg79
F-11.12734954105912
sg80
F-11.12734954105912
sg81
F-12.12734954105912
sg497
F-10.542387040337964
sg82
F-11.12734954105912
sg83
F-12.12734954105912
sg84
F-12.12734954105912
sg85
F-9.1273495410591199
sg86
F-11.12734954105912
sg87
F-12.12734954105912
sg502
F-12.12734954105912
sg90
F-11.12734954105912
sg88
F-11.12734954105912
sg92
F-12.12734954105912
sg93
F-12.12734954105912
sg94
F-11.12734954105912
sg95
F-10.542387040337964
sg96
F-12.12734954105912
sg97
F-12.12734954105912
sg98
F-11.12734954105912
sg556
F-10.12734954105912
sg557
F-7.957424539616806
sg101
F-11.12734954105912
sg102
F-9.8054214461717581
sg103
F-12.12734954105912
sg104
F-12.12734954105912
sg105
F-11.12734954105912
sg106
F-12.12734954105912
sg107
F-7.6679179224218226
sg1772
F-11.12734954105912
sg109
F-9.8054214461717581
sg621
F-12.12734954105912
sg112
F-11.12734954105912
sg1463
F-11.12734954105912
sg114
F-10.12734954105912
sg115
F-11.12734954105912
sg1773
F-12.12734954105912
sg117
F-12.12734954105912
sg118
F-11.12734954105912
sg675
F-12.12734954105912
sg120
F-11.12734954105912
sg1107
F-12.12734954105912
sg122
F-12.12734954105912
sg123
F-8.957424539616806
sg124
F-12.12734954105912
sg125
F-11.12734954105912
sg126
F-12.12734954105912
sg127
F-11.12734954105912
sg128
F-12.12734954105912
sS'A'
F-12.12734954105912
sg129
F-11.12734954105912
sg130
F-12.12734954105912
sg131
F-10.542387040337964
sg132
F-12.12734954105912
sg133
F-12.12734954105912
sg134
F-12.12734954105912
sg135
F-12.12734954105912
sg136
F-11.12734954105912
sg137
F-12.12734954105912
sg138
F-12.12734954105912
sg139
F-11.12734954105912
sg140
F-12.12734954105912
sg1114
F-11.12734954105912
sg142
F-12.12734954105912
sg143
F-12.12734954105912
sg144
F-12.12734954105912
sg1115
F-10.542387040337964
sg147
F-9.1273495410591199
sg148
F-11.12734954105912
sg149
F-12.12734954105912
sg150
F-12.12734954105912
sg151
F-11.12734954105912
sg152
F-12.12734954105912
sg153
F-12.12734954105912
sg1602
F-12.12734954105912
sg154
F-12.12734954105912
sg1466
F-9.8054214461717581
sg155
F-10.542387040337964
sg156
F-11.12734954105912
sg157
F-12.12734954105912
sg158
F-12.12734954105912
sg159
F-12.12734954105912
sg160
F-11.12734954105912
sg161
F-9.3199946190015162
sg162
F-10.12734954105912
sg933
F-12.12734954105912
sg164
F-11.12734954105912
sg165
F-12.12734954105912
sg166
F-11.12734954105912
sg168
F-8.4269098229180273
sg1121
F-11.12734954105912
sg170
F-11.12734954105912
sg171
F-12.12734954105912
sg173
F-12.12734954105912
sg174
F-12.12734954105912
sg175
F-12.12734954105912
sg176
F-12.12734954105912
sg178
F-12.12734954105912
sg179
F-11.12734954105912
sg180
F-10.542387040337964
sg181
F-12.12734954105912
sg182
F-11.12734954105912
sg1015
F-12.12734954105912
sg1124
F-11.12734954105912
sg185
F-11.12734954105912
sg186
F-12.12734954105912
sg188
F-12.12734954105912
sg189
F-11.12734954105912
sg190
F-12.12734954105912
sg191
F-11.12734954105912
sg192
F-12.12734954105912
sg193
F-12.12734954105912
sg194
F-9.8054214461717581
sg195
F-12.12734954105912
sg196
F-12.12734954105912
sg1783
F-11.12734954105912
sg198
F-12.12734954105912
sg199
F-12.12734954105912
sg1162
F-12.12734954105912
sg201
F-12.12734954105912
sg202
F-12.12734954105912
sg203
F-11.12734954105912
sg204
F-12.12734954105912
sg205
F-10.12734954105912
sg206
F-12.12734954105912
sg209
F-10.542387040337964
sg210
F-10.12734954105912
sg211
F-12.12734954105912
sg212
F-11.12734954105912
sg213
F-11.12734954105912
sg214
F-12.12734954105912
sg215
F-11.12734954105912
sg216
F-12.12734954105912
sg217
F-12.12734954105912
sg218
F-11.12734954105912
sg219
F-10.542387040337964
sg1291
F-12.12734954105912
sg221
F-12.12734954105912
sg223
F-12.12734954105912
sg224
F-11.12734954105912
sg225
F-12.12734954105912
sg226
F-12.12734954105912
sg227
F-10.542387040337964
sg228
F-12.12734954105912
sg229
F-12.12734954105912
sg778
F-12.12734954105912
sg231
F-12.12734954105912
sg232
F-11.12734954105912
sg233
F-11.12734954105912
sg235
F-12.12734954105912
sg236
F-12.12734954105912
sg237
F-10.542387040337964
sg238
F-12.12734954105912
sg239
F-12.12734954105912
sg240
F-12.12734954105912
sg241
F-11.12734954105912
sg242
F-12.12734954105912
sg243
F-12.12734954105912
sg244
F-12.12734954105912
sg1133
F-11.12734954105912
sg246
F-11.12734954105912
sg247
F-11.12734954105912
sg248
F-11.12734954105912
sg249
F-12.12734954105912
sg250
F-11.12734954105912
sg251
F-12.12734954105912
sg1485
F-11.12734954105912
sg253
F-11.12734954105912
sg254
F-12.12734954105912
sg255
F-12.12734954105912
sg1486
F-10.12734954105912
sS'-'
F-11.12734954105912
sg1907
F-12.12734954105912
sg258
F-11.12734954105912
sg259
F-11.12734954105912
sg260
F-9.5423870403379638
sg261
F-12.12734954105912
sg262
F-11.12734954105912
sg1793
F-12.12734954105912
sg264
F-11.12734954105912
sg265
F-12.12734954105912
sg266
F-12.12734954105912
sg267
F-12.12734954105912
sg268
F-12.12734954105912
sg269
F-5.588190729951088
sg270
F-11.12734954105912
sg1795
F-11.12734954105912
sg272
F-10.542387040337964
sg273
F-12.12734954105912
sg274
F-12.12734954105912
sg275
F-10.542387040337964
sg276
F-12.12734954105912
sg277
F-12.12734954105912
sg278
F-11.12734954105912
sg279
F-11.12734954105912
sg280
F-11.12734954105912
sg281
F-11.12734954105912
sg282
F-11.12734954105912
sg283
F-12.12734954105912
sg284
F-12.12734954105912
sg285
F-12.12734954105912
sg286
F-12.12734954105912
sg1138
F-11.12734954105912
sg288
F-11.12734954105912
sg289
F-12.12734954105912
sg291
F-11.12734954105912
sg292
F-11.12734954105912
sg293
F-11.12734954105912
sg294
F-9.1273495410591199
sg295
F-12.12734954105912
sg296
F-12.12734954105912
sg297
F-12.12734954105912
sg1799
F-11.12734954105912
sg299
F-10.542387040337964
sg791
F-11.12734954105912
sg301
F-12.12734954105912
sg302
F-11.12734954105912
sg303
F-11.12734954105912
sg304
F-12.12734954105912
sg305
F-12.12734954105912
sg307
F-12.12734954105912
sg308
F-11.12734954105912
sg309
F-10.542387040337964
sg61
F-10.542387040337964
sg311
F-11.12734954105912
sg312
F-11.12734954105912
sg313
F-11.12734954105912
sg314
F-11.12734954105912
sg315
F-11.12734954105912
sg316
F-12.12734954105912
sg317
F-10.542387040337964
sg318
F-11.12734954105912
sg319
F-12.12734954105912
sg320
F-12.12734954105912
sg321
F-11.12734954105912
sg322
F-12.12734954105912
sg323
F-12.12734954105912
sg324
F-12.12734954105912
sg325
F-8.957424539616806
sg961
F-11.12734954105912
sg327
F-11.12734954105912
sg328
F-11.12734954105912
sg329
F-11.12734954105912
sg330
F-12.12734954105912
sg222
F-12.12734954105912
sg332
F-11.12734954105912
sg333
F-12.12734954105912
sg334
F-11.12734954105912
sg335
F-11.12734954105912
sg336
F-11.12734954105912
sg337
F-11.12734954105912
sg338
F-11.12734954105912
sg339
F-12.12734954105912
sg340
F-11.12734954105912
sg341
F-11.12734954105912
sg1108
F-11.12734954105912
sg342
F-11.12734954105912
sg343
F-12.12734954105912
sg345
F-12.12734954105912
sg346
F-11.12734954105912
sg347
F-12.12734954105912
sg348
F-12.12734954105912
sg349
F-11.12734954105912
sg350
F-12.12734954105912
sg351
F-11.12734954105912
sg352
F-11.12734954105912
sS'.'
F-8.957424539616806
sg353
F-11.12734954105912
sg354
F-11.12734954105912
sg355
F-12.12734954105912
sg356
F-12.12734954105912
sg357
F-12.12734954105912
sg358
F-12.12734954105912
sg359
F-12.12734954105912
sg360
F-10.542387040337964
sg361
F-11.12734954105912
sg362
F-12.12734954105912
sg363
F-11.12734954105912
sg364
F-12.12734954105912
sg365
F-11.12734954105912
sg366
F-12.12734954105912
sg1579
F-12.12734954105912
sg368
F-12.12734954105912
sg369
F-12.12734954105912
sg370
F-12.12734954105912
sS'n'
F-12.12734954105912
sg371
F-12.12734954105912
sg372
F-11.12734954105912
sg373
F-12.12734954105912
sg374
F-12.12734954105912
sg375
F-11.12734954105912
sg376
F-12.12734954105912
sg1502
F-12.12734954105912
sg378
F-7.2693685459315471
sg379
F-7.7350321182803592
sg380
F-12.12734954105912
sg381
F-11.12734954105912
sg382
F-12.12734954105912
sg383
F-11.12734954105912
sg384
F-7.6679179224218226
sg1503
F-11.12734954105912
sg386
F-11.12734954105912
sg387
F-11.12734954105912
sg388
F-11.12734954105912
sg389
F-11.12734954105912
sg390
F-12.12734954105912
sg391
F-9.8054214461717581
sg392
F-11.12734954105912
sg393
F-12.12734954105912
sg394
F-11.12734954105912
sg1507
F-10.542387040337964
sg396
F-12.12734954105912
sg397
F-11.12734954105912
sg398
F-12.12734954105912
sg399
F-12.12734954105912
sg400
F-12.12734954105912
sg401
F-11.12734954105912
sg402
F-12.12734954105912
sg1474
F-12.12734954105912
sg403
F-12.12734954105912
sg404
F-12.12734954105912
sg405
F-12.12734954105912
sg406
F-12.12734954105912
sg407
F-12.12734954105912
sg408
F-11.12734954105912
sg1819
F-11.12734954105912
sg410
F-11.12734954105912
sg411
F-12.12734954105912
sg412
F-12.12734954105912
sg413
F-12.12734954105912
sg414
F-12.12734954105912
sg415
F-11.12734954105912
sg416
F-12.12734954105912
sg417
F-12.12734954105912
sg418
F-8.4269098229180273
sg419
F-12.12734954105912
sg420
F-12.12734954105912
sg421
F-11.12734954105912
sg1623
F-10.542387040337964
sg422
F-11.12734954105912
sg423
F-12.12734954105912
sg424
F-10.12734954105912
sg425
F-11.12734954105912
sg426
F-11.12734954105912
sg427
F-11.12734954105912
sg428
F-12.12734954105912
sg429
F-11.12734954105912
sg430
F-12.12734954105912
sg1922
F-11.12734954105912
sg431
F-11.12734954105912
sg434
F-10.542387040337964
sg435
F-11.12734954105912
sg436
F-12.12734954105912
sg437
F-10.12734954105912
sg438
F-12.12734954105912
sg439
F-12.12734954105912
sg440
F-11.12734954105912
sg441
F-10.12734954105912
sg442
F-12.12734954105912
sg443
F-12.12734954105912
sg444
F-10.12734954105912
sg445
F-12.12734954105912
sg446
F-10.542387040337964
sg447
F-8.3199946190015162
sg448
F-11.12734954105912
sg449
F-12.12734954105912
sg450
F-11.12734954105912
sg451
F-11.12734954105912
sg453
F-12.12734954105912
sg454
F-11.12734954105912
sg455
F-8.1273495410591199
sg547
F-12.12734954105912
sg457
F-12.12734954105912
sg552
F-11.12734954105912
sg459
F-12.12734954105912
sg460
F-11.12734954105912
sg461
F-11.12734954105912
sg462
F-11.12734954105912
sg561
F-12.12734954105912
sg464
F-12.12734954105912
sg564
F-11.12734954105912
sg572
F-12.12734954105912
sg467
F-11.12734954105912
sg469
F-10.542387040337964
sg470
F-11.12734954105912
sg471
F-12.12734954105912
sg472
F-12.12734954105912
sg473
F-12.12734954105912
sg1646
F-12.12734954105912
sg1825
F-12.12734954105912
sg474
F-12.12734954105912
sg475
F-11.12734954105912
sg476
F-12.12734954105912
sg478
F-11.12734954105912
sg479
F-11.12734954105912
sg697
F-12.12734954105912
sg481
F-11.12734954105912
sg482
F-12.12734954105912
sg483
F-12.12734954105912
sg709
F-12.12734954105912
sg1166
F-11.12734954105912
sg486
F-11.12734954105912
sg487
F-11.12734954105912
sg488
F-11.12734954105912
sg489
F-12.12734954105912
sg1826
F-10.12734954105912
sg491
F-11.12734954105912
sg492
F-9.8054214461717581
sg493
F-11.12734954105912
sg494
F-10.542387040337964
sg495
F-8.957424539616806
sg496
F-12.12734954105912
sg477
F-12.12734954105912
sg1519
F-11.12734954105912
sg498
F-12.12734954105912
sg499
F-12.12734954105912
sg500
F-12.12734954105912
sg501
F-11.12734954105912
sg503
F-12.12734954105912
sg860
F-11.12734954105912
sg505
F-11.12734954105912
sg829
F-10.542387040337964
sg507
F-12.12734954105912
sg508
F-12.12734954105912
sg509
F-12.12734954105912
sg510
F-11.12734954105912
sg511
F-11.12734954105912
sg512
F-9.3199946190015162
sg513
F-11.12734954105912
sg514
F-11.12734954105912
sg515
F-12.12734954105912
sg516
F-11.12734954105912
sg517
F-8.957424539616806
sg518
F-10.542387040337964
sg519
F-11.12734954105912
sg520
F-11.12734954105912
sg521
F-11.12734954105912
sg522
F-11.12734954105912
sg978
F-12.12734954105912
sg524
F-11.12734954105912
sg525
F-12.12734954105912
sg526
F-11.12734954105912
sg527
F-11.12734954105912
sg528
F-12.12734954105912
sg529
F-11.12734954105912
sg530
F-12.12734954105912
sg531
F-11.12734954105912
sg532
F-11.12734954105912
sg1175
F-11.12734954105912
sg534
F-11.12734954105912
sg535
F-12.12734954105912
sg536
F-12.12734954105912
sg537
F-11.12734954105912
sg538
F-11.12734954105912
sg539
F-9.1273495410591199
sg540
F-12.12734954105912
sg1176
F-10.12734954105912
sg542
F-12.12734954105912
sg543
F-12.12734954105912
sg544
F-9.8054214461717581
sg545
F-11.12734954105912
sg546
F-11.12734954105912
sS'/'
F-12.12734954105912
sg548
F-12.12734954105912
sg549
F-12.12734954105912
sg550
F-11.12734954105912
sg551
F-12.12734954105912
sg458
F-12.12734954105912
sg553
F-12.12734954105912
sg554
F-11.12734954105912
sS'0'
F-11.12734954105912
sg555
F-11.12734954105912
sg99
F-10.542387040337964
sg100
F-11.12734954105912
sg558
F-12.12734954105912
sg559
F-11.12734954105912
sg560
F-12.12734954105912
sg463
F-11.12734954105912
sg562
F-12.12734954105912
sg563
F-11.12734954105912
sg465
F-12.12734954105912
sg565
F-11.12734954105912
sg566
F-9.8054214461717581
sg567
F-12.12734954105912
sg568
F-12.12734954105912
sg569
F-12.12734954105912
sg570
F-11.12734954105912
sg571
F-12.12734954105912
sg466
F-11.12734954105912
sg573
F-12.12734954105912
sg574
F-12.12734954105912
sg575
F-11.12734954105912
sg576
F-11.12734954105912
sg577
F-11.12734954105912
sg578
F-11.12734954105912
sg579
F-11.12734954105912
sg580
F-11.12734954105912
sg581
F-11.12734954105912
sg582
F-11.12734954105912
sg583
F-12.12734954105912
sg584
F-12.12734954105912
sg585
F-12.12734954105912
sg586
F-12.12734954105912
sg587
F-12.12734954105912
sg588
F-12.12734954105912
sg167
F-12.12734954105912
sg590
F-10.542387040337964
sg591
F-12.12734954105912
sg592
F-11.12734954105912
sg593
F-12.12734954105912
sg594
F-12.12734954105912
sg595
F-12.12734954105912
sg596
F-12.12734954105912
sg597
F-10.542387040337964
sg598
F-11.12734954105912
sg599
F-11.12734954105912
sg600
F-11.12734954105912
sg601
F-12.12734954105912
sg602
F-11.12734954105912
sg603
F-12.12734954105912
sg604
F-11.12734954105912
sg606
F-12.12734954105912
sg607
F-11.12734954105912
sg433
F-12.12734954105912
sg609
F-12.12734954105912
sg610
F-12.12734954105912
sg611
F-10.542387040337964
sg612
F-12.12734954105912
sg613
F-10.12734954105912
sg615
F-9.8054214461717581
sg616
F-12.12734954105912
sg617
F-12.12734954105912
sg618
F-11.12734954105912
sg619
F-12.12734954105912
sg620
F-11.12734954105912
sg110
F-12.12734954105912
sg622
F-12.12734954105912
sg623
F-12.12734954105912
sg624
F-11.12734954105912
sg625
F-12.12734954105912
sg626
F-12.12734954105912
sg627
F-12.12734954105912
sg628
F-12.12734954105912
sg629
F-10.12734954105912
sg630
F-11.12734954105912
sg631
F-11.12734954105912
sg632
F-11.12734954105912
sg633
F-11.12734954105912
sg634
F-12.12734954105912
sg635
F-12.12734954105912
sg636
F-11.12734954105912
sg637
F-12.12734954105912
sg638
F-11.12734954105912
sg639
F-9.5423870403379638
sg640
F-11.12734954105912
sg641
F-12.12734954105912
sg642
F-11.12734954105912
sg643
F-11.12734954105912
sg644
F-12.12734954105912
sg645
F-11.12734954105912
sg646
F-12.12734954105912
sg647
F-9.5423870403379638
sg648
F-10.12734954105912
sg649
F-11.12734954105912
sg650
F-12.12734954105912
sg651
F-12.12734954105912
sg652
F-12.12734954105912
sg653
F-12.12734954105912
sg654
F-11.12734954105912
sg1199
F-11.12734954105912
sg656
F-12.12734954105912
sg657
F-12.12734954105912
sS'1'
F-12.12734954105912
sg658
F-11.12734954105912
sg659
F-9.8054214461717581
sg1201
F-11.12734954105912
sg660
F-12.12734954105912
sg661
F-11.12734954105912
sg662
F-12.12734954105912
sg663
F-11.12734954105912
sg664
F-12.12734954105912
sg665
F-11.12734954105912
sg666
F-12.12734954105912
sg1109
F-12.12734954105912
sg668
F-11.12734954105912
sg669
F-12.12734954105912
sg670
F-12.12734954105912
sg671
F-12.12734954105912
sg672
F-11.12734954105912
sg673
F-11.12734954105912
sg674
F-12.12734954105912
sg676
F-12.12734954105912
sg677
F-12.12734954105912
sg678
F-8.6679179224218217
sg679
F-10.542387040337964
sg680
F-11.12734954105912
sg681
F-11.12734954105912
sg682
F-11.12734954105912
sg683
F-11.12734954105912
sg684
F-12.12734954105912
sg685
F-11.12734954105912
sg686
F-11.12734954105912
sg687
F-11.12734954105912
sg688
F-11.12734954105912
sg689
F-12.12734954105912
sg690
F-11.12734954105912
sg691
F-10.542387040337964
sg692
F-11.12734954105912
sg693
F-12.12734954105912
sg694
F-12.12734954105912
sg695
F-12.12734954105912
sg696
F-11.12734954105912
sg480
F-11.12734954105912
sg698
F-11.12734954105912
sg699
F-11.12734954105912
sg700
F-12.12734954105912
sg290
F-12.12734954105912
sg702
F-12.12734954105912
sg703
F-12.12734954105912
sg704
F-11.12734954105912
sg705
F-12.12734954105912
sg706
F-11.12734954105912
sg1864
F-11.12734954105912
sg708
F-12.12734954105912
sg1983
F-11.12734954105912
sg484
F-12.12734954105912
sg710
F-12.12734954105912
sg711
F-11.12734954105912
sg712
F-9.8054214461717581
sg713
F-11.12734954105912
sg714
F-7.8054214461717573
sg715
F-8.957424539616806
sg716
F-11.12734954105912
sg717
F-11.12734954105912
sg718
F-12.12734954105912
sg719
F-11.12734954105912
sg720
F-12.12734954105912
sg721
F-12.12734954105912
sg722
F-12.12734954105912
sg723
F-11.12734954105912
sg724
F-12.12734954105912
sg725
F-12.12734954105912
sg726
F-11.12734954105912
sg727
F-12.12734954105912
sg728
F-11.12734954105912
sg729
F-11.12734954105912
sg730
F-12.12734954105912
sg731
F-11.12734954105912
sg732
F-12.12734954105912
sg733
F-12.12734954105912
sg734
F-12.12734954105912
sg735
F-11.12734954105912
sg736
F-12.12734954105912
sg737
F-12.12734954105912
sg738
F-10.542387040337964
sg1215
F-11.12734954105912
sg740
F-11.12734954105912
sg741
F-11.12734954105912
sg742
F-11.12734954105912
sg743
F-11.12734954105912
sg744
F-11.12734954105912
sg745
F-12.12734954105912
sg746
F-12.12734954105912
sg747
F-12.12734954105912
sg748
F-11.12734954105912
sg749
F-12.12734954105912
sg750
F-12.12734954105912
sS'G'
F-12.12734954105912
sg751
F-11.12734954105912
sg63
F-12.12734954105912
sg753
F-12.12734954105912
sg754
F-11.12734954105912
sg89
F-12.12734954105912
sg756
F-11.12734954105912
sg757
F-11.12734954105912
sg758
F-11.12734954105912
sg119
F-12.12734954105912
sg760
F-10.542387040337964
sg761
F-12.12734954105912
sg762
F-11.12734954105912
sg763
F-12.12734954105912
sg146
F-12.12734954105912
sg765
F-11.12734954105912
sg766
F-10.542387040337964
sg767
F-11.12734954105912
sg468
F-12.12734954105912
sg770
F-11.12734954105912
sg771
F-12.12734954105912
sg772
F-12.12734954105912
sg773
F-11.12734954105912
sg774
F-12.12734954105912
sg775
F-12.12734954105912
sg776
F-11.12734954105912
sg777
F-10.542387040337964
sS'2'
F-12.12734954105912
sg91
F-11.12734954105912
sg230
F-12.12734954105912
sg779
F-12.12734954105912
sg780
F-12.12734954105912
sg781
F-7.3199946190015153
sg782
F-10.542387040337964
sg783
F-11.12734954105912
sg784
F-11.12734954105912
sg786
F-11.12734954105912
sg787
F-11.12734954105912
sg788
F-10.12734954105912
sg789
F-11.12734954105912
sg790
F-11.12734954105912
sg300
F-12.12734954105912
sg792
F-11.12734954105912
sg793
F-12.12734954105912
sg794
F-11.12734954105912
sg795
F-11.12734954105912
sg796
F-12.12734954105912
sg1872
F-11.12734954105912
sg797
F-10.12734954105912
sg798
F-11.12734954105912
sg799
F-6.957424539616806
sg800
F-12.12734954105912
sg801
F-11.12734954105912
sg802
F-10.542387040337964
sg803
F-11.12734954105912
sg804
F-11.12734954105912
sg805
F-9.3199946190015162
sg806
F-9.8054214461717581
sg807
F-12.12734954105912
sg808
F-11.12734954105912
sg810
F-10.542387040337964
sg811
F-11.12734954105912
sg812
F-11.12734954105912
sg813
F-11.12734954105912
sg814
F-11.12734954105912
sg816
F-11.12734954105912
sg817
F-12.12734954105912
sg818
F-10.12734954105912
sg819
F-12.12734954105912
sg820
F-11.12734954105912
sg821
F-12.12734954105912
sg822
F-12.12734954105912
sg823
F-12.12734954105912
sg824
F-11.12734954105912
sg825
F-12.12734954105912
sg826
F-12.12734954105912
sg827
F-12.12734954105912
sg828
F-11.12734954105912
sg506
F-12.12734954105912
sg830
F-10.12734954105912
sg831
F-12.12734954105912
sg833
F-12.12734954105912
sg834
F-12.12734954105912
sg835
F-11.12734954105912
sg836
F-12.12734954105912
sg838
F-10.12734954105912
sg839
F-12.12734954105912
sg840
F-12.12734954105912
sg841
F-11.12734954105912
sg842
F-11.12734954105912
sg843
F-10.12734954105912
sg844
F-11.12734954105912
sg845
F-11.12734954105912
sg846
F-8.2204589454506003
sg847
F-12.12734954105912
sg848
F-10.542387040337964
sg849
F-12.12734954105912
sg850
F-12.12734954105912
sg1946
F-12.12734954105912
sg851
F-11.12734954105912
sg852
F-11.12734954105912
sg853
F-12.12734954105912
sg854
F-12.12734954105912
sg855
F-11.12734954105912
sg856
F-11.12734954105912
sg857
F-12.12734954105912
sg1881
F-12.12734954105912
sg859
F-12.12734954105912
sg504
F-12.12734954105912
sg861
F-10.542387040337964
sg862
F-11.12734954105912
sg863
F-12.12734954105912
sg892
F-12.12734954105912
sg865
F-11.12734954105912
sg866
F-12.12734954105912
sg867
F-11.12734954105912
sg868
F-11.12734954105912
sg869
F-12.12734954105912
sg870
F-10.12734954105912
sg871
F-12.12734954105912
sg872
F-10.12734954105912
sg873
F-12.12734954105912
sg874
F-12.12734954105912
sS'3'
F-11.12734954105912
sg875
F-12.12734954105912
sg876
F-11.12734954105912
sg877
F-12.12734954105912
sg878
F-12.12734954105912
sg879
F-12.12734954105912
sg880
F-12.12734954105912
sg881
F-10.542387040337964
sg882
F-12.12734954105912
sg883
F-11.12734954105912
sg884
F-12.12734954105912
sg111
F-12.12734954105912
sg886
F-10.12734954105912
sg887
F-12.12734954105912
sg888
F-12.12734954105912
sg890
F-12.12734954105912
sg891
F-8.6679179224218217
sg893
F-12.12734954105912
sg894
F-12.12734954105912
sg895
F-12.12734954105912
sg896
F-12.12734954105912
sg897
F-12.12734954105912
sg885
F-11.12734954105912
sg899
F-12.12734954105912
sg900
F-10.542387040337964
sg1013
F-11.12734954105912
sg902
F-11.12734954105912
sg903
F-12.12734954105912
sg1585
F-11.12734954105912
sg905
F-12.12734954105912
sg906
F-11.12734954105912
sg207
F-12.12734954105912
sg908
F-12.12734954105912
sg909
F-11.12734954105912
sg910
F-12.12734954105912
sg911
F-11.12734954105912
sg912
F-11.12734954105912
sg913
F-10.542387040337964
sg1125
F-10.12734954105912
sg764
F-12.12734954105912
sg916
F-12.12734954105912
sg917
F-12.12734954105912
sg918
F-11.12734954105912
sg1144
F-11.12734954105912
sg1889
F-11.12734954105912
sg921
F-12.12734954105912
sg1591
F-11.12734954105912
sg922
F-11.12734954105912
sg923
F-11.12734954105912
sg924
F-11.12734954105912
sg925
F-11.12734954105912
sg926
F-12.12734954105912
sg1250
F-9.8054214461717581
sg928
F-12.12734954105912
sg929
F-11.12734954105912
sg930
F-12.12734954105912
sg931
F-12.12734954105912
sg932
F-12.12734954105912
sg163
F-12.12734954105912
sg934
F-11.12734954105912
sg935
F-12.12734954105912
sg936
F-12.12734954105912
sg937
F-12.12734954105912
sg938
F-12.12734954105912
sg939
F-11.12734954105912
sg940
F-12.12734954105912
sg941
F-12.12734954105912
sg942
F-12.12734954105912
sg1214
F-11.12734954105912
sg943
F-10.12734954105912
sg944
F-11.12734954105912
sS'I'
F-6.1731532306722441
sg945
F-12.12734954105912
sg946
F-12.12734954105912
sg947
F-11.12734954105912
sg948
F-11.12734954105912
sg949
F-10.542387040337964
sg1592
F-12.12734954105912
sg951
F-12.12734954105912
sg952
F-11.12734954105912
sg953
F-11.12734954105912
sg954
F-11.12734954105912
sg955
F-12.12734954105912
sg1784
F-12.12734954105912
sg956
F-10.12734954105912
sg957
F-11.12734954105912
sg958
F-10.12734954105912
sg959
F-11.12734954105912
sg960
F-11.12734954105912
sg1381
F-12.12734954105912
sg962
F-11.12734954105912
sg963
F-11.12734954105912
sg964
F-11.12734954105912
sg965
F-11.12734954105912
sg966
F-11.12734954105912
sg967
F-12.12734954105912
sg968
F-11.12734954105912
sg969
F-12.12734954105912
sg970
F-11.12734954105912
sg971
F-12.12734954105912
sS'4'
F-11.12734954105912
sg972
F-11.12734954105912
sg973
F-12.12734954105912
sg974
F-11.12734954105912
sg1221
F-11.12734954105912
sg976
F-11.12734954105912
sg977
F-11.12734954105912
sg523
F-12.12734954105912
sg979
F-11.12734954105912
sg1897
F-12.12734954105912
sg981
F-11.12734954105912
sg1898
F-10.12734954105912
sg983
F-11.12734954105912
sg984
F-12.12734954105912
sg985
F-10.542387040337964
sS't'
F-11.12734954105912
sg1262
F-10.542387040337964
sg987
F-11.12734954105912
sg988
F-11.12734954105912
sg989
F-12.12734954105912
sg990
F-11.12734954105912
sg991
F-12.12734954105912
sg1716
F-11.12734954105912
sg992
F-11.12734954105912
sg993
F-12.12734954105912
sg994
F-11.12734954105912
sg995
F-11.12734954105912
sg996
F-12.12734954105912
sg999
F-12.12734954105912
sg1000
F-11.12734954105912
sg1001
F-11.12734954105912
sg1002
F-12.12734954105912
sg1003
F-11.12734954105912
sg1004
F-11.12734954105912
sg1005
F-11.12734954105912
sg1006
F-11.12734954105912
sg1007
F-11.12734954105912
sg1008
F-11.12734954105912
sg1009
F-7.957424539616806
sg1010
F-12.12734954105912
sg1011
F-12.12734954105912
sg1012
F-6.7697975364410361
sg901
F-11.12734954105912
sg1014
F-11.12734954105912
sg183
F-11.12734954105912
sg1016
F-9.8054214461717581
sg864
F-11.12734954105912
sg1017
F-10.542387040337964
sg1018
F-10.542387040337964
sg1019
F-12.12734954105912
sg1906
F-12.12734954105912
sg1269
F-11.12734954105912
sg1021
F-12.12734954105912
sg1022
F-12.12734954105912
sg1023
F-11.12734954105912
sg1024
F-9.1273495410591199
sg1025
F-8.8054214461717564
sg1026
F-11.12734954105912
sg1027
F-11.12734954105912
sg1028
F-11.12734954105912
sg1029
F-10.12734954105912
sg1030
F-12.12734954105912
sg1031
F-10.542387040337964
sg1032
F-10.12734954105912
sg1033
F-12.12734954105912
sg1034
F-12.12734954105912
sg1035
F-9.8054214461717581
sg1036
F-12.12734954105912
sg1037
F-11.12734954105912
sg1038
F-11.12734954105912
sg1039
F-12.12734954105912
sg1040
F-12.12734954105912
sg1041
F-11.12734954105912
sg1042
F-11.12734954105912
sg1043
F-11.12734954105912
sg1044
F-7.957424539616806
sg1045
F-11.12734954105912
sg1046
F-11.12734954105912
sg1047
F-11.12734954105912
sg1048
F-11.12734954105912
sg1049
F-12.12734954105912
sg755
F-10.542387040337964
sg1050
F-11.12734954105912
sg1051
F-11.12734954105912
sg1052
F-11.12734954105912
sg1053
F-11.12734954105912
sg1054
F-12.12734954105912
sg1055
F-11.12734954105912
sg1056
F-9.5423870403379638
sg1057
F-12.12734954105912
sg1058
F-9.5423870403379638
sg1059
F-12.12734954105912
sg1060
F-8.542387040337962
sg1061
F-11.12734954105912
sg1062
F-10.542387040337964
sg1063
F-12.12734954105912
sg1065
F-11.12734954105912
sg1066
F-12.12734954105912
sg1067
F-11.12734954105912
sg1068
F-11.12734954105912
sS'5'
F-11.12734954105912
sg1069
F-11.12734954105912
sg1070
F-11.12734954105912
sg1071
F-7.4834933512843946
sg1072
F-11.12734954105912
sg1609
F-12.12734954105912
sg1073
F-11.12734954105912
sg1074
F-11.12734954105912
sg1075
F-11.12734954105912
sg1076
F-12.12734954105912
sg1077
F-12.12734954105912
sg1078
F-12.12734954105912
sg1079
F-12.12734954105912
sg1080
F-10.542387040337964
sg1081
F-11.12734954105912
sg1082
F-12.12734954105912
sS'u'
F-11.12734954105912
sg1083
F-10.542387040337964
sg1084
F-11.12734954105912
sg1085
F-12.12734954105912
sg1086
F-8.4269098229180273
sg1087
F-10.542387040337964
sg1088
F-10.542387040337964
sg1089
F-12.12734954105912
sg1090
F-10.542387040337964
sg35
F-12.12734954105912
sg1092
F-12.12734954105912
sg1093
F-11.12734954105912
sg1094
F-11.12734954105912
sg1095
F-12.12734954105912
sg1096
F-12.12734954105912
sg1098
F-12.12734954105912
sg1099
F-11.12734954105912
sg1100
F-12.12734954105912
sg1101
F-6.127349541059119
sg1102
F-12.12734954105912
sg907
F-11.12734954105912
sg1103
F-12.12734954105912
sg1104
F-12.12734954105912
sg1914
F-10.542387040337964
sg1106
F-11.12734954105912
sg121
F-12.12734954105912
sg344
F-12.12734954105912
sg1110
F-12.12734954105912
sg1111
F-11.12734954105912
sg1112
F-12.12734954105912
sg1113
F-10.542387040337964
sg141
F-12.12734954105912
sg145
F-12.12734954105912
sg1116
F-12.12734954105912
sg768
F-12.12734954105912
sg1118
F-11.12734954105912
sg1119
F-12.12734954105912
sg1120
F-12.12734954105912
sg169
F-12.12734954105912
sg1122
F-11.12734954105912
sg1123
F-12.12734954105912
sg184
F-12.12734954105912
sg915
F-11.12734954105912
sg1126
F-12.12734954105912
sg1127
F-12.12734954105912
sg1128
F-12.12734954105912
sg1129
F-12.12734954105912
sg1130
F-12.12734954105912
sg1131
F-11.12734954105912
sg1132
F-12.12734954105912
sg245
F-12.12734954105912
sg1134
F-12.12734954105912
sg1135
F-8.6679179224218217
sg1136
F-12.12734954105912
sg1137
F-11.12734954105912
sg287
F-12.12734954105912
sg1139
F-12.12734954105912
sg1140
F-12.12734954105912
sg1141
F-11.12734954105912
sg1142
F-10.542387040337964
sg1143
F-12.12734954105912
sg919
F-11.12734954105912
sg1145
F-12.12734954105912
sg1146
F-11.12734954105912
sg1147
F-12.12734954105912
sg1148
F-12.12734954105912
sg1149
F-11.12734954105912
sg1150
F-11.12734954105912
sg1151
F-12.12734954105912
sg1152
F-10.542387040337964
sg1153
F-11.12734954105912
sg898
F-12.12734954105912
sg1154
F-12.12734954105912
sg1964
F-11.12734954105912
sg1155
F-12.12734954105912
sg1156
F-11.12734954105912
sg1157
F-11.12734954105912
sg1158
F-10.542387040337964
sg1159
F-11.12734954105912
sg1949
F-11.12734954105912
sg1160
F-12.12734954105912
sg1161
F-12.12734954105912
sg1163
F-11.12734954105912
sg1164
F-12.12734954105912
sg1165
F-12.12734954105912
sg1064
F-12.12734954105912
sg1167
F-11.12734954105912
sg1168
F-11.12734954105912
sg1296
F-11.12734954105912
sS'6'
F-12.12734954105912
sg1973
F-11.12734954105912
sg1170
F-12.12734954105912
sg1171
F-12.12734954105912
sg1172
F-11.12734954105912
sg1173
F-12.12734954105912
sg1174
F-12.12734954105912
sg533
F-12.12734954105912
sg541
F-10.12734954105912
sg1177
F-12.12734954105912
sg1178
F-11.12734954105912
sg1179
F-12.12734954105912
sg1180
F-11.12734954105912
sg1181
F-11.12734954105912
sg1182
F-11.12734954105912
sg1596
F-12.12734954105912
sg1184
F-11.12734954105912
sg1185
F-12.12734954105912
sg1186
F-11.12734954105912
sg1187
F-11.12734954105912
sg927
F-11.12734954105912
sg1188
F-12.12734954105912
sg1189
F-11.12734954105912
sg1190
F-11.12734954105912
sg1191
F-10.542387040337964
sg1192
F-11.12734954105912
sg1193
F-12.12734954105912
sg1194
F-11.12734954105912
sg1195
F-12.12734954105912
sg1197
F-12.12734954105912
sg1198
F-11.12734954105912
sg655
F-12.12734954105912
sS'!'
F-10.12734954105912
sg1202
F-12.12734954105912
sg1203
F-12.12734954105912
sg1204
F-12.12734954105912
sg1205
F-11.12734954105912
sg1206
F-11.12734954105912
sg1207
F-11.12734954105912
sg1208
F-11.12734954105912
sg1209
F-12.12734954105912
sg1210
F-11.12734954105912
sg1926
F-12.12734954105912
sg1212
F-12.12734954105912
sg1213
F-10.542387040337964
sg997
F-12.12734954105912
sg739
F-11.12734954105912
sg1216
F-11.12734954105912
sg1217
F-11.12734954105912
sg1218
F-12.12734954105912
sg1219
F-12.12734954105912
sS'a'
F-6.9178961754301698
sg1220
F-11.12734954105912
sg1222
F-12.12734954105912
sg1223
F-12.12734954105912
sg1224
F-11.12734954105912
sg1225
F-12.12734954105912
sg1226
F-11.12734954105912
sg1227
F-11.12734954105912
sg1228
F-9.8054214461717581
sg1229
F-12.12734954105912
sg1230
F-10.542387040337964
sg1231
F-12.12734954105912
sg1232
F-12.12734954105912
sg1233
F-8.6679179224218217
sg1234
F-12.12734954105912
sg1235
F-12.12734954105912
sg1236
F-11.12734954105912
sg1237
F-11.12734954105912
sg1238
F-9.8054214461717581
sg1239
F-11.12734954105912
sg1240
F-12.12734954105912
sg889
F-12.12734954105912
sg1858
F-12.12734954105912
sg1242
F-12.12734954105912
sg1243
F-12.12734954105912
sg1244
F-11.12734954105912
sg1245
F-12.12734954105912
sg1246
F-11.12734954105912
sg914
F-12.12734954105912
sg1248
F-12.12734954105912
sg1249
F-11.12734954105912
sg177
F-10.12734954105912
sg1251
F-10.542387040337964
sg1252
F-12.12734954105912
sg1253
F-12.12734954105912
sg1254
F-11.12734954105912
sg1933
F-11.12734954105912
sg1256
F-12.12734954105912
sg1257
F-12.12734954105912
sg1258
F-11.12734954105912
sg1259
F-11.12734954105912
sg1260
F-12.12734954105912
sg1261
F-11.12734954105912
sg986
F-11.12734954105912
sg1263
F-11.12734954105912
sg1264
F-11.12734954105912
sg1265
F-12.12734954105912
sg1266
F-11.12734954105912
sg1267
F-12.12734954105912
sg1268
F-11.12734954105912
sg1020
F-11.12734954105912
sg1270
F-10.12734954105912
sg1271
F-11.12734954105912
sg1272
F-11.12734954105912
sg1273
F-11.12734954105912
sg1274
F-11.12734954105912
sg1275
F-11.12734954105912
sg1276
F-9.8054214461717581
sg1277
F-12.12734954105912
sg1278
F-11.12734954105912
sg1279
F-11.12734954105912
sg1280
F-11.12734954105912
sg1281
F-12.12734954105912
sg1282
F-12.12734954105912
sg1283
F-11.12734954105912
sS'7'
F-11.12734954105912
sg1284
F-11.12734954105912
sg1285
F-10.542387040337964
sg1286
F-11.12734954105912
sg1320
F-10.12734954105912
sg1288
F-12.12734954105912
sg1289
F-11.12734954105912
sg1290
F-11.12734954105912
sg220
F-11.12734954105912
sg1292
F-12.12734954105912
sg1293
F-11.12734954105912
sg1294
F-11.12734954105912
sg1295
F-12.12734954105912
sg1169
F-12.12734954105912
sg1297
F-11.12734954105912
sg1298
F-10.542387040337964
sg1299
F-11.12734954105912
sg605
F-12.12734954105912
sg1301
F-11.12734954105912
sg1302
F-12.12734954105912
sg1303
F-12.12734954105912
sg1304
F-12.12734954105912
sg1305
F-12.12734954105912
sg1306
F-12.12734954105912
sg1307
F-11.12734954105912
sg1308
F-12.12734954105912
sg1309
F-11.12734954105912
sg1310
F-11.12734954105912
sg1311
F-10.12734954105912
sg1312
F-12.12734954105912
sg1943
F-11.12734954105912
sg1314
F-11.12734954105912
sg1315
F-11.12734954105912
sg1317
F-12.12734954105912
sg1318
F-11.12734954105912
sg1319
F-12.12734954105912
sg1287
F-12.12734954105912
sS'"'
F-12.12734954105912
sg1321
F-12.12734954105912
sg1322
F-11.12734954105912
sg1323
F-12.12734954105912
sg1324
F-11.12734954105912
sg1325
F-9.8054214461717581
sg1326
F-12.12734954105912
sg1327
F-12.12734954105912
sg1328
F-12.12734954105912
sg1329
F-12.12734954105912
sg1330
F-11.12734954105912
sg1331
F-12.12734954105912
sg1332
F-12.12734954105912
sg1333
F-10.542387040337964
sg1334
F-11.12734954105912
sg1335
F-12.12734954105912
sg1336
F-11.12734954105912
sg1337
F-10.542387040337964
sg1338
F-12.12734954105912
sg1339
F-11.12734954105912
sg1340
F-12.12734954105912
sg1341
F-11.12734954105912
sg1342
F-12.12734954105912
sg1343
F-11.12734954105912
sg1344
F-12.12734954105912
sg1345
F-12.12734954105912
sg1346
F-11.12734954105912
sg1347
F-12.12734954105912
sg1348
F-10.12734954105912
sg1638
F-11.12734954105912
sg1350
F-12.12734954105912
sg1351
F-11.12734954105912
sg1352
F-12.12734954105912
sg1353
F-12.12734954105912
sg1354
F-11.12734954105912
sg1355
F-10.542387040337964
sg1356
F-12.12734954105912
sg1357
F-11.12734954105912
sg1358
F-12.12734954105912
sg1359
F-11.12734954105912
sg1360
F-12.12734954105912
sg1361
F-12.12734954105912
sg1362
F-11.12734954105912
sg172
F-12.12734954105912
sg1364
F-11.12734954105912
sg1365
F-12.12734954105912
sg1366
F-12.12734954105912
sg1367
F-10.12734954105912
sg1368
F-12.12734954105912
sg1369
F-8.957424539616806
sg1370
F-11.12734954105912
sg1371
F-10.542387040337964
sg1372
F-11.12734954105912
sg1373
F-11.12734954105912
sg1374
F-12.12734954105912
sg234
F-12.12734954105912
sg1376
F-12.12734954105912
sg1377
F-12.12734954105912
sg1644
F-12.12734954105912
sg1379
F-12.12734954105912
sg1380
F-11.12734954105912
sg1383
F-11.12734954105912
sg1384
F-12.12734954105912
sg1385
F-11.12734954105912
sg1386
F-11.12734954105912
sg1387
F-11.12734954105912
sg1388
F-12.12734954105912
sS'b'
F-12.12734954105912
sg1389
F-10.12734954105912
sg1390
F-12.12734954105912
sg589
F-12.12734954105912
sg1392
F-11.12734954105912
sg1393
F-12.12734954105912
sg1394
F-11.12734954105912
sg1395
F-12.12734954105912
sg1396
F-12.12734954105912
sg1397
F-11.12734954105912
sg1398
F-12.12734954105912
sg1399
F-11.12734954105912
sg1400
F-12.12734954105912
sg1401
F-12.12734954105912
sg1402
F-9.8054214461717581
sg1403
F-11.12734954105912
sg1404
F-8.2204589454506003
sg1405
F-12.12734954105912
sg1406
F-12.12734954105912
sg1407
F-12.12734954105912
sg1408
F-12.12734954105912
sg1409
F-10.542387040337964
sg1410
F-12.12734954105912
sg1411
F-11.12734954105912
sg1412
F-11.12734954105912
sg1413
F-11.12734954105912
sg1414
F-12.12734954105912
sg1415
F-12.12734954105912
sg1416
F-11.12734954105912
sg1417
F-11.12734954105912
sg1418
F-12.12734954105912
sg1419
F-11.12734954105912
sg1420
F-12.12734954105912
sg1421
F-8.957424539616806
sg1422
F-11.12734954105912
sg1423
F-12.12734954105912
sg1424
F-10.12734954105912
sg1426
F-12.12734954105912
sg1427
F-11.12734954105912
sg1428
F-11.12734954105912
sg785
F-12.12734954105912
sg1430
F-12.12734954105912
sg1431
F-12.12734954105912
sg1967
F-12.12734954105912
sg1432
F-12.12734954105912
sg1433
F-11.12734954105912
sg1434
F-11.12734954105912
sg1435
F-12.12734954105912
sg1436
F-12.12734954105912
sg1437
F-11.12734954105912
sg1438
F-11.12734954105912
sg1439
F-12.12734954105912
sg1440
F-12.12734954105912
sg1441
F-11.12734954105912
sg1442
F-12.12734954105912
sg1443
F-11.12734954105912
sg1444
F-11.12734954105912
sg1445
F-11.12734954105912
sg1446
F-12.12734954105912
sg1447
F-12.12734954105912
sg1448
F-12.12734954105912
sg29
F-12.12734954105912
sg1450
F-12.12734954105912
sg1451
F-12.12734954105912
sg1452
F-12.12734954105912
sg1453
F-10.542387040337964
sg306
F-12.12734954105912
sg1455
F-12.12734954105912
sg1456
F-12.12734954105912
sg1457
F-12.12734954105912
sg1458
F-11.12734954105912
sg1459
F-12.12734954105912
sg1460
F-11.12734954105912
sg1461
F-11.12734954105912
sg1462
F-11.12734954105912
sg113
F-12.12734954105912
sg1464
F-12.12734954105912
sg1465
F-10.12734954105912
sg975
F-11.12734954105912
sg1467
F-11.12734954105912
sg1468
F-12.12734954105912
sg1469
F-11.12734954105912
sg1470
F-12.12734954105912
sg1471
F-10.12734954105912
sg608
F-11.12734954105912
sg1473
F-10.12734954105912
sg208
F-12.12734954105912
sg1475
F-11.12734954105912
sg1476
F-10.12734954105912
sg1477
F-12.12734954105912
sg1478
F-12.12734954105912
sg1479
F-11.12734954105912
sg1480
F-11.12734954105912
sg1481
F-10.542387040337964
sg1300
F-12.12734954105912
sg1482
F-12.12734954105912
sg1483
F-12.12734954105912
sg1484
F-11.12734954105912
sg252
F-12.12734954105912
sg256
F-12.12734954105912
sg1487
F-12.12734954105912
sg1670
F-10.542387040337964
sg1489
F-12.12734954105912
sg1490
F-12.12734954105912
sg1977
F-8.957424539616806
sg2081
F-12.12734954105912
sg1491
F-11.12734954105912
sg1492
F-12.12734954105912
sg1493
F-12.12734954105912
sg1494
F-12.12734954105912
sg1495
F-11.12734954105912
sg1496
F-11.12734954105912
sg1497
F-12.12734954105912
sg1498
F-12.12734954105912
sg1499
F-11.12734954105912
sg1500
F-11.12734954105912
sg1501
F-12.12734954105912
sg377
F-11.12734954105912
sg385
F-12.12734954105912
sg1504
F-11.12734954105912
sg1505
F-12.12734954105912
sg1506
F-12.12734954105912
sg395
F-12.12734954105912
sg1508
F-12.12734954105912
sg1509
F-10.12734954105912
sg1510
F-12.12734954105912
sg1511
F-11.12734954105912
sg1247
F-11.12734954105912
sg1512
F-12.12734954105912
sg1514
F-11.12734954105912
sg1515
F-12.12734954105912
sg1516
F-11.12734954105912
sg1517
F-12.12734954105912
sg1518
F-10.542387040337964
sg1363
F-10.542387040337964
sg1520
F-11.12734954105912
sg1521
F-11.12734954105912
sg1522
F-12.12734954105912
sg1523
F-12.12734954105912
sg1524
F-12.12734954105912
sg1525
F-12.12734954105912
sg1526
F-11.12734954105912
sg1527
F-12.12734954105912
sg1528
F-12.12734954105912
sg1529
F-12.12734954105912
sg1530
F-11.12734954105912
sg1531
F-12.12734954105912
sg1532
F-11.12734954105912
sg1533
F-8.0398866998087808
sg1534
F-11.12734954105912
sg1535
F-12.12734954105912
sg1536
F-10.542387040337964
sg1679
F-10.542387040337964
sS'O'
F-12.12734954105912
sg1538
F-12.12734954105912
sg1539
F-12.12734954105912
sg1680
F-11.12734954105912
sg1541
F-12.12734954105912
sg187
F-10.12734954105912
sg1543
F-12.12734954105912
sg1544
F-11.12734954105912
sg1545
F-12.12734954105912
sg1546
F-12.12734954105912
sg1547
F-12.12734954105912
sg1548
F-12.12734954105912
sg1549
F-11.12734954105912
sg1550
F-9.8054214461717581
sg485
F-10.12734954105912
sg1551
F-12.12734954105912
sg1553
F-10.12734954105912
sg1554
F-12.12734954105912
sg1555
F-12.12734954105912
sg1990
F-11.12734954105912
sg1557
F-11.12734954105912
sg1558
F-12.12734954105912
sg1559
F-11.12734954105912
sg1560
F-11.12734954105912
sg1561
F-10.542387040337964
sg1684
F-10.542387040337964
sg1563
F-12.12734954105912
sg1564
F-12.12734954105912
sg1565
F-11.12734954105912
sg769
F-11.12734954105912
sg1567
F-12.12734954105912
sg1568
F-12.12734954105912
sS':'
F-12.12734954105912
sg1569
F-11.12734954105912
sg1992
F-11.12734954105912
sg1571
F-12.12734954105912
sg1573
F-12.12734954105912
sg1574
F-12.12734954105912
sg1575
F-10.12734954105912
sg1576
F-12.12734954105912
sg1577
F-12.12734954105912
sg1578
F-11.12734954105912
sg1391
F-12.12734954105912
sg1580
F-7.8794220276155329
sg1581
F-12.12734954105912
sg1582
F-12.12734954105912
sg1583
F-12.12734954105912
sg1584
F-11.12734954105912
sg904
F-11.12734954105912
sg1586
F-11.12734954105912
sg1587
F-11.12734954105912
sg1588
F-11.12734954105912
sg1589
F-10.542387040337964
sg1590
F-12.12734954105912
sg367
F-12.12734954105912
sg950
F-12.12734954105912
sg1593
F-12.12734954105912
sg1594
F-11.12734954105912
sg1595
F-12.12734954105912
sg1597
F-11.12734954105912
sg1598
F-11.12734954105912
sg1599
F-11.12734954105912
sg1600
F-10.542387040337964
sg2001
F-12.12734954105912
sg1097
F-11.12734954105912
sg1603
F-12.12734954105912
sg1604
F-12.12734954105912
sg1605
F-12.12734954105912
sg1606
F-12.12734954105912
sg1607
F-12.12734954105912
sg1608
F-11.12734954105912
sg1375
F-10.542387040337964
sg1610
F-11.12734954105912
sg1611
F-12.12734954105912
sg1612
F-12.12734954105912
sg1613
F-12.12734954105912
sg1614
F-12.12734954105912
sg1615
F-11.12734954105912
sg1616
F-11.12734954105912
sg1617
F-12.12734954105912
sg1117
F-8.542387040337962
sg452
F-11.12734954105912
sg1619
F-12.12734954105912
sg1620
F-11.12734954105912
sg1621
F-12.12734954105912
sg1622
F-11.12734954105912
sg1183
F-11.12734954105912
sg667
F-10.542387040337964
sg1624
F-12.12734954105912
sg1625
F-12.12734954105912
sg1626
F-12.12734954105912
sg1627
F-11.12734954105912
sg1628
F-12.12734954105912
sg1629
F-11.12734954105912
sg1630
F-12.12734954105912
sg1631
F-11.12734954105912
sg1632
F-12.12734954105912
sg1633
F-12.12734954105912
sg1634
F-12.12734954105912
sg1635
F-11.12734954105912
sg1636
F-12.12734954105912
sg1637
F-11.12734954105912
sg1618
F-9.3199946190015162
sg1349
F-12.12734954105912
sg1639
F-11.12734954105912
sg1640
F-11.12734954105912
sg1641
F-11.12734954105912
sg1642
F-11.12734954105912
sg1643
F-12.12734954105912
sg1378
F-12.12734954105912
sg1645
F-10.542387040337964
sg1382
F-12.12734954105912
sg1647
F-11.12734954105912
sg1648
F-12.12734954105912
sg1649
F-12.12734954105912
sg1650
F-12.12734954105912
sg1651
F-11.12734954105912
sg1652
F-12.12734954105912
sg1653
F-11.12734954105912
sg1654
F-12.12734954105912
sg1655
F-11.12734954105912
sg1656
F-11.12734954105912
sg1657
F-11.12734954105912
sg1658
F-12.12734954105912
sg1659
F-12.12734954105912
sg1660
F-12.12734954105912
sg1661
F-12.12734954105912
sg1662
F-11.12734954105912
sg1663
F-11.12734954105912
sg1664
F-11.12734954105912
sg1665
F-11.12734954105912
sg1666
F-11.12734954105912
sg1667
F-11.12734954105912
sg1668
F-12.12734954105912
sg1669
F-12.12734954105912
sg1488
F-12.12734954105912
sg1671
F-12.12734954105912
sg1672
F-12.12734954105912
sg1673
F-12.12734954105912
sg1674
F-12.12734954105912
sg1675
F-12.12734954105912
sg1676
F-12.12734954105912
sg1677
F-11.12734954105912
sg1678
F-11.12734954105912
sg1537
F-11.12734954105912
sg1540
F-11.12734954105912
sg1681
F-12.12734954105912
sg1682
F-11.12734954105912
sg1683
F-10.542387040337964
sg1562
F-12.12734954105912
sg1685
F-11.12734954105912
sg1686
F-12.12734954105912
sg1687
F-12.12734954105912
sg2011
F-8.6679179224218217
sg1689
F-12.12734954105912
sg1690
F-12.12734954105912
sg1691
F-12.12734954105912
sg1692
F-11.12734954105912
sg1693
F-12.12734954105912
sg1694
F-12.12734954105912
sg1695
F-8.1273495410591199
sg1696
F-12.12734954105912
sg1697
F-8.542387040337962
sg1698
F-12.12734954105912
sg1708
F-12.12734954105912
sg200
F-11.12734954105912
sg1700
F-11.12734954105912
sg1701
F-11.12734954105912
sg1702
F-11.12734954105912
sg1703
F-12.12734954105912
sg1704
F-12.12734954105912
sg1705
F-12.12734954105912
sg1706
F-12.12734954105912
sg1707
F-12.12734954105912
sg1699
F-12.12734954105912
sg1709
F-10.542387040337964
sg1710
F-12.12734954105912
sg2012
F-12.12734954105912
sg1711
F-12.12734954105912
sg1712
F-11.12734954105912
sg1713
F-12.12734954105912
sg1714
F-11.12734954105912
sg1715
F-9.8054214461717581
sg1513
F-12.12734954105912
sg326
F-11.12734954105912
sg1717
F-12.12734954105912
sg1718
F-12.12734954105912
sg1719
F-12.12734954105912
sg1720
F-12.12734954105912
sg1721
F-12.12734954105912
sg1722
F-12.12734954105912
sg1723
F-12.12734954105912
sg1724
F-12.12734954105912
sg2045
F-11.12734954105912
sg1725
F-12.12734954105912
sg1726
F-11.12734954105912
sg1727
F-12.12734954105912
sg1728
F-12.12734954105912
sg1729
F-11.12734954105912
sg1730
F-11.12734954105912
sg1731
F-12.12734954105912
sg1732
F-12.12734954105912
sg2033
F-11.12734954105912
sg1733
F-12.12734954105912
sg1734
F-12.12734954105912
sg1735
F-12.12734954105912
sg1736
F-12.12734954105912
sg1737
F-12.12734954105912
sg1738
F-12.12734954105912
sg1739
F-12.12734954105912
sg1740
F-12.12734954105912
sg1741
F-12.12734954105912
sg1742
F-12.12734954105912
sg1743
F-11.12734954105912
sg815
F-12.12734954105912
sg1745
F-11.12734954105912
sg1746
F-11.12734954105912
sg1747
F-12.12734954105912
sg1748
F-11.12734954105912
sg1749
F-12.12734954105912
sg1750
F-12.12734954105912
sS'|'
F-12.12734954105912
sg2022
F-12.12734954105912
sg1752
F-11.12734954105912
sg1753
F-12.12734954105912
sg1754
F-11.12734954105912
sg1755
F-10.542387040337964
sg1756
F-11.12734954105912
sg1757
F-8.542387040337962
sg1758
F-12.12734954105912
sg1759
F-12.12734954105912
sg1760
F-11.12734954105912
sg1761
F-11.12734954105912
sg1762
F-11.12734954105912
sg1763
F-12.12734954105912
sg1764
F-9.8054214461717581
sg1765
F-12.12734954105912
sg1766
F-12.12734954105912
sg1767
F-9.8054214461717581
sg1768
F-12.12734954105912
sg1769
F-11.12734954105912
sg1770
F-11.12734954105912
sg1771
F-11.12734954105912
sg108
F-10.542387040337964
sg116
F-11.12734954105912
sg1774
F-11.12734954105912
sg1775
F-12.12734954105912
sg1776
F-12.12734954105912
sg2029
F-12.12734954105912
sg1777
F-12.12734954105912
sg1778
F-12.12734954105912
sg1779
F-11.12734954105912
sg1780
F-10.542387040337964
sg1781
F-11.12734954105912
sg2031
F-12.12734954105912
sg197
F-10.12734954105912
sg1566
F-12.12734954105912
sg1785
F-12.12734954105912
sg1786
F-12.12734954105912
sg1787
F-12.12734954105912
sg1788
F-11.12734954105912
sg1789
F-10.12734954105912
sg1790
F-11.12734954105912
sg1791
F-11.12734954105912
sg1792
F-11.12734954105912
sg263
F-12.12734954105912
sg1794
F-11.12734954105912
sg271
F-11.12734954105912
sg1796
F-12.12734954105912
sg1797
F-12.12734954105912
sg1798
F-12.12734954105912
sg298
F-12.12734954105912
sg2037
F-11.12734954105912
sg1801
F-11.12734954105912
sg1802
F-12.12734954105912
sg1803
F-12.12734954105912
sg1804
F-11.12734954105912
sg1805
F-12.12734954105912
sg1806
F-11.12734954105912
sg1807
F-12.12734954105912
sg1808
F-12.12734954105912
sg1809
F-12.12734954105912
sg1810
F-10.12734954105912
sg1811
F-12.12734954105912
sg1812
F-8.6679179224218217
sg1813
F-9.3199946190015162
sg759
F-10.542387040337964
sg1814
F-12.12734954105912
sg1815
F-12.12734954105912
sg1816
F-11.12734954105912
sg1817
F-11.12734954105912
sg1818
F-11.12734954105912
sg409
F-12.12734954105912
sg1820
F-12.12734954105912
sS'='
F-12.12734954105912
sg1821
F-12.12734954105912
sg1822
F-12.12734954105912
sg1823
F-12.12734954105912
sg1824
F-9.3199946190015162
sg832
F-12.12734954105912
sg490
F-12.12734954105912
sg1827
F-12.12734954105912
sg1828
F-12.12734954105912
sg1829
F-12.12734954105912
sg1830
F-11.12734954105912
sg1831
F-11.12734954105912
sg1832
F-11.12734954105912
sg1833
F-11.12734954105912
sg1834
F-12.12734954105912
sg1835
F-11.12734954105912
sg1836
F-11.12734954105912
sg1837
F-11.12734954105912
sg1838
F-11.12734954105912
sg1839
F-11.12734954105912
sg1840
F-11.12734954105912
sg1841
F-12.12734954105912
sg1842
F-12.12734954105912
sg1843
F-8.4269098229180273
sg1844
F-12.12734954105912
sg1845
F-11.12734954105912
sg1847
F-10.12734954105912
sg1848
F-12.12734954105912
sg1849
F-12.12734954105912
sg1850
F-12.12734954105912
sg1851
F-12.12734954105912
sg1852
F-12.12734954105912
sg1853
F-11.12734954105912
sg1854
F-11.12734954105912
sg1855
F-12.12734954105912
sg1856
F-12.12734954105912
sg1857
F-12.12734954105912
sg1196
F-12.12734954105912
sg1859
F-12.12734954105912
sg1860
F-12.12734954105912
sg1861
F-12.12734954105912
sg1862
F-12.12734954105912
sg1863
F-12.12734954105912
sg707
F-11.12734954105912
sg1865
F-12.12734954105912
sg1866
F-12.12734954105912
sg1867
F-11.12734954105912
sg1868
F-10.542387040337964
sg1869
F-10.12734954105912
sg1870
F-12.12734954105912
sg1871
F-11.12734954105912
sg1552
F-11.12734954105912
sg1873
F-11.12734954105912
sg1874
F-12.12734954105912
sg1875
F-11.12734954105912
sg1542
F-11.12734954105912
sg1876
F-12.12734954105912
sg1877
F-12.12734954105912
sg1878
F-11.12734954105912
sg1879
F-11.12734954105912
sg1880
F-12.12734954105912
sg858
F-12.12734954105912
sg1882
F-11.12734954105912
sg1883
F-9.5423870403379638
sg1884
F-12.12734954105912
sg1885
F-12.12734954105912
sg1886
F-11.12734954105912
sg1887
F-12.12734954105912
sg1888
F-12.12734954105912
sg920
F-12.12734954105912
sg1890
F-12.12734954105912
sg331
F-12.12734954105912
sg1891
F-11.12734954105912
sg1892
F-12.12734954105912
sg1893
F-12.12734954105912
sg1894
F-11.12734954105912
sg1895
F-12.12734954105912
sg1896
F-12.12734954105912
sg980
F-12.12734954105912
sg982
F-11.12734954105912
sg1899
F-11.12734954105912
sg1900
F-12.12734954105912
sg1901
F-12.12734954105912
sg1902
F-12.12734954105912
sg1903
F-11.12734954105912
sg1904
F-11.12734954105912
sg1905
F-9.8054214461717581
sg701
F-12.12734954105912
sg257
F-12.12734954105912
sg1908
F-11.12734954105912
sg1909
F-12.12734954105912
sg1910
F-11.12734954105912
sg1911
F-12.12734954105912
sg1912
F-11.12734954105912
sg1913
F-12.12734954105912
sg1105
F-12.12734954105912
sg1915
F-9.8054214461717581
sg1916
F-11.12734954105912
sg1917
F-12.12734954105912
sg1918
F-10.12734954105912
sg1919
F-12.12734954105912
sg1920
F-12.12734954105912
sg1921
F-11.12734954105912
sg998
F-11.12734954105912
sg1923
F-12.12734954105912
sg1924
F-11.12734954105912
sg1925
F-9.8054214461717581
sg1211
F-10.542387040337964
sg1927
F-12.12734954105912
sg1928
F-11.12734954105912
sg1929
F-11.12734954105912
sg1241
F-12.12734954105912
sg1931
F-12.12734954105912
sg1932
F-12.12734954105912
sg1255
F-12.12734954105912
sg1934
F-10.542387040337964
sg1935
F-10.12734954105912
sg1936
F-11.12734954105912
sg1937
F-10.542387040337964
sg1938
F-11.12734954105912
sg1939
F-12.12734954105912
sg1940
F-11.12734954105912
sg1941
F-12.12734954105912
sg1942
F-10.12734954105912
sg1313
F-11.12734954105912
sg1944
F-11.12734954105912
sg1945
F-10.542387040337964
sS'i'
F-8.2204589454506003
sg1200
F-12.12734954105912
sg1947
F-12.12734954105912
sg1948
F-11.12734954105912
sg837
F-11.12734954105912
sg1950
F-12.12734954105912
sg1951
F-11.12734954105912
sg1952
F-12.12734954105912
sg2076
F-12.12734954105912
sg1953
F-12.12734954105912
sg1954
F-12.12734954105912
sg1955
F-11.12734954105912
sg1956
F-12.12734954105912
sg1957
F-11.12734954105912
sg1958
F-12.12734954105912
sg1959
F-12.12734954105912
sg1960
F-11.12734954105912
sg1961
F-11.12734954105912
sg1962
F-12.12734954105912
sg1963
F-11.12734954105912
sg1425
F-12.12734954105912
sg1965
F-12.12734954105912
sg1966
F-11.12734954105912
sg1744
F-8.957424539616806
sg2066
F-10.542387040337964
sg1969
F-11.12734954105912
sg1970
F-12.12734954105912
sg1971
F-12.12734954105912
sg1972
F-12.12734954105912
sg1454
F-11.12734954105912
sg456
F-11.12734954105912
sg1974
F-12.12734954105912
sg1975
F-11.12734954105912
sg1976
F-12.12734954105912
sg1429
F-11.12734954105912
sg1978
F-11.12734954105912
sg1979
F-11.12734954105912
sg1980
F-12.12734954105912
sg1981
F-8.542387040337962
sg1982
F-10.12734954105912
sg432
F-12.12734954105912
sg1984
F-12.12734954105912
sg1985
F-12.12734954105912
sg1986
F-11.12734954105912
sg1987
F-11.12734954105912
sg1988
F-12.12734954105912
sg1989
F-11.12734954105912
sg1556
F-10.542387040337964
sg1991
F-12.12734954105912
sg1570
F-11.12734954105912
sg1993
F-12.12734954105912
sg1994
F-12.12734954105912
sg1995
F-11.12734954105912
sg1996
F-12.12734954105912
sg1997
F-10.542387040337964
sg1998
F-11.12734954105912
sg1999
F-11.12734954105912
sg2000
F-12.12734954105912
sg1601
F-12.12734954105912
sg2002
F-12.12734954105912
sg2003
F-12.12734954105912
sg2004
F-12.12734954105912
sg2005
F-11.12734954105912
sg2006
F-12.12734954105912
sS'?'
F-12.12734954105912
sg2008
F-12.12734954105912
sg2009
F-12.12734954105912
sg2073
F-10.542387040337964
sg2010
F-11.12734954105912
sg1688
F-11.12734954105912
sg614
F-12.12734954105912
sg2013
F-12.12734954105912
sg2014
F-11.12734954105912
sg2015
F-12.12734954105912
sg2016
F-11.12734954105912
sg2017
F-12.12734954105912
sg2018
F-11.12734954105912
sg2019
F-12.12734954105912
sg2020
F-12.12734954105912
sg2021
F-11.12734954105912
sg1751
F-12.12734954105912
sg2075
F-11.12734954105912
sg2023
F-12.12734954105912
sg2024
F-12.12734954105912
sg2026
F-11.12734954105912
sg2027
F-11.12734954105912
sg2028
F-12.12734954105912
sg2007
F-12.12734954105912
sg2030
F-12.12734954105912
sg1782
F-12.12734954105912
sg2032
F-12.12734954105912
sg1846
F-12.12734954105912
sg2034
F-12.12734954105912
sg2035
F-11.12734954105912
sg2036
F-11.12734954105912
sg1800
F-12.12734954105912
sg1472
F-12.12734954105912
sg2038
F-12.12734954105912
sg2039
F-12.12734954105912
sg2040
F-11.12734954105912
sg2041
F-8.8054214461717564
sg2042
F-12.12734954105912
sg2043
F-11.12734954105912
sg2044
F-11.12734954105912
sg809
F-12.12734954105912
sg2046
F-12.12734954105912
sg2047
F-10.12734954105912
sg2048
F-12.12734954105912
sg2049
F-12.12734954105912
sg2050
F-10.542387040337964
sg2051
F-11.12734954105912
sg2052
F-11.12734954105912
sg2053
F-11.12734954105912
sg2054
F-12.12734954105912
sg2055
F-11.12734954105912
sg2057
F-11.12734954105912
sg2058
F-12.12734954105912
sg2059
F-12.12734954105912
sg2060
F-12.12734954105912
sg2061
F-11.12734954105912
sg2062
F-12.12734954105912
sg2063
F-11.12734954105912
sg2064
F-11.12734954105912
sg2065
F-12.12734954105912
sg1968
F-10.12734954105912
sg2067
F-11.12734954105912
sg2068
F-11.12734954105912
sg2069
F-11.12734954105912
sg2070
F-12.12734954105912
sg2071
F-11.12734954105912
sg2072
F-11.12734954105912
sg1572
F-12.12734954105912
sg2074
F-12.12734954105912
sS'U'
F-12.12734954105912
sg1316
F-12.12734954105912
sg2025
F-12.12734954105912
sg2077
F-12.12734954105912
sg2078
F-12.12734954105912
sg2079
F-12.12734954105912
sg2080
F-12.12734954105912
sg2056
F-12.12734954105912
sg2082
F-12.12734954105912
sg2083
F-11.12734954105912
sg2084
F-10.542387040337964
sg2085
F-11.12734954105912
ssg2093
I190
sg2094
(dp2444
g1086
I12
sg5
I1
sg1087
I2
sg1088
I2
sg1090
I2
sg1091
I1
sg9
I1
sg1093
I1
sg1094
I1
sg12
I8
sg13
I3
sg14
I1
sg1099
I1
sg15
I2
sg16
I1
sg17
I2
sg18
I2
sg1101
I63
sg19
I1
sg1106
I1
sg1108
I1
sg913
I2
sg557
I17
sg1113
I2
sg22
I3
sg24
I1
sg26
I1
sg1117
I11
sg1118
I1
sg31
I2
sg1121
I1
sg1122
I1
sg1124
I1
sg1125
I3
sg36
I1
sg37
I1
sg38
I1
sg40
I1
sg42
I1
sg43
I3
sg1131
I1
sg48
I1
sg1133
I1
sg49
I1
sg50
I1
sg51
I4
sg1135
I10
sg52
I1
sg53
I1
sg1137
I1
sg1138
I1
sg57
I1
sg58
I1
sg60
I3
sg61
I2
sg64
I5
sg66
I3
sg1142
I2
sg1144
I1
sg1146
I1
sg71
I2
sg1149
I1
sg72
I1
sg1150
I1
sg1532
I1
sg1152
I2
sg1153
I1
sg79
I1
sg80
I1
sg1156
I1
sg82
I1
sg1157
I1
sg1158
I2
sg1159
I1
sg1163
I1
sg85
I7
sg1375
I2
sg86
I1
sg1166
I1
sg1167
I1
sg1168
I1
sg88
I1
sg1769
I1
sg90
I1
sg91
I1
sg1172
I1
sg756
I1
sg379
I20
sg95
I2
sg1175
I1
sg1176
I3
sg1178
I1
sg98
I1
sg99
I2
sg1180
I1
sg1181
I1
sg1182
I1
sg1183
I1
sg1184
I1
sg102
I4
sg1186
I1
sg105
I1
sg1924
I1
sg1189
I1
sg1190
I1
sg1268
I1
sg107
I21
sg1191
I2
sg1192
I1
sg1194
I1
sg109
I4
sg112
I1
sg114
I3
sg115
I1
sg1199
I1
sg1201
I1
sg118
I1
sg1205
I1
sg1206
I1
sg1774
I1
sg1207
I1
sg120
I1
sg1208
I1
sg123
I8
sg1210
I1
sg125
I1
sg127
I1
sg1213
I2
sg1214
I1
sg1215
I1
sg129
I1
sg131
I2
sg1216
I1
sg1217
I1
sS'a'
I36
sg1220
I1
sg1111
I1
sg1221
I1
sg136
I1
sg1224
I1
sg139
I1
sg1114
I1
sg1226
I1
sg1227
I1
sg1228
I4
sg1230
I2
sg1115
I2
sg1233
I10
sg147
I7
sg852
I1
sg1236
I1
sg1237
I1
sg1238
I4
sg1239
I1
sg155
I2
sg156
I1
sg1244
I1
sg1311
I3
sg1246
I1
sg1247
I1
sg160
I1
sg161
I6
sg162
I3
sg1250
I4
sg1251
I2
sg164
I1
sg1254
I1
sg949
I2
sg168
I12
sg170
I1
sg1258
I1
sg1259
I1
sg1261
I1
sg1262
I2
sg1263
I1
sg1264
I1
sg1266
I1
sg1314
I1
sg179
I1
sg180
I2
sg182
I1
sg183
I1
sg1269
I1
sg1270
I3
sg1271
I1
sg1272
I1
sg185
I1
sg1273
I1
sg944
I1
sg1274
I1
sg1275
I1
sg1276
I4
sg187
I3
sg1278
I1
sg1279
I1
sg189
I1
sg191
I1
sg1280
I1
sg1283
I1
sS'7'
I1
sg194
I4
sg1284
I1
sg1285
I2
sg1286
I1
sg1783
I1
sg1289
I1
sg1290
I1
sg1293
I1
sg1294
I1
sg200
I1
sg1296
I1
sg1297
I1
sg1298
I2
sg1299
I1
sg203
I1
sg1301
I1
sg205
I3
sg209
I2
sg1307
I1
sg1309
I1
sg210
I3
sg1310
I1
sg212
I1
sg213
I1
sg1313
I1
sg215
I1
sg1315
I1
sg1318
I1
sg218
I1
sg219
I2
sg1320
I3
sg220
I1
sg1322
I1
sg224
I1
sg1324
I1
sg1325
I4
sg227
I2
sg1330
I1
sg1333
I2
sg1334
I1
sg8
I1
sg1336
I1
sg1337
I2
sg232
I1
sg233
I1
sg1339
I1
sg237
I2
sg1341
I1
sg1343
I1
sg241
I1
sg1346
I1
sg246
I1
sg1348
I3
sg247
I1
sg248
I1
sg1351
I1
sg250
I1
sg1354
I1
sg1355
I2
sg1806
I1
sg1608
I1
sg1357
I1
sS'-'
I1
sg258
I1
sg259
I1
sg260
I5
sg1359
I1
sg1362
I1
sg262
I1
sg1363
I2
sg264
I1
sg1364
I1
sg581
I1
sg1367
I3
sg1369
I8
sg270
I1
sg271
I1
sg1370
I1
sg272
I2
sg1371
I2
sg1372
I1
sg1373
I1
sg278
I1
sg279
I1
sg280
I1
sg281
I1
sg282
I1
sg1380
I1
sg288
I1
sg1383
I1
sg291
I1
sg292
I1
sg1385
I1
sg293
I1
sg294
I7
sg1386
I1
sg1387
I1
sg790
I1
sg299
I2
sg302
I1
sg303
I1
sg1389
I3
sg1392
I1
sg1394
I1
sg308
I1
sg309
I2
sg1397
I1
sg311
I1
sg1399
I1
sg312
I1
sg313
I1
sg314
I1
sg315
I1
sg1402
I4
sg1403
I1
sg1404
I14
sg317
I2
sg318
I1
sg1409
I2
sg321
I1
sg1411
I1
sg1412
I1
sg1413
I1
sg325
I8
sg326
I1
sg327
I1
sg328
I1
sg1416
I1
sg329
I1
sg923
I1
sg1141
I1
sg332
I1
sg334
I1
sg1417
I1
sg335
I1
sg336
I1
sg1419
I1
sg1421
I8
sg337
I1
sg338
I1
sg340
I1
sg341
I1
sg1422
I1
sg1424
I3
sg342
I1
sg1427
I1
sg1428
I1
sg741
I1
sg1429
I1
sg346
I1
sg349
I1
sg351
I1
sg352
I1
sg1662
I1
sg353
I1
sg1434
I1
sg354
I1
sg1437
I1
sg1438
I1
sg360
I2
sg361
I1
sg1441
I1
sg363
I1
sg1653
I1
sg604
I1
sg1443
I1
sg1444
I1
sg1445
I1
sg6
I1
sg365
I1
sg1453
I2
sg1454
I1
sg1458
I1
sg375
I1
sg1460
I1
sg378
I28
sg1461
I1
sg1462
I1
sg381
I1
sg383
I1
sg384
I21
sg1463
I1
sg386
I1
sg387
I1
sg388
I1
sg389
I1
sg1465
I3
sg391
I4
sg392
I1
sg394
I1
sg1466
I4
sg1467
I1
sg1469
I1
sg397
I1
sg1471
I3
sg75
I1
sg253
I1
sg401
I1
sg1473
I3
sg1475
I1
sg976
I1
sg1479
I1
sg1480
I1
sg1481
I2
sg1484
I1
sg1485
I1
sg408
I1
sg1486
I3
sg410
I1
sg269
I92
sg415
I1
sg418
I12
sg421
I1
sg1491
I1
sg981
I1
sg422
I1
sg1495
I1
sg424
I3
sg1496
I1
sg425
I1
sg426
I1
sg427
I1
sg1500
I1
sg429
I1
sg377
I1
sg1503
I1
sg1504
I1
sg431
I1
sg1509
I3
sg1511
I1
sg434
I2
sg435
I1
sg437
I3
sg1514
I1
sg440
I1
sg441
I3
sg444
I3
sg446
I2
sg447
I13
sg448
I1
sg1518
I2
sg1519
I1
sg450
I1
sg1520
I1
sg451
I1
sg1521
I1
sg452
I1
sg454
I1
sg455
I15
sg1526
I1
sg456
I1
sg552
I1
sg460
I1
sg461
I1
sg462
I1
sg463
I1
sg1530
I1
sg564
I1
sg466
I1
sg1533
I16
sg1534
I1
sg1536
I2
sg467
I1
sg1986
I1
sg1537
I1
sg469
I2
sg1540
I1
sg470
I1
sg1542
I1
sg1544
I1
sg1549
I1
sg475
I1
sg1550
I4
sg478
I1
sg479
I1
sg1552
I1
sg481
I1
sg1553
I3
sg177
I3
sg485
I3
sg486
I1
sg1556
I2
sg1557
I1
sg487
I1
sg1683
I2
sg488
I1
sg1559
I1
sg1560
I1
sg1561
I2
sg1565
I1
sg769
I1
sg491
I1
sg492
I4
sg1516
I1
sg493
I1
sg494
I2
sg1569
I1
sg1570
I1
sg497
I2
sg1575
I3
sg501
I1
sg1578
I1
sg1580
I18
sg505
I1
sg1584
I1
sg1585
I1
sg1586
I1
sg1587
I1
sg1588
I1
sg1589
I2
sg1591
I1
sg510
I1
sg511
I1
sg512
I6
sg513
I1
sg514
I1
sg516
I1
sg517
I8
sg518
I2
sg519
I1
sg520
I1
sg521
I1
sg1594
I1
sg1597
I1
sg524
I1
sg1598
I1
sg1599
I1
sg526
I1
sg527
I1
sg1600
I2
sg1097
I1
sg529
I1
sg94
I1
sg531
I1
sg1999
I1
sg532
I1
sg534
I1
sg632
I1
sg537
I1
sg1610
I1
sg539
I7
sg541
I3
sg1615
I1
sg544
I4
sg545
I1
sg1616
I1
sg546
I1
sg1618
I6
sg1499
I1
sg550
I1
sg1843
I12
sg1620
I1
sg554
I1
sS'0'
I1
sg555
I1
sg1622
I1
sg1623
I2
sg197
I3
sg100
I1
sg108
I2
sg559
I1
sg101
I1
sg563
I1
sg565
I1
sg566
I4
sg1627
I1
sg1629
I1
sg570
I1
sg1631
I1
sg575
I1
sg576
I1
sg577
I1
sg1635
I1
sg578
I1
sg1640
I1
sg1637
I1
sg579
I1
sg1638
I1
sg1639
I1
sg580
I1
sg1187
I1
sg1641
I1
sg582
I1
sg1645
I2
sg1647
I1
sg1651
I1
sg590
I2
sg592
I1
sg1655
I1
sg1656
I1
sg1657
I1
sg597
I2
sg598
I1
sg599
I1
sg600
I1
sg602
I1
sg1663
I1
sg1664
I1
sg1665
I1
sg1666
I1
sg1667
I1
sg607
I1
sg608
I1
sg1670
I2
sg1701
I1
sg611
I2
sg613
I3
sg615
I4
sg1677
I1
sg1678
I1
sg1679
I2
sg1680
I1
sg618
I1
sg842
I1
sg1682
I1
sg620
I1
sg1684
I2
sg624
I1
sg1685
I1
sg629
I3
sg1688
I1
sg630
I1
sg631
I1
sg1692
I1
sg633
I1
sg1695
I15
sg636
I1
sg1697
I11
sg638
I1
sg639
I5
sg640
I1
sg1700
I1
sg642
I1
sg643
I1
sg1702
I1
sg1198
I1
sg645
I1
sg647
I5
sg648
I3
sg1709
I2
sg649
I1
sg654
I1
sg846
I14
sg658
I1
sg1712
I1
sg659
I4
sg1714
I1
sS'!'
I3
sg661
I1
sg1715
I4
sg1716
I1
sg663
I1
sg665
I1
sg667
I2
sg668
I1
sg672
I1
sg673
I1
sg678
I10
sg679
I2
sg680
I1
sg681
I1
sg682
I1
sg683
I1
sg1726
I1
sg685
I1
sg686
I1
sg687
I1
sg688
I1
sg1729
I1
sg690
I1
sg691
I2
sg1730
I1
sg692
I1
sg696
I1
sg480
I1
sg698
I1
sg699
I1
sg704
I1
sg706
I1
sg707
I1
sg711
I1
sg712
I4
sg1743
I1
sg714
I19
sg715
I8
sg716
I1
sg1745
I1
sg717
I1
sg1746
I1
sg719
I1
sg1748
I1
sg723
I1
sg726
I1
sg1752
I1
sg728
I1
sg729
I1
sg1754
I1
sg731
I1
sg1755
I2
sg735
I1
sg1756
I1
sg1757
I11
sg738
I2
sg739
I1
sg740
I1
sg1760
I1
sg742
I1
sg743
I1
sg744
I1
sg1868
I2
sg1761
I1
sg1762
I1
sg748
I1
sg1764
I4
sg751
I1
sg1767
I4
sg754
I1
sg755
I2
sg1770
I1
sg1771
I1
sg757
I1
sg1772
I1
sg758
I1
sg116
I1
sg759
I2
sg760
I2
sg762
I1
sg765
I1
sg766
I2
sg1779
I1
sg767
I1
sg1780
I2
sg770
I1
sg1781
I1
sg773
I1
sg776
I1
sg1788
I1
sg777
I2
sg1789
I3
sg1790
I1
sg1791
I1
sg1792
I1
sg1507
I2
sg781
I27
sg782
I2
sg783
I1
sg1794
I1
sg1795
I1
sg784
I1
sg786
I1
sg787
I1
sg788
I3
sg789
I1
sg1799
I1
sg791
I1
sg792
I1
sg794
I1
sg495
I8
sg795
I1
sg1801
I1
sg797
I3
sg1804
I1
sg798
I1
sg799
I35
sg801
I1
sg802
I2
sg803
I1
sg804
I1
sg1810
I3
sg805
I6
sg1812
I10
sg1813
I6
sg806
I4
sg1816
I1
sg1817
I1
sg808
I1
sg1818
I1
sg1819
I1
sg810
I2
sg811
I1
sg812
I1
sg813
I1
sg814
I1
sg816
I1
sg818
I3
sg820
I1
sg1824
I6
sg824
I1
sg2041
I9
sg1826
I3
sg828
I1
sg829
I2
sg830
I3
sg1830
I1
sg1831
I1
sg1832
I1
sg1833
I1
sg1835
I1
sg1836
I1
sg1957
I1
sg835
I1
sg1837
I1
sg1838
I1
sg1839
I1
sg1840
I1
sg837
I1
sg522
I1
sg838
I3
sg1043
I1
sg1845
I1
sg841
I1
sg1847
I3
sg556
I3
sg843
I3
sg844
I1
sg1853
I1
sg845
I1
sg1854
I1
sg2061
I1
sg2050
I2
sg848
I2
sg1864
I1
sg851
I1
sg148
I1
sg855
I1
sg856
I1
sg1869
I3
sg860
I1
sg861
I2
sg862
I1
sg864
I1
sg865
I1
sg1871
I1
sg1872
I1
sg1873
I1
sg867
I1
sg868
I1
sg1875
I1
sg870
I3
sg872
I3
sg151
I1
sS'3'
I1
sg1878
I1
sg876
I1
sg1879
I1
sg1882
I1
sg1883
I5
sg881
I2
sg883
I1
sg1886
I1
sg885
I1
sg886
I3
sg1889
I1
sg1020
I1
sg891
I10
sg1891
I1
sg1894
I1
sg1898
I3
sg1899
I1
sg1903
I1
sg1904
I1
sg900
I2
sg901
I1
sg1905
I4
sg902
I1
sg904
I1
sg1908
I1
sg906
I1
sg907
I1
sg909
I1
sg1910
I1
sg1912
I1
sg911
I1
sg912
I1
sg1914
I2
sg1915
I4
sg1916
I1
sg915
I1
sg1918
I3
sg918
I1
sg919
I1
sg1921
I1
sg1922
I1
sg922
I1
sg1249
I1
sg924
I1
sg925
I1
sg927
I1
sg929
I1
sg1925
I4
sg1211
I2
sg934
I1
sg1928
I1
sg1929
I1
sg939
I1
sg1930
I1
sg1933
I1
sg1934
I2
sg1935
I3
sg1936
I1
sg943
I3
sg1937
I2
sg1938
I1
sS'I'
I61
sg1940
I1
sg1942
I3
sg1943
I1
sg947
I1
sg1944
I1
sg1945
I2
sS'i'
I14
sg948
I1
sg166
I1
sg1948
I1
sg1949
I1
sg952
I1
sg953
I1
sg1951
I1
sg954
I1
sg956
I3
sg957
I1
sg958
I3
sg959
I1
sg960
I1
sg961
I1
sg1955
I1
sg962
I1
sg963
I1
sg713
I1
sg964
I1
sg965
I1
sg1960
I1
sg1961
I1
sg966
I1
sg968
I1
sg1963
I1
sg1964
I1
sg1966
I1
sg1744
I8
sg970
I1
sg1968
I3
sS'4'
I1
sg1969
I1
sg1973
I1
sg972
I1
sg974
I1
sg975
I1
sg1975
I1
sg977
I1
sg979
I1
sg1977
I8
sg1978
I1
sg1979
I1
sg982
I1
sg983
I1
sg1981
I11
sg1982
I3
sg1983
I1
sg985
I2
sS't'
I1
sg986
I1
sg1987
I1
sg987
I1
sg988
I1
sg1989
I1
sg1990
I1
sg990
I1
sg1992
I1
sg1995
I1
sg1867
I1
sg1997
I2
sg1998
I1
sg992
I1
sg1476
I3
sg994
I1
sg995
I1
sg2005
I1
sg998
I1
sg1000
I1
sg1001
I1
sg1642
I1
sg1003
I1
sg1004
I1
sg1005
I1
sg1006
I1
sg1007
I1
sg1008
I1
sg2010
I1
sg1009
I17
sg2011
I10
sg372
I1
sg1012
I40
sg1013
I1
sg1014
I1
sg2014
I1
sg1016
I4
sg1017
I2
sg2016
I1
sg1018
I2
sg2018
I1
sg1433
I1
sg2021
I1
sg1023
I1
sS'.'
I8
sg1024
I7
sg2026
I1
sg2027
I1
sg1025
I9
sg1026
I1
sg1027
I1
sg1028
I1
sg1029
I3
sg1031
I2
sg2033
I1
sg1032
I3
sg2035
I1
sg2036
I1
sg2037
I1
sg1035
I4
sg1037
I1
sg1038
I1
sg2040
I1
sg1041
I1
sg2043
I1
sg1042
I1
sg2044
I1
sg2045
I1
sg1044
I17
sg2047
I3
sg1045
I1
sg1046
I1
sg1047
I1
sg2051
I1
sg1048
I1
sg2052
I1
sg2053
I1
sg2055
I1
sg2057
I1
sg1050
I1
sg1051
I1
sg1052
I1
sg1053
I1
sg1055
I1
sg1056
I5
sg1058
I5
sg1060
I11
sg538
I1
sg1061
I1
sg1062
I2
sg1065
I1
sg2063
I1
sg2064
I1
sg1067
I1
sg1068
I1
sg2066
I2
sS'5'
I1
sg2067
I1
sg1069
I1
sg1070
I1
sg1071
I24
sg1072
I1
sg2068
I1
sg1073
I1
sg2069
I1
sg1074
I1
sg1075
I1
sg2071
I1
sg2072
I1
sg2073
I2
sg2075
I1
sg1080
I2
sg275
I2
sg1081
I1
sg1084
I1
sg2083
I1
sS'u'
I1
sg2084
I2
sg1083
I2
sg2085
I1
ssg2438
g2441
sg2439
F-1.2310442915893569
sg2440
I2365
sss.