(dp1
S'vocab'
p2
c__builtin__
set
p3
((lp4
S''
aS'raining'
p5
aS'ever.'
p6
aS'doubts'
p7
aS'dynasty'
p8
aS'@GurlsLoveCox'
p9
aS'EVERYONE'
p10
aS'sleep'
p11
aS'hanging'
p12
aS'#CantBeatTheHeat'
p13
aS'hate'
p14
aS'up.'
p15
aS'feeding'
p16
aS'tweet'
p17
aS'Watch'
p18
aS'contained'
p19
aS'up!'
p20
aS'under'
p21
aS'League'
p22
aS'Refreshing'
p23
aS'every'
p24
aS'gratification'
p25
aS'confetti'
p26
aS'today.'
p27
aS'LOL@psid412'
p28
aS'bringing'
p29
aS'monkeys'
p30
aS'mw3'
p31
aS'school'
p32
aS'bestfriend'
p33
aS'#ClearedMyMind'
p34
aS'"does'
p35
aS'solution'
p36
aS"Grey's"
p37
aS'Go'
p38
aS'Paul'
p39
aS'ups'
p40
aS'clothes'
p41
aS'enjoy'
p42
aS'babygirl'
p43
aS'me!'
p44
aS'#frfr'
p45
aS'tired'
p46
aS'#ijs'
p47
aS'me.'
p48
aS'bacon'
p49
aS'Christie'
p50
aS'Balling'
p51
aS'nail'
p52
aS'second'
p53
aS'pretzels:'
p54
aS'FAKESHOW'
p55
aS'ill'
p56
aS'me?'
p57
aS'THANK'
p58
aS'even'
p59
aS'calculator.'
p60
aS'*shrugs*'
p61
aS"tonight's"
p62
aS'Diess'
p63
aS'Game'
p64
aS'above'
p65
aS'datapad'
p66
aS'new'
p67
aS'tips'
p68
aS'ever'
p69
aS'told'
p70
aS'million'
p71
aS'rugby!'
p72
aS'never'
p73
aS'here'
p74
aS'Disturbed'
p75
aS'kids'
p76
aS'rests'
p77
aS'study'
p78
aS'#IfIonlyCould'
p79
aS'@GetGlue!'
p80
aS'swagg""'
p81
aS"i'd"
p82
aS'smoke'
p83
aS'permit'
p84
aS'http://t.co/6uLFlxf9'
p85
aS"i'm"
p86
aS'slibber'
p87
aS'..wtf'
p88
aS'feelings'
p89
aS'#NATO'
p90
aS'@NOLAboyDEL'
p91
aS'Messing'
p92
aS'would'
p93
aS'movie.'
p94
aS'story'
p95
aS'call'
p96
aS'calm'
p97
aS'strike'
p98
aS'RT:'
p99
aS'type'
p100
aS'until'
p101
aS'females'
p102
aS'brings'
p103
aS'haha'
p104
aS'hurt'
p105
aS'phone'
p106
aS'blocking'
p107
aS'must'
p108
aS'shoot'
p109
aS'Crazy'
p110
aS'room'
p111
aS'HONESTLY..'
p112
aS'work'
p113
aS'House.'
p114
aS'Idgaf'
p115
aS'mu'
p116
aS'movies'
p117
aS'Frosty'
p118
aS'my'
p119
aS'could'
p120
aS'@_Ijustwantyou'
p121
aS'give'
p122
aS'is..'
p123
aS'Reality'
p124
aS'@imjustessence'
p125
aS'#wordUp'
p126
aS'want'
p127
aS'Lord'
p128
aS'keep'
p129
aS'@briheymann'
p130
aS'!!!'
p131
aS'thing'
p132
aS'sitting'
p133
aS'id'
p134
aS'how'
p135
aS'morbid'
p136
aS'hop'
p137
aS'interview'
p138
aS'Run.'
p139
aS'beach'
p140
aS'pizza'
p141
aS'A'
aS'your.'
p142
aS'after'
p143
aS'food.'
p144
aS'Touch'
p145
aS'wrong'
p146
aS'waterfront'
p147
aS'lesbian'
p148
aS'down...'
p149
aS'All'
p150
aS'third'
p151
aS'......'
p152
aS'appreciate'
p153
aS'funniest'
p154
aS'ultimate'
p155
aS'goodbye'
p156
aS'ambulance'
p157
aS'IntroductionThis'
p158
aS'worst'
p159
aS'Trust'
p160
aS'centre.'
p161
aS'@0meza'
p162
aS'bestie'
p163
aS'over'
p164
aS'"I'
p165
aS'7-0.'
p166
aS'school?'
p167
aS'#epic'
p168
aS'ears.'
p169
aS'band-aids.'
p170
aS'before'
p171
aS'ima'
p172
aS'fit'
p173
aS'somewhere'
p174
aS'broken."'
p175
aS'Here'
p176
aS'crew'
p177
aS'better'
p178
aS'workout....'
p179
aS'corinthians'
p180
aS'Him'
p181
aS'then'
p182
aS'them'
p183
aS'woken'
p184
aS'Gotta'
p185
aS'break'
p186
aS"'Taker"
p187
aS'they'
p188
aS'washing'
p189
aS'makhuwa'
p190
aS'@iamtriciasantos'
p191
aS'aired'
p192
aS'meat'
p193
aS'week!'
p194
aS'#cakecakecake'
p195
aS'debut'
p196
aS'Boutta'
p197
aS'good'
p198
aS'dollassss'
p199
aS'each'
p200
aS'went'
p201
aS'Check'
p202
aS'Yellawolf'
p203
aS'mean'
p204
aS'Midnight'
p205
aS'webber'
p206
aS'Anyone'
p207
aS'ring'
p208
aS'by'
p209
aS'trending'
p210
aS'driving'
p211
aS'god'
p212
aS'Meeting\\happyhour'
p213
aS'day.'
p214
aS'#Whatalife'
p215
aS'got'
p216
aS'Super'
p217
aS'Meyer'
p218
aS'workout'
p219
aS'cutest'
p220
aS'u.s.'
p221
aS'Work'
p222
aS'standard'
p223
aS'went.'
p224
aS'Nosey'
p225
aS'@ninadobrev'
p226
aS'Ugh'
p227
aS'starts'
p228
aS'messages'
p229
aS'days'
p230
aS'-_____-'
p231
aS'000'
p232
aS'";)'
p233
aS'already'
p234
aS'hateeee'
p235
aS'Working'
p236
aS'too.'
p237
aS'Please'
p238
aS'#CandyCane'
p239
aS'Going'
p240
aS'comin'
p241
aS'mar...'
p242
aS'hood'
p243
aS'lt;lt;lt;lt;'
p244
aS'Smiles'
p245
aS'basketball'
p246
aS'girls'
p247
aS'through?'
p248
aS'needed'
p249
aS'overact'
p250
aS'listen'
p251
aS'gym'
p252
aS'took'
p253
aS'Patterns'
p254
aS'cereal'
p255
aS'Suck'
p256
aS'sticker'
p257
aS'frankly'
p258
aS'@TheBoysWho:'
p259
aS'project'
p260
aS'matter'
p261
aS'@K_tina30'
p262
aS'polish..'
p263
aS'mini'
p264
aS'tht'
p265
aS'smke'
p266
aS'that?"'
p267
aS'seep'
p268
aS'mind'
p269
aS'huf'
p270
aS'talking'
p271
aS"f'n"
p272
aS'wedged'
p273
aS'well*'
p274
aS'seen'
p275
aS'grind'
p276
aS'tho'
p277
aS'guys.'
p278
aS'concrete'
p279
aS"she'd"
p280
aS'-'
aS'point.'
p281
aS'Bang'
p282
aS'luxury'
p283
aS'They'
p284
aS'Tweeting'
p285
aS'blue'
p286
aS'tho....'
p287
aS'Frozen'
p288
aS'doin'
p289
aS'preset'
p290
aS'g\'mornin**"'
p291
aS'three-inch'
p292
aS'see.'
p293
aS'cool.'
p294
aS"It'll"
p295
aS'Reminding'
p296
aS'episode'
p297
aS'released'
p298
aS'flow'
p299
aS'dog'
p300
aS'doe'
p301
aS'Single'
p302
aS'points'
p303
aS'real?'
p304
aS'Its'
p305
aS'came'
p306
aS'random'
p307
aS'http://t.co/ZLyYHCTN'
p308
aS'pops'
p309
aS'radio'
p310
aS'#InCaseYouDidntKnow'
p311
aS'crush'
p312
aS'resisting'
p313
aS'Big'
p314
aS'Ughhh'
p315
aS'Others'
p316
aS'Eeewwwwh'
p317
aS'run.'
p318
aS'alcohol.'
p319
aS'do'
p320
aS'warmers'
p321
aS'dm'
p322
aS'2):'
p323
aS'@WilI_Smith:'
p324
aS'stop'
p325
aS'13'
p326
aS'da'
p327
aS'pisseddddddddddd'
p328
aS'doing?""'
p329
aS'governance:'
p330
aS'pressed'
p331
aS'bad'
p332
aS'weekend!'
p333
aS'them.'
p334
aS"grandma's"
p335
aS'reread'
p336
aS'w/'
p337
aS"76er's"
p338
aS'Wassup'
p339
aS'decided'
p340
aS'John'
p341
aS'best'
p342
aS'said'
p343
aS'face"'
p344
aS'face.'
p345
aS'http://t.co/nHl1A3fJ"'
p346
aS"there's"
p347
aS'hopefully'
p348
aS'o_O'
p349
aS'we'
p350
aS'men'
p351
aS'omg'
p352
aS'rims'
p353
aS'confusion'
p354
aS'weak'
p355
aS'zone.'
p356
aS'Ratana'
p357
aS'lol..'
p358
aS'seriously.'
p359
aS'wtf'
p360
aS'cousin'
p361
aS'debt'
p362
aS'why.'
p363
aS'puddles'
p364
aS'#TeamScorpio'
p365
aS'tings'
p366
aS'jelly'
p367
aS'#help'
p368
aS'games'
p369
aS'#ugh'
p370
aS'distinction'
p371
aS'asked'
p372
aS'peacefully'
p373
aS'tough'
p374
aS'very'
p375
aS'excited!'
p376
aS'2nd'
p377
aS'tons'
p378
aS'oblivious'
p379
aS'Laawweeed'
p380
aS'now.'
p381
aS"I've"
p382
aS'three'
p383
aS'been'
p384
aS'.'
aS'now?'
p385
aS"You've"
p386
aS'expected'
p387
aS'entered'
p388
aS'threw'
p389
aS'life'
p390
aS'Preciate'
p391
aS'yolo.'
p392
aS'Gah'
p393
aS'lt;lt;lt;'
p394
aS'Night'
p395
aS'catch'
p396
aS'#inspiration'
p397
aS'160'
p398
aS'...shoulder'
p399
aS"Can't"
p400
aS'chill'
p401
aS'International'
p402
aS'okay.'
p403
aS'#HouseFinale'
p404
aS'kentucky'
p405
aS'n'
aS'suppose'
p406
aS'leprosy'
p407
aS'b-day'
p408
aS'gne'
p409
aS'Follow'
p410
aS'chilling'
p411
aS'mistake'
p412
aS'remembering'
p413
aS'over.'
p414
aS'top:'
p415
aS'On'
p416
aS'is'
p417
aS'you...'
p418
aS'it'
p419
aS'Run!'
p420
aS'shame'
p421
aS'cant'
p422
aS'im'
p423
aS'in'
p424
aS'itself.!'
p425
aS'Tell'
p426
aS'trusted'
p427
aS'if'
p428
aS'hone'
p429
aS'pathfinder'
p430
aS'"A'
p431
aS'perform'
p432
aS'things'
p433
aS'make'
p434
aS'Regional'
p435
aS'dad!'
p436
aS'amount'
p437
aS'your!'
p438
aS'backed'
p439
aS'Die'
p440
aS'5/29!'
p441
aS'froyo'
p442
aS'can!'
p443
aS'Maybe'
p444
aS'".'
p445
aS'social'
p446
aS'rain'
p447
aS'hand'
p448
aS'#MichiganFanciesA1DSigning'
p449
aS'made.'
p450
aS'kid'
p451
aS'Yentl'
p452
aS'http://t.co/ISc4XBz3'
p453
aS'worse:'
p454
aS'youre'
p455
aS'lt;--'
p456
aS'#whocares'
p457
aS'world!!'
p458
aS'the'
p459
aS'dads'
p460
aS'left'
p461
aS'blakeeeeeee'
p462
aS'Thank'
p463
aS'just'
p464
aS'THAT'
p465
aS'yea'
p466
aS'photo'
p467
aS'thanks'
p468
aS'yes'
p469
aS'Oscar'
p470
aS'had'
p471
aS'easy'
p472
aS'prison'
p473
aS'ffffff'
p474
aS'has'
p475
aS'gave'
p476
aS'happier!'
p477
aS"Emoji's"
p478
aS'James'
p479
aS'"RT'
p480
aS'Alamo'
p481
aS'Tahlia'
p482
aS'truth.'
p483
aS'replace'
p484
aS'IND'
p485
aS'dreams'
p486
aS'apart'
p487
aS'Art'
p488
aS'-_-'
p489
aS'2013:'
p490
aS'ha!'
p491
aS'performing'
p492
aS'America.'
p493
aS'shxt'
p494
aS'Are'
p495
aS'night'
p496
aS'Prince'
p497
aS'cooled'
p498
aS'antique'
p499
aS'right'
p500
aS'old'
p501
aS'deal'
p502
aS'people'
p503
aS'Expressways'
p504
aS'dead'
p505
aS'46.7'
p506
aS'Rugby'
p507
aS'http://t.co/i2AvUP4P'
p508
aS'enemies'
p509
aS'Life'
p510
aS'for'
p511
aS'comments'
p512
aS'uselesslt;lt;lt;lt;lt;lt;lt;lt;lt;lt;lt;lt;lt;lt;'
p513
aS'tonight?'
p514
aS'Let'
p515
aS'Cubs'
p516
aS'Hm'
p517
aS'Chris'
p518
aS'Drinking'
p519
aS'beating'
p520
aS'Royce'
p521
aS'9:8"'
p522
aS'Punjabi'
p523
aS'drip.drip.drip'
p524
aS'phew'
p525
aS'losing'
p526
aS'super'
p527
aS'First'
p528
aS'obo'
p529
aS'dollars'
p530
aS'lmfao'
p531
aS'o'
aS'http://t.co/VK0X79pL'
p532
aS'efforts'
p533
aS'turn..'
p534
aS'Best'
p535
aS'sob'
p536
aS'for.'
p537
aS'lied'
p538
aS'wasting'
p539
aS'Make'
p540
aS'pissssshers'
p541
aS'Cuz'
p542
aS'bath'
p543
aS'down'
p544
aS'mambo'
p545
aS'support'
p546
aS'class'
p547
aS'Goin'
p548
aS'way'
p549
aS'fairness'
p550
aS'NBA'
p551
aS'wat'
p552
aS'was'
p553
aS'happy'
p554
aS'fireworks'
p555
aS'so.'
p556
aS'failure'
p557
aS'heat'
p558
aS'hear'
p559
aS'what.'
p560
aS'true'
p561
aS'"One'
p562
aS'Left'
p563
aS'happen'
p564
aS"else's"
p565
aS'inside'
p566
aS'tell'
p567
aS'WILLIAM'
p568
aS'promises'
p569
aS'proud'
p570
aS'hungry'
p571
aS'annoying'
p572
aS'trip'
p573
aS'shit'
p574
aS'song.'
p575
aS'#HeThrough'
p576
aS'tix'
p577
aS'Monster'
p578
aS'clingy'
p579
aS'no'
p580
aS'commercials'
p581
aS'#drained'
p582
aS'bed.'
p583
aS'reality'
p584
aS'hurry.'
p585
aS'interested'
p586
aS'Celtics'
p587
aS'Taisha'
p588
aS"'s"
p589
aS'brothers'
p590
aS'Patrick.'
p591
aS'football'
p592
aS"let's"
p593
aS'Idk'
p594
aS'skeeter'
p595
aS'weekend'
p596
aS'men......'
p597
aS'confused"'
p598
aS'cheated'
p599
aS'@Exquisite_FeLLa:'
p600
aS'#RHONJ'
p601
aS'Charles'
p602
aS'flag'
p603
aS'together'
p604
aS'out...everyone'
p605
aS'Brought'
p606
aS'paper1'
p607
aS'paper2'
p608
aS'time'
p609
aS'push'
p610
aS"ain't"
p611
aS'@Civilian_Sounds.'
p612
aS':/'
p613
aS':('
p614
aS':)'
p615
aS'focus'
p616
aS'Republic'
p617
aS'ice'
p618
aS'grateful'
p619
aS'Bye'
p620
aS'Today'
p621
aS'row'
p622
aS'Dad'
p623
aS'ver'
p624
aS'everything'
p625
aS'CREEEEEEEWWWWW!!'
p626
aS'Gonna'
p627
aS'hurtin'
p628
aS'0'
aS'balled'
p629
aS'off.'
p630
aS'me'
p631
aS'Chris.'
p632
aS':o'
p633
aS'choice'
p634
aS'soul.'
p635
aS'fuuuh'
p636
aS'memorable.'
p637
aS'cook'
p638
aS'trouble'
p639
aS':s'
p640
aS'#devils'
p641
aS'Ha'
p642
aS'Just'
p643
aS'did'
p644
aS':@'
p645
aS'turnt'
p646
aS'leave'
p647
aS'item'
p648
aS'@carlito_1989'
p649
aS'#thefuck'
p650
aS'guy'
p651
aS'dip'
p652
aS'George'
p653
aS'yall'
p654
aS"it'll"
p655
aS'says'
p656
aS'regret'
p657
aS'sigh'
p658
aS'sign'
p659
aS'Head'
p660
aS'Seriously?'
p661
aS'jeopardy'
p662
aS'trend!!!'
p663
aS'Allstar'
p664
aS'goes'
p665
aS'falling'
p666
aS'True'
p667
aS'mommy!'
p668
aS'Me'
p669
aS'Forever'
p670
aS'choose...'
p671
aS'grandparents'
p672
aS'doing'
p673
aS'drink?'
p674
aS'baseball'
p675
aS'O'
aS'English'
p676
aS'alone'
p677
aS'My'
p678
aS'appears'
p679
aS'change'
p680
aS'wait'
p681
aS'box'
p682
aS'boy'
p683
aS'Mister'
p684
aS'Boston'
p685
aS'Tomorrow'
p686
aS'bol'
p687
aS'usually'
p688
aS'Seen'
p689
aS'experiences.'
p690
aS'massage'
p691
aS'love'
p692
aS'beer!'
p693
aS"It's"
p694
aS'important'
p695
aS'When'
p696
aS'#lucianturnoffs'
p697
aS'@MrSmoothEMT:'
p698
aS'everybody'
p699
aS'working'
p700
aS'dictated'
p701
aS'angry'
p702
aS'ways.'
p703
aS'live'
p704
aS'earthly'
p705
aS'Awake'
p706
aS'thru'
p707
aS'today'
p708
aS'loving'
p709
aS'#content'
p710
aS'afford'
p711
aS'Calling'
p712
aS'drown'
p713
aS'fly'
p714
aS'niggas'
p715
aS'cap'
p716
aS'means.'
p717
aS'@jravaliere006'
p718
aS'can'
p719
aS'making'
p720
aS'*all'
p721
aS'Out'
p722
aS'heart'
p723
aS'SMALL!!'
p724
aS"didn't"
p725
aS'fuck'
p726
aS'guy!'
p727
aS'heard'
p728
aS'confuses'
p729
aS'input.'
p730
aS'agendas'
p731
aS'Missing'
p732
aS'Hooters.'
p733
aS'dress'
p734
aS'discussion'
p735
aS'Who'
p736
aS'Munich'
p737
aS"10's"
p738
aS'1'
aS'till'
p739
aS'sword'
p740
aS'Why'
p741
aS'fstw..'
p742
aS'unbelievable'
p743
aS'CiCis'
p744
aS'may'
p745
aS'http://t.co/A3w3cvVS'
p746
aS'Sensitive'
p747
aS'birthday'
p748
aS'mad'
p749
aS'date'
p750
aS'end'
p751
aS'suck'
p752
aS'hear.'
p753
aS'data'
p754
aS'grow'
p755
aS'man'
p756
aS'Shin'
p757
aS'remember'
p758
aS'succeeded'
p759
aS'Watching'
p760
aS'a...'
p761
aS'Catching'
p762
aS'so'
p763
aS'pulled'
p764
aS'talk'
p765
aS'cute'
p766
aS'comfort'
p767
aS'shoes'
p768
aS'early?'
p769
aS'Bowie'
p770
aS'Fenna'
p771
aS'displayed'
p772
aS'cruel.'
p773
aS'Rihanna'
p774
aS'episodes'
p775
aS'pitch'
p776
aS'weather.'
p777
aS'still'
p778
aS'RT'
p779
aS'months!'
p780
aS'Direction'
p781
aS'idol...'
p782
aS'#fact'
p783
aS'healthcare:'
p784
aS'""i'
p785
aS"he's"
p786
aS'interesting'
p787
aS'sexiest'
p788
aS'""leaders""'
p789
aS'tweets'
p790
aS'World'
p791
aS'main'
p792
aS'instantly'
p793
aS'@RadioNational'
p794
aS'gray'
p795
aS'moms'
p796
aS'answer'
p797
aS'year.'
p798
aS'She'
p799
aS'half'
p800
aS'not'
p801
aS'now'
p802
aS'bullshit'
p803
aS'wont'
p804
aS'name'
p805
aS'playin'
p806
aS'gt3'
p807
aS'cuzz'
p808
aS'Skin'
p809
aS'lt;/3'
p810
aS'concerts'
p811
aS'brews'
p812
aS'Live'
p813
aS'views??'
p814
aS'car.'
p815
aS'ex'
p816
aS'girl'
p817
aS'car!'
p818
aS'obsession'
p819
aS'Zanrosso'
p820
aS'album'
p821
aS'living'
p822
aS'truthlt;lt;lt;lt;lt;lt;'
p823
aS'Lmfao'
p824
aS'Sittin'
p825
aS'looking'
p826
aS'seriously'
p827
aS"shouldn't"
p828
aS'squares'
p829
aS'Throw'
p830
aS'Jon'
p831
aS'earlier'
p832
aS'monster'
p833
aS'G'
aS'Sometimes'
p834
aS'@SianSweeneyz.'
p835
aS'grandma'
p836
aS'care'
p837
aS'training'
p838
aS'100%'
p839
aS'thinx'
p840
aS'turn'
p841
aS'place'
p842
aS'redbone'
p843
aS'think'
p844
aS'first'
p845
aS'Brock'
p846
aS'LETTING'
p847
aS'Giant'
p848
aS'anymore.'
p849
aS'There'
p850
aS'yourself'
p851
aS'bob?'
p852
aS'thing!!'
p853
aS'fast'
p854
aS'directly'
p855
aS'sounds'
p856
aS'open'
p857
aS'tomorrow'
p858
aS'size'
p859
aS'city'
p860
aS'little'
p861
aS'Monday'
p862
aS'anyone'
p863
aS'2'
aS'white'
p864
aS'friend'
p865
aS'gives'
p866
aS'mining'
p867
aS'Deternine'
p868
aS'that'
p869
aS'season'
p870
aS'on!'
p871
aS'Tebow'
p872
aS'cops'
p873
aS'dudes'
p874
aS'ridiculous'
p875
aS'easier.'
p876
aS'#NAME?'
p877
aS'than'
p878
aS'boyfriend'
p879
aS'10'
p880
aS'Btw'
p881
aS'12'
p882
aS'Love'
p883
aS'gotta'
p884
aS'@foursquare'
p885
aS'r'
aS'were'
p886
aS'#TheUsual'
p887
aS'and'
p888
aS'Court'
p889
aS'turned'
p890
aS'OUch'
p891
aS'slap'
p892
aS'390$'
p893
aS'say'
p894
aS'rent'
p895
aS'saw'
p896
aS'any'
p897
aS'Do'
p898
aS'http://t.co/jK3IMBXX"'
p899
aS'exposed.'
p900
aS'editing'
p901
aS'Da'
p902
aS'note'
p903
aS'omfg'
p904
aS'take'
p905
aS'bad!'
p906
aS'@Teresa_Giudice'
p907
aS'Shhh'
p908
aS'Kahlan'
p909
aS'urge'
p910
aS'sure'
p911
aS'pain'
p912
aS'Name'
p913
aS'Unlike'
p914
aS'GOD'
p915
aS'price'
p916
aS'time..'
p917
aS'falls'
p918
aS'Illegitimate'
p919
aS'Prescott'
p920
aS"sillyI'm"
p921
aS'Rethinking'
p922
aS'forever'
p923
aS'especially'
p924
aS'considered'
p925
aS'later'
p926
aS'Fuck'
p927
aS'tooth'
p928
aS'**'
p929
aS'professional'
p930
aS'#crazy'
p931
aS'shot'
p932
aS'show'
p933
aS'Barry'
p934
aS'ewwwww........'
p935
aS'welp'
p936
aS'Test'
p937
aS'aint'
p938
aS'We'
p939
aS'witch'
p940
aS'title'
p941
aS'dick'
p942
aS'behind'
p943
aS'only'
p944
aS'going'
p945
aS'black'
p946
aS'220'
p947
aS'bridge'
p948
aS'get'
p949
aS'truly'
p950
aS'cannot'
p951
aS'nearly'
p952
aS'freaking'
p953
aS'wiener'
p954
aS'morning'
p955
aS":'("
p956
aS":')"
p957
aS'crazy!'
p958
aS'stupid'
p959
aS'friends.'
p960
aS'bought'
p961
aS'where'
p962
aS'crew.'
p963
aS'husband'
p964
aS"y'all"
p965
aS'#imageniusiknow'
p966
aS'concert'
p967
aS'WM9.'
p968
aS'asleep'
p969
aS'job!'
p970
aS'hoes'
p971
aS'#1'
p972
aS'nono.'
p973
aS'wonder'
p974
aS'@TurdFerguson135'
p975
aS'Iowa'
p976
aS'That'
p977
aS'Alpha/'
p978
aS'3'
aS'between'
p979
aS'sleepis'
p980
aS'reading'
p981
aS'Natural'
p982
aS'Lmao'
p983
aS'Snagged'
p984
aS'killing'
p985
aS'honest.'
p986
aS'Awayy'
p987
aS'je'
p988
aS'Meatball'
p989
aS'come'
p990
aS'doing?'
p991
aS'AINT'
p992
aS'dates'
p993
aS'rugby'
p994
aS'many'
p995
aS'23'
p996
aS's'
aS'@mslayel'
p997
aS'wheels'
p998
aS'comes'
p999
aS'Guess'
p1000
aS'Bitches'
p1001
aS'12:00'
p1002
aS"We've"
p1003
aS'poo'
p1004
aS'want!'
p1005
aS"couldn't"
p1006
aS'boar'
p1007
aS'@EricPerry16'
p1008
aS'#True90sKid'
p1009
aS'considering'
p1010
aS'arts'
p1011
aS'cares'
p1012
aS'vacation'
p1013
aS'But'
p1014
aS'games!'
p1015
aS'staring'
p1016
aS'500'
p1017
aS'Jhbweuyttty9idyYf'
p1018
aS'havertown'
p1019
aS'direction'
p1020
aS'thousand'
p1021
aS'Phil'
p1022
aS'aqui'
p1023
aS'careful'
p1024
aS'Round'
p1025
aS'those'
p1026
aS'sound'
p1027
aS'myself'
p1028
aS'2.'
p1029
aS'these'
p1030
aS'chords!'
p1031
aS'pacers'
p1032
aS'@Bleepthat1'
p1033
aS'cancelled'
p1034
aS'life.'
p1035
aS'taking'
p1036
aS'-___-lt;'
p1037
aS'history!'
p1038
aS'Dick'
p1039
aS'person.'
p1040
aS'Ashanti?'
p1041
aS'couples'
p1042
aS'middle'
p1043
aS'sudden'
p1044
aS'@Subway'
p1045
aS'smithville'
p1046
aS'gt;gt;gt;gt;gt;'
p1047
aS'everyday'
p1048
aS'worry'
p1049
aS'bags'
p1050
aS'different'
p1051
aS'jaquan`s'
p1052
aS'I?'
p1053
aS'Arena!'
p1054
aS'pay'
p1055
aS'gt;gt;gt;gt;'
p1056
aS'same'
p1057
aS'followers'
p1058
aS'isle'
p1059
aS'week'
p1060
aS"They're"
p1061
aS'finish'
p1062
aS'I'
aS'weed'
p1063
aS'II'
p1064
aS'running'
p1065
aS'IB'
p1066
aS'totally'
p1067
aS'Is'
p1068
aS'great!'
p1069
aS'without'
p1070
aS'Im'
p1071
aS"can't"
p1072
aS'In'
p1073
aS'#1DTourChicago'
p1074
aS'#entertainment'
p1075
aS'If'
p1076
aS'taxi'
p1077
aS'summer'
p1078
aS'(x'
p1079
aS'Clevvertv'
p1080
aS'Zumba'
p1081
aS'being'
p1082
aS'money'
p1083
aS'rest'
p1084
aS'pissing'
p1085
aS'#house'
p1086
aS'kill'
p1087
aS'ps3'
p1088
aS'speed'
p1089
aS'blow'
p1090
aS'thinking'
p1091
aS'nap'
p1092
aS'either.'
p1093
aS'#Celtics'
p1094
aS'4'
aS'supplier.'
p1095
aS'1D'
p1096
aS'real'
p1097
aS'#metime'
p1098
aS'around'
p1099
aS'admitting'
p1100
aS'early'
p1101
aS'test'
p1102
aS'()'
p1103
aS'Dominoes'
p1104
aS'world'
p1105
aS'Bench'
p1106
aS'amt'
p1107
aS'ruled'
p1108
aS'missing.'
p1109
aS'pole'
p1110
aS'#NotBeingRudeBut'
p1111
aS'London'
p1112
aS'either'
p1113
aS'always'
p1114
aS'counter-arguments'
p1115
aS'Trop'
p1116
aS'@allie_t13!'
p1117
aS'Threats'
p1118
aS'Since'
p1119
aS'New'
p1120
aS'thinks'
p1121
aS'Wahhhh.'
p1122
aS';P'
p1123
aS'over...sure'
p1124
aS'mood'
p1125
aS'unlocked'
p1126
aS'gumbo.'
p1127
aS'memories'
p1128
aS'cow.'
p1129
aS'Temple'
p1130
aS'provides'
p1131
aS'badass.'
p1132
aS'knife'
p1133
aS'caring'
p1134
aS'ridicolous'
p1135
aS'JUST'
p1136
aS';;'
p1137
aS'think?'
p1138
aS"You'll"
p1139
aS'tv.'
p1140
aS'in!!!!'
p1141
aS';)'
p1142
aS'on'
p1143
aS'oh'
p1144
aS'jeep'
p1145
aS'of'
p1146
aS'capable'
p1147
aS'ox'
p1148
aS'or'
p1149
aS'up..'
p1150
aS'No'
p1151
aS'coupon'
p1152
aS'Rondo'
p1153
aS'Bowl'
p1154
aS'everyone'
p1155
aS'rising'
p1156
aS'Lite'
p1157
aS'wade'
p1158
aS'your'
p1159
aS'her'
p1160
aS'there'
p1161
aS'lol'
p1162
aS'lmfaooo'
p1163
aS'start'
p1164
aS'Birthday'
p1165
aS'lot'
p1166
aS'series'
p1167
aS'chisel'
p1168
aS'hen'
p1169
aS'torchering'
p1170
aS'you.'
p1171
aS'mornings'
p1172
aS'complete'
p1173
aS'botth'
p1174
aS'blessings.'
p1175
aS'babyfather'
p1176
aS'you!'
p1177
aS'Lit.'
p1178
aS'trying'
p1179
aS'with'
p1180
aS'buying'
p1181
aS"they're"
p1182
aS'commonality'
p1183
aS"wasn't"
p1184
aS'curses.'
p1185
aS'flirt'
p1186
aS'hw.'
p1187
aS'gone'
p1188
aS'gona'
p1189
aS'doin??'
p1190
aS'taste'
p1191
aS'am'
p1192
aS'Thursday'
p1193
aS'an'
p1194
aS'How'
p1195
aS'as'
p1196
aS'Adreal.'
p1197
aS'at'
p1198
aS'walks'
p1199
aS'-____-'
p1200
aS'watched'
p1201
aS'attendance.'
p1202
aS'again'
p1203
aS'Snappin'
p1204
aS'deserve'
p1205
aS'#OccupyBoston'
p1206
aS'Simpsons'
p1207
aS'http://t.co/xu6pw1IR'
p1208
aS'5'
aS'Bunyan'
p1209
aS'you'
p1210
aS'Lady'
p1211
aS'At'
p1212
aS'poor'
p1213
aS'requested'
p1214
aS'Great'
p1215
aS'obsessed'
p1216
aS'separate'
p1217
aS'lovers'
p1218
aS'serious'
p1219
aS'sneeze'
p1220
aS'pool'
p1221
aS'Mexican'
p1222
aS'Holy'
p1223
aS'sobbing'
p1224
aS'Direct'
p1225
aS'cabinet!'
p1226
aS'u'
aS'starting'
p1227
aS'original'
p1228
aS'#BecauseItsOURcup'
p1229
aS'all'
p1230
aS'forget'
p1231
aS'lack'
p1232
aS'month'
p1233
aS'.....'
p1234
aS'#Realshit'
p1235
aS'Take'
p1236
aS'invariably'
p1237
aS'follow'
p1238
aS'content'
p1239
aS'Thought'
p1240
aS'referring'
p1241
aS'tv'
p1242
aS'really!'
p1243
aS'laughing'
p1244
aS'to'
p1245
aS'Walmart!'
p1246
aS'th'
p1247
aS'smile'
p1248
aS'http://t.co/55Cb9NsU'
p1249
aS'Still?'
p1250
aS'song'
p1251
aS"Lala's"
p1252
aS'Dele'
p1253
aS'fat'
p1254
aS'#trill'
p1255
aS'Soooo'
p1256
aS"I'd"
p1257
aS'@KurlieSuzahn!'
p1258
aS'decide'
p1259
aS'fall'
p1260
aS"I'm"
p1261
aS'difference'
p1262
aS'condition'
p1263
aS'litterally'
p1264
aS"Don't"
p1265
aS'list'
p1266
aS'dresse'
p1267
aS'Keesha'
p1268
aS'Must'
p1269
aS'instagram'
p1270
aS'ten'
p1271
aS'streets'
p1272
aS'Should'
p1273
aS'past'
p1274
aS'throat!!'
p1275
aS'Only'
p1276
aS'Smh'
p1277
aS'gg.'
p1278
aS'creatures'
p1279
aS'what'
p1280
aS'Korea'
p1281
aS'sun'
p1282
aS'fucks'
p1283
aS'him.'
p1284
aS'fuckd'
p1285
aS'full'
p1286
aS'escaping'
p1287
aS'excited!!'
p1288
aS'hours'
p1289
aS'grab.'
p1290
aS'situation'
p1291
aS'directions'
p1292
aS'strong'
p1293
aS"y'all."
p1294
aS'loml'
p1295
aS'#readyforbed'
p1296
aS'fuck.'
p1297
aS'Cant'
p1298
aS'#thatshowthingsaregonnabe'
p1299
aS'lt;3'
p1300
aS'pick'
p1301
aS'God!!!!'
p1302
aS'sticking'
p1303
aS'http://t.co/z9kQDuYP'
p1304
aS'Devil'
p1305
aS'ask'
p1306
aS'follower'
p1307
aS'know.'
p1308
aS'guess.'
p1309
aS'wanted'
p1310
aS'takes'
p1311
aS'appraised.'
p1312
aS'waving.'
p1313
aS'two'
p1314
aS'what????!!!'
p1315
aS'Block'
p1316
aS'6'
aS'more'
p1317
aS'tryna'
p1318
aS'knows'
p1319
aS'#ick'
p1320
aS'company'
p1321
aS'@allkpop:'
p1322
aS'bhodho'
p1323
aS'So'
p1324
aS'basically'
p1325
aS'known'
p1326
aS'Found'
p1327
aS'hurry'
p1328
aS'glad'
p1329
aS'town'
p1330
aS'Looking'
p1331
aS'none'
p1332
aS'conversating'
p1333
aS'shit.'
p1334
aS'Gods'
p1335
aS'farted'
p1336
aS'me!!'
p1337
aS'learn'
p1338
aS'abandon'
p1339
aS'Wade'
p1340
aS'pleaseee'
p1341
aS'Your'
p1342
aS'@RNLifeMatters'
p1343
aS'history'
p1344
aS'beautiful'
p1345
aS'Non-negotiable!'
p1346
aS'challenging'
p1347
aS'lol...'
p1348
aS'share'
p1349
aS'flips'
p1350
aS'CAN'
p1351
aS'people.....'
p1352
aS'Cause'
p1353
aS'days.U'
p1354
aS'!'
aS'information'
p1355
aS'needs'
p1356
aS't.v'
p1357
aS'goal'
p1358
aS'rather'
p1359
aS'acts'
p1360
aS'#OverTheLimit'
p1361
aS'Hope'
p1362
aS'Updating'
p1363
aS'"Caleb'
p1364
aS'okay'
p1365
aS'tried'
p1366
aS'rude'
p1367
aS'blood'
p1368
aS'response'
p1369
aS'a'
aS'#ifonlyicould'
p1370
aS'short'
p1371
aS'@calvscrewsterry'
p1372
aS'influence.'
p1373
aS'bugs'
p1374
aS'act!'
p1375
aS'dream'
p1376
aS'playing'
p1377
aS"that's"
p1378
aS'Ima'
p1379
aS'What'
p1380
aS'addiction...'
p1381
aS'help'
p1382
aS"don't"
p1383
aS'soon'
p1384
aS'isnt'
p1385
aS'through'
p1386
aS'hell'
p1387
aS'its'
p1388
aS'Full'
p1389
aS'20'
p1390
aS'#Vegas'
p1391
aS'already.'
p1392
aS'actually'
p1393
aS'late'
p1394
aS'grade'
p1395
aS'lata'
p1396
aS'bout'
p1397
aS"haven't"
p1398
aS'it.'
p1399
aS'hurting'
p1400
aS'someone'
p1401
aS'somebody'
p1402
aS'yo'
p1403
aS'food'
p1404
aS'laptop..'
p1405
aS'Bad'
p1406
aS'fuck""'
p1407
aS'yu'
p1408
aS'complain'
p1409
aS'bigger'
p1410
aS'hotdogs'
p1411
aS'Ran'
p1412
aS'all.'
p1413
aS'coniued'
p1414
aS'countersign'
p1415
aS'bullshit...'
p1416
aS'Council'
p1417
aS'Ready'
p1418
aS'Ray'
p1419
aS'house!'
p1420
aS'house'
p1421
aS'hard'
p1422
aS'idea'
p1423
aS'Waiting'
p1424
aS'tonite'
p1425
aS'Build'
p1426
aS'event'
p1427
aS'really'
p1428
aS'Flat'
p1429
aS'perry'
p1430
aS'Omg'
p1431
aS'missed'
p1432
aS'since'
p1433
aS'Laker'
p1434
aS'research'
p1435
aS'7'
aS'occurs'
p1436
aS'ass'
p1437
aS'#ECEC'
p1438
aS'timeline'
p1439
aS'horse'
p1440
aS'Wellllll'
p1441
aS'reason'
p1442
aS'Sonia'
p1443
aS'Architecture'
p1444
aS'imagine'
p1445
aS'put'
p1446
aS'beginning'
p1447
aS'illustion'
p1448
aS'@Chels_hartless'
p1449
aS'People'
p1450
aS'MGK'
p1451
aS'Ed'
p1452
aS'needing'
p1453
aS'foreiGn...'
p1454
aS'XoXo'
p1455
aS'summer!!'
p1456
aS'Respect'
p1457
aS'dis'
p1458
aS'dear.'
p1459
aS'#iphone4'
p1460
aS'major'
p1461
aS'dont'
p1462
aS'feel'
p1463
aS'sisters'
p1464
aS'dejavu'
p1465
aS'done'
p1466
aS'Imy'
p1467
aS'miss'
p1468
aS'sign..'
p1469
aS'guess'
p1470
aS'least'
p1471
aS'BITCH'
p1472
aS'too'
p1473
aS'#PartyRockin'
p1474
aS'relationship'
p1475
aS'park'
p1476
aS'Bugs'
p1477
aS'part'
p1478
aS'believe'
p1479
aS'convinced'
p1480
aS'grace'
p1481
aS'kind'
p1482
aS'grew'
p1483
aS'sixers...'
p1484
aS'double'
p1485
aS'#GetDat"'
p1486
aS'toward'
p1487
aS'outta'
p1488
aS'God'
p1489
aS'Kuchar'
p1490
aS'It'
p1491
aS'juice'
p1492
aS'Dept.'
p1493
aS'showers'
p1494
aS'Got'
p1495
aS'Bout'
p1496
aS'*Imyy'
p1497
aS'lie'
p1498
aS'nights'
p1499
aS'lil'
p1500
aS'fashion.'
p1501
aS'panties.'
p1502
aS'build'
p1503
aS'With'
p1504
aS'understand.'
p1505
aS'waitin'
p1506
aS'play'
p1507
aS'work.""'
p1508
aS'#lovemercs'
p1509
aS'most'
p1510
aS'mace'
p1511
aS'nothing'
p1512
aS'Fresh'
p1513
aS'The'
p1514
aS'understands'
p1515
aS'cover'
p1516
aS'stoning'
p1517
aS'night!'
p1518
aS'serious!'
p1519
aS'lying'
p1520
aS'ugh'
p1521
aS"G'nite"
p1522
aS"You're"
p1523
aS'Had'
p1524
aS'stoned'
p1525
aS'fine'
p1526
aS'overwhelmed'
p1527
aS'with!'
p1528
aS'only.'
p1529
aS'marathons'
p1530
aS'circle'
p1531
aS'hmu'
p1532
aS'Grow'
p1533
aS'his'
p1534
aS'hit'
p1535
aS'famous'
p1536
aS'b'
aS'heaven?'
p1537
aS'him'
p1538
aS"convo's"
p1539
aS'badge'
p1540
aS'towards.'
p1541
aS'crush....'
p1542
aS'lemonade.'
p1543
aS'hype'
p1544
aS'wrote'
p1545
aS'gt;gt;gt;'
p1546
aS'I.Ds!'
p1547
aS'set'
p1548
aS'For'
p1549
aS'racing.'
p1550
aS'see'
p1551
aS'dumb'
p1552
aS'are'
p1553
aS'sea'
p1554
aS'b4...'
p1555
aS'beast!'
p1556
aS'leaving.'
p1557
aS'shower'
p1558
aS'pictures'
p1559
aS'please'
p1560
aS'won'
p1561
aS'3pm?'
p1562
aS'piss'
p1563
aS'available'
p1564
aS'missing'
p1565
aS'sold'
p1566
aS'attention'
p1567
aS'pissed'
p1568
aS'AND'
p1569
aS'league'
p1570
aS'last'
p1571
aS'sensitive'
p1572
aS'thoe'
p1573
aS'let'
p1574
aS'whole'
p1575
aS'Friday'
p1576
aS'~Temptations'
p1577
aS'drunk'
p1578
aS'sweet'
p1579
aS'community'
p1580
aS'#BondingTime'
p1581
aS'http://t.co/mwipZRbo'
p1582
aS'church'
p1583
aS'bitch.'
p1584
aS'season.'
p1585
aS'bench'
p1586
aS'finally'
p1587
aS'due'
p1588
aS'damn'
p1589
aS'out!!!!'
p1590
aS'#IncaseYouDidntKnow'
p1591
aS'meeting'
p1592
aS'empty'
p1593
aS'Women'
p1594
aS'ME'
p1595
aS'gay'
p1596
aS'like.'
p1597
aS"what's"
p1598
aS'else'
p1599
aS'moment'
p1600
aS'whatever'
p1601
aS'lives'
p1602
aS'tornados'
p1603
aS'Pick'
p1604
aS'instructor'
p1605
aS'Old'
p1606
aS'fuq'
p1607
aS'frozen'
p1608
aS'convo'
p1609
aS'seee'
p1610
aS'while'
p1611
aS'match'
p1612
aS'fun'
p1613
aS'yet...'
p1614
aS'pack'
p1615
aS'Italy'
p1616
aS'mac!'
p1617
aS'#House.'
p1618
aS'demon'
p1619
aS'@RevRunWisdom:'
p1620
aS'encountered'
p1621
aS'obstacle'
p1622
aS'ready'
p1623
aS'away.'
p1624
aS'santos'
p1625
aS'anymore'
p1626
aS'amp;'
p1627
aS'wierd'
p1628
aS'some.'
p1629
aS'9'
aS'About'
p1630
aS'used'
p1631
aS'Allianz'
p1632
aS'Dear'
p1633
aS'duck.'
p1634
aS'strength'
p1635
aS'moving'
p1636
aS'cleaning'
p1637
aS'YOU'
p1638
aS'Wanna'
p1639
aS'kno'
p1640
aS'overwhelming.'
p1641
aS'people.'
p1642
aS'#OKC'
p1643
aS'anybody'
p1644
aS'Soo'
p1645
aS'picks'
p1646
aS'person'
p1647
aS'Girl'
p1648
aS'Quality'
p1649
aS'spend'
p1650
aS'http://t.co/yWLMGEPR'
p1651
aS'@1parkWest'
p1652
aS'Tyler'
p1653
aS'questions'
p1654
aS'complain.'
p1655
aS'praying'
p1656
aS'cut'
p1657
aS'alternate'
p1658
aS'crying'
p1659
aS'excited'
p1660
aS'surprised'
p1661
aS'...'
p1662
aS'lovie'
p1663
aS'forces'
p1664
aS'Did'
p1665
aS'big'
p1666
aS'p235-70r16104s'
p1667
aS'hoodrat'
p1668
aS'game'
p1669
aS'Ain'
p1670
aS'abound'
p1671
aS'bit'
p1672
aS'Or'
p1673
aS'success'
p1674
aS'#GetHype'
p1675
aS'underway'
p1676
aS'ignore'
p1677
aS'brakes'
p1678
aS'spring'
p1679
aS'yolo'
p1680
aS'some'
p1681
aS'back'
p1682
aS'#bestfriends'
p1683
aS'lips'
p1684
aS'Damn'
p1685
aS'woman.'
p1686
aS'caralho'
p1687
aS'reruns'
p1688
aS'into..'
p1689
aS'LMAO'
p1690
aS'Fire'
p1691
aS'decisiom'
p1692
aS'#oomf'
p1693
aS'prom'
p1694
aS'Nothing'
p1695
aS'commentator'
p1696
aS"Here's"
p1697
aS't'
aS'be'
p1698
aS'bad!!!'
p1699
aS'loud.'
p1700
aS'eating'
p1701
aS'rub'
p1702
aS'fed'
p1703
aS's/o'
p1704
aS'bk'
p1705
aS'step'
p1706
aS'pried'
p1707
aS'refuses'
p1708
aS'from'
p1709
aS'http://t.co/yhuVnuIU'
p1710
aS'tripping'
p1711
aS"Y'all"
p1712
aS'Taylor'
p1713
aS'Obsessed'
p1714
aS'anything'
p1715
aS'cigarette'
p1716
aS'graduation'
p1717
aS'positive'
p1718
aS'wanna'
p1719
aS'Guess.'
p1720
aS'hansbrough'
p1721
aS'ppl'
p1722
aS'seeing'
p1723
aS'ME!'
p1724
aS'oomf'
p1725
aS'into'
p1726
aS'within'
p1727
aS'-2Corinthians'
p1728
aS'Their'
p1729
aS'because'
p1730
aS'Gaga'
p1731
aS'lebron'
p1732
aS'people..'
p1733
aS'span'
p1734
aS'..'
p1735
aS'Reminds'
p1736
aS'@jkalanie_x3'
p1737
aS'question'
p1738
aS'Ooh'
p1739
aS'long'
p1740
aS'u.'
p1741
aS"we're"
p1742
aS'forward'
p1743
aS'walls'
p1744
aS':'
aS'u!'
p1745
aS'twitter'
p1746
aS'smiles*'
p1747
aS'boys'
p1748
aS'hopes'
p1749
aS"I'll"
p1750
aS'Doing'
p1751
aS'Twitter'
p1752
aS'Sooo'
p1753
aS'up'
p1754
aS'ur'
p1755
aS'called'
p1756
aS'fans!'
p1757
aS'Tv'
p1758
aS'5-9'
p1759
aS'#fail'
p1760
aS'cute!!'
p1761
aS'To'
p1762
aS'single'
p1763
aS'cure'
p1764
aS'fabricating'
p1765
aS'@MxneyMakenMitch'
p1766
aS'TV'
p1767
aS'peace'
p1768
aS'These'
p1769
aS'Mac'
p1770
aS'reputation'
p1771
aS'tits'
p1772
aS'Believe'
p1773
aS'hell.'
p1774
aS'nice'
p1775
aS'AA'
p1776
aS'Organic'
p1777
aS'@pedrovillela19'
p1778
aS'problems'
p1779
aS'Mike'
p1780
aS'Shower'
p1781
aS'bonding'
p1782
aS'sides'
p1783
aS'happier'
p1784
aS'Am'
p1785
aS'walked'
p1786
aS'hella'
p1787
aS'Bitch'
p1788
aS'Aw'
p1789
aS'having'
p1790
aS'once'
p1791
aS'katy'
p1792
aS'gt'
p1793
aS'@BernieStillFly:'
p1794
aS'#clubmadison'
p1795
aS'happy!'
p1796
aS'quero'
p1797
aS'#Phillies'
p1798
aS'Echofon'
p1799
aS'young'
p1800
aS'kuvunzana'
p1801
aS'Step'
p1802
aS'Not'
p1803
aS'dislike'
p1804
aS'Now'
p1805
aS'""Local""'
p1806
aS'knoooooow'
p1807
aS'precinct'
p1808
aS'gettin'
p1809
aS'nowdays'
p1810
aS'Spo'
p1811
aS'and...'
p1812
aS'havent'
p1813
aS"amp;'"
p1814
aS'other!'
p1815
aS'Spending'
p1816
aS'other.'
p1817
aS'waking'
p1818
aS'go'
p1819
aS'*oh'
p1820
aS'odd'
p1821
aS'bittchhh'
p1822
aS'douche?'
p1823
aS'@SocialRejectx:'
p1824
aS'that.'
p1825
aS'business'
p1826
aS'giving'
p1827
aS'that!'
p1828
aS'find'
p1829
aS'@FreshPirnce'
p1830
aS'waiting'
p1831
aS'Cross*'
p1832
aS'America'
p1833
aS'Swift'
p1834
aS'body'
p1835
aS'river?'
p1836
aS'orleans'
p1837
aS'pushing'
p1838
aS'punch'
p1839
aS'Obviously'
p1840
aS'youngest'
p1841
aS'Pacers'
p1842
aS'http://t.co/WV3scfie'
p1843
aS'focused'
p1844
aS'sing'
p1845
aS'irritating'
p1846
aS'great'
p1847
aS'Aha'
p1848
aS'Chinese'
p1849
aS'headache!!'
p1850
aS'Moments'
p1851
aS'skills!'
p1852
aS'Back'
p1853
aS'CBP'
p1854
aS'products'
p1855
aS'derby'
p1856
aS'opinion'
p1857
aS'noodles'
p1858
aS'thats'
p1859
aS'win'
p1860
aS'app'
p1861
aS'apt'
p1862
aS'wit'
p1863
aS'duck'
p1864
aS'sux.'
p1865
aS'cha'
p1866
aS'use'
p1867
aS'crap'
p1868
aS'@ohheyitscallie'
p1869
aS"I'ma"
p1870
aS'next'
p1871
aS'few'
p1872
aS'touched'
p1873
aS'becomes'
p1874
aS'sister'
p1875
aS'finish-line'
p1876
aS'hein'
p1877
aS'trail'
p1878
aS'#cheerobsessed'
p1879
aS'train'
p1880
aS'ap.'
p1881
aS'next!!!'
p1882
aS'this'
p1883
aS'us.'
p1884
aS'ride'
p1885
aS'when'
p1886
aS'amp;amp;'
p1887
aS'crossed'
p1888
aS'now!'
p1889
aS'fetch'
p1890
aS'wearing'
p1891
aS'@Naabb21'
p1892
aS'YO'
p1893
aS'pieces'
p1894
aS'high'
p1895
aS'\\~/'
p1896
aS'something'
p1897
aS'pure'
p1898
aS'line.'
p1899
aS'dolt;lt;lt;lt;'
p1900
aS'amazing!!!!!!'
p1901
aS'stock'
p1902
aS'yellowish'
p1903
aS'watch'
p1904
aS'act'
p1905
aS'#missedhim'
p1906
aS'Arietty!'
p1907
aS'summer?'
p1908
aS'One'
p1909
aS'courage'
p1910
aS'agenda'
p1911
aS'addiction'
p1912
aS'Gonzales'
p1913
aS'move'
p1914
aS'Wendys'
p1915
aS'(No.'
p1916
aS"won't"
p1917
aS'""C...'
p1918
aS'bunch'
p1919
aS'perfect'
p1920
aS'thanking'
p1921
aS'orange'
p1922
aS'2014'
p1923
aS'world.'
p1924
aS'2013'
p1925
aS'dad'
p1926
aS'happened.'
p1927
aS'up!!!/:lt;'
p1928
aS'spell'
p1929
aS'dat'
p1930
aS'Can'
p1931
aS'das'
p1932
aS'day'
p1933
aS'Summer'
p1934
aS'feast'
p1935
aS'nobodies'
p1936
aS'Say'
p1937
aS'truth'
p1938
aS'#OneTreeHill'
p1939
aS'|'
aS'GODWIN'
p1940
aS'cold!?'
p1941
aS'books'
p1942
aS'b*tch'
p1943
aS'our'
p1944
aS'special'
p1945
aS'out'
p1946
aS'stripper.'
p1947
aS'needed?"'
p1948
aS"'"
aS'lt;'
p1949
aS'lesson!'
p1950
aS'time.'
p1951
aS'mate'
p1952
aS'then......'
p1953
aS'cause'
p1954
aS'announced'
p1955
aS'shut'
p1956
aS'Meeh'
p1957
aS'This'
p1958
aS'completely'
p1959
aS'weridest'
p1960
aS'phone..'
p1961
aS'organic'
p1962
aS'(8)'
p1963
aS'times'
p1964
aS'conversation'
p1965
aS'mine...'
p1966
aS'FaceTime'
p1967
aS'http://t.co/QL9Gs6kE'
p1968
aS'anyone.'
p1969
aS'sack'
p1970
aS'bitch'
p1971
aS'such'
p1972
aS"you're"
p1973
aS'Hubby'
p1974
aS'be.'
p1975
aS'fuckery'
p1976
aS'guys'
p1977
aS'*tear*'
p1978
aS'their'
p1979
aS'Twonkies.The'
p1980
aS'final'
p1981
aS'around;'
p1982
aS'===gt;@TayyWit2Ys:'
p1983
aS'exactly'
p1984
aS'depressing'
p1985
aS'grandpa'
p1986
aS"that'll"
p1987
aS'herself'
p1988
aS'loved'
p1989
aS'yrs'
p1990
aS'Stressing'
p1991
aS'bed'
p1992
aS'curiosity.'
p1993
aS'bet'
p1994
aS'tonight!!!'
p1995
aS'minessssssss'
p1996
aS'tonight'
p1997
aS'Secret'
p1998
aS'Other'
p1999
aS'have'
p2000
aS'need'
p2001
aS'afraid'
p2002
aS'min'
p2003
aS'sufficiency'
p2004
aS'='
aS'youuuu'
p2005
aS'blades'
p2006
aS'Borrowers'
p2007
aS'lectures'
p2008
aS'@MPalestisxo'
p2009
aS'http://t.co/JDeqFH1b.'
p2010
aS'who'
p2011
aS'Without'
p2012
aS'whr'
p2013
aS'why'
p2014
aS'Yeeahhhh'
p2015
aS'#RT'
p2016
aS'eachother'
p2017
aS'Some'
p2018
aS'face'
p2019
aS'looked'
p2020
aS"you'll"
p2021
aS'#18'
p2022
aS'Shit'
p2023
aS'movie'
p2024
aS'painting'
p2025
aS'away'
p2026
aS'fact'
p2027
aS'son'
p2028
aS'text'
p2029
aS'one.'
p2030
aS'bring'
p2031
aS'crib....'
p2032
aS'Maker!'
p2033
aS'Independence'
p2034
aS'one'
p2035
aS'Shut'
p2036
aS'true.'
p2037
aS'Vanessa'
p2038
aS'much'
p2039
aS'should'
p2040
aS'true?'
p2041
aS'Mom'
p2042
aS'tune'
p2043
aS'riding'
p2044
aS'Radio.'
p2045
aS'hope'
p2046
aS'this!'
p2047
aS'watching'
p2048
aS'beat'
p2049
aS'overall'
p2050
aS'inseam'
p2051
aS'Keep'
p2052
aS'abundance'
p2053
aS'c63'
p2054
aS'probably'
p2055
aS'@TheGlrlsWho:'
p2056
aS'Thnks'
p2057
aS'talking.'
p2058
aS'had.'
p2059
aS'married'
p2060
aS'Williams:'
p2061
aS'stuff'
p2062
aS'she'
p2063
aS'goes.'
p2064
aS'end?'
p2065
aS'!!!!'
p2066
aS'--gt;'
p2067
aS'merits'
p2068
aS'Sent'
p2069
aS'Good'
p2070
aS'week...'
p2071
aS'Coachin'
p2072
aS'boundary'
p2073
aS'frustrated'
p2074
aS'Could'
p2075
aS'pants'
p2076
aS'Shoulder'
p2077
aS'ethic'
p2078
aS'opening'
p2079
aS'job'
p2080
aS'key'
p2081
aS'group'
p2082
aS'legit'
p2083
aS'thank'
p2084
aS'instant'
p2085
aS'iPod'
p2086
aS'#procrastination'
p2087
aS'Cairns'
p2088
aS'Design'
p2089
aS'comment'
p2090
aS'http://t.co/9p7Hc4wJ'
p2091
aS'now.!'
p2092
aS'wall'
p2093
aS'DVD'
p2094
aS'Lol'
p2095
aS'walk'
p2096
aS'Finally'
p2097
aS'Music'
p2098
aS'together.'
p2099
aS'laugh'
p2100
aS'.-.'
p2101
aS'respect'
p2102
aS'lt;lt;lt;lt;lt;lt;'
p2103
aS'Regrets'
p2104
aS"it's"
p2105
aS'copies'
p2106
aS'Thts'
p2107
aS'Jus'
p2108
aS'http://t.co/2xGldpdo'
p2109
aS'recurring'
p2110
aS'realize'
p2111
aS'trinity'
p2112
aS'Of'
p2113
aS'received'
p2114
aS'moved'
p2115
aS'c:'
p2116
aS'finished'
p2117
aS'-.-'
p2118
aS'CDs'
p2119
aS"That's"
p2120
aS'And'
p2121
aS'quiet...'
p2122
aS'novel'
p2123
aS'nd'
p2124
aS'value'
p2125
aS'will'
p2126
aS'Pulling'
p2127
aS'wild'
p2128
aS'Babe?!'
p2129
aS'happened'
p2130
aS'Any'
p2131
aS'skool........'
p2132
aS'almost'
p2133
aS'sister!'
p2134
aS'"Learn'
p2135
aS'vs'
p2136
aS'You'
p2137
aS'whore'
p2138
aS'though!'
p2139
aS'-___-'
p2140
aS'Beat'
p2141
aS'of.'
p2142
aS'Sore'
p2143
aS'parts'
p2144
aS'tumbling'
p2145
aS'units'
p2146
aS'party'
p2147
aS'gets'
p2148
aS'difficult'
p2149
aS'ball'
p2150
aS'brag'
p2151
aS'innings'
p2152
aS'drink'
p2153
aS'Lala'
p2154
aS'#motivation'
p2155
aS'ion'
p2156
aS'fucked'
p2157
aS'off'
p2158
aS'i'
aS'Wat!?!'
p2159
aS'well'
p2160
aS'fighting'
p2161
aS'thought'
p2162
aS'wyd'
p2163
aS'Have'
p2164
aS'Need'
p2165
aS'cup.....with'
p2166
aS'newest'
p2167
aS'less'
p2168
aS'moments'
p2169
aS'believe..'
p2170
aS'going.'
p2171
aS'mistakes'
p2172
aS'fishing'
p2173
aS'twat.'
p2174
aS'bullshit.'
p2175
aS'#yeesh'
p2176
aS'"@PreciselyMikey:'
p2177
aS'worried....'
p2178
aS'""Let'
p2179
aS'Be'
p2180
aS'work.'
p2181
aS'point'
p2182
aS'sky'
p2183
aS'wen'
p2184
aS'shhh'
p2185
aS'other'
p2186
aS'wet'
p2187
aS'balloons'
p2188
aS'By'
p2189
aS'homework'
p2190
aS'pannnnnzzzyy!!'
p2191
aS'checking'
p2192
aS"who's"
p2193
aS'""water'
p2194
aS'know'
p2195
aS'#Rugby'
p2196
aS'loss'
p2197
aS'like'
p2198
aS'lost'
p2199
aS'Kassi'
p2200
aS'Simple'
p2201
aS'Sheeran'
p2202
aS'lose'
p2203
aS'become'
p2204
aS'works'
p2205
aS'Streets....'
p2206
aS'poesssion'
p2207
aS'nigga'
p2208
aS'Sun'
p2209
aS'scared'
p2210
aS'alive'
p2211
aS'self'
p2212
aS'hair'
p2213
aS'Thrones:'
p2214
aS"There's"
p2215
aS'cleveland'
p2216
aS'home'
p2217
aS'gonna'
p2218
aS'veeeeeeeeeeeeeeem'
p2219
aS'happens'
p2220
aS'before.'
p2221
aS'lead'
p2222
aS'heals'
p2223
aS'philosopher'
p2224
aS'clean.'
p2225
aS'does'
p2226
aS'ovaaaaa!'
p2227
aS'?'
aS'Default'
p2228
aS'Inside'
p2229
aS'there.'
p2230
aS'http://t.co/Nul8oZ8q'
p2231
aS'television'
p2232
aS'hurts.'
p2233
aS'about'
p2234
aS':-)'
p2235
aS'in.'
p2236
aS'alreadyyy'
p2237
aS'swear'
p2238
aS'own'
p2239
aS'awkward.'
p2240
aS'pussy'
p2241
aS'Two'
p2242
aS'STACK!'
p2243
aS'weather'
p2244
aS'female'
p2245
aS'dondo'
p2246
aS'Approach'
p2247
aS'death.'
p2248
aS'van'
p2249
aS"put'em"
p2250
aS'*fingers'
p2251
aS'#UpAllNight'
p2252
aS'bump'
p2253
aS'$300'
p2254
aS'Listening'
p2255
aS'@NurseJessica_88:'
p2256
aS'place.'
p2257
aS'Champions'
p2258
aS'Chill'
p2259
aS'buy'
p2260
aS'#NeverShouldYouEver'
p2261
aS'Der'
p2262
aS'bitches'
p2263
aS'Well'
p2264
aS'but'
p2265
aS'http://t.co/LJCAkOh8'
p2266
aS'Welp'
p2267
aS'Den'
p2268
aS'xbox360'
p2269
aS'ha'
p2270
aS'eat'
p2271
aS'he'
p2272
aS'count'
p2273
aS'Ive'
p2274
aS'made'
p2275
aS'wish'
p2276
aS'Tex'
p2277
aS'http://t.co/QMThx7Ek'
p2278
aS'limit'
p2279
aS'woke'
p2280
aS'databook'
p2281
aS'cake'
p2282
aS'most.'
p2283
aS'piece'
p2284
aS'instead'
p2285
aS'Yeah'
p2286
aS'ina'
p2287
aS'togather'
p2288
aS'Never'
p2289
aS'offensive'
p2290
aS'Ubersocial'
p2291
aS'fire'
p2292
aS'book'
p2293
aS'sick'
p2294
aS'85'
p2295
aS'talkin'
p2296
aS'Like'
p2297
aS'period.'
p2298
aS'needed.'
p2299
aS'shouldve'
p2300
aS'#here'
p2301
aS'stay'
p2302
aS'chance'
p2303
aS'U'
aS'kinda'
p2304
aS'extremity.'
p2305
aS'Out!!!!!!'
p2306
aS'friends'
p2307
aS'South'
p2308
aS'funk.'
p2309
aS'inning.'
p2310
aS"dog's"
p2311
aS'understand'
p2312
aS'yell'
p2313
atRp2314
sS'categories'
p2315
(dp2316
S'positive'
p2317
(dp2318
S'prob_word'
p2319
(dp2320
S''
F-12.433585441150495
sg5
F-12.433585441150495
sg6
F-12.433585441150495
sg7
F-11.433585441150495
sg8
F-11.433585441150495
sg9
F-12.433585441150495
sg10
F-12.433585441150495
sg11
F-10.848622940429339
sg12
F-11.433585441150495
sg13
F-11.433585441150495
sg14
F-12.433585441150495
sg15
F-11.433585441150495
sg16
F-12.433585441150495
sg17
F-11.433585441150495
sg18
F-12.433585441150495
sg19
F-12.433585441150495
sg20
F-12.433585441150495
sg21
F-12.433585441150495
sg37
F-11.433585441150495
sg23
F-11.433585441150495
sg24
F-9.2636604397081825
sg25
F-11.433585441150495
sg26
F-11.433585441150495
sg27
F-12.433585441150495
sg28
F-11.433585441150495
sg29
F-11.433585441150495
sg30
F-11.433585441150495
sg31
F-11.433585441150495
sg32
F-10.433585441150495
sg33
F-11.433585441150495
sg34
F-11.433585441150495
sg35
F-11.433585441150495
sg36
F-11.433585441150495
sg2064
F-11.433585441150495
sg38
F-10.433585441150495
sg39
F-12.433585441150495
sg40
F-12.433585441150495
sg41
F-12.433585441150495
sg42
F-11.433585441150495
sg43
F-11.433585441150495
sg44
F-11.433585441150495
sg45
F-11.433585441150495
sg46
F-12.433585441150495
sg47
F-12.433585441150495
sg48
F-10.433585441150495
sg49
F-11.433585441150495
sg50
F-11.433585441150495
sg51
F-11.433585441150495
sg52
F-11.433585441150495
sg53
F-11.433585441150495
sg54
F-11.433585441150495
sg55
F-12.433585441150495
sg57
F-11.433585441150495
sg58
F-11.433585441150495
sg286
F-12.433585441150495
sg60
F-12.433585441150495
sg61
F-12.433585441150495
sg62
F-12.433585441150495
sg63
F-11.433585441150495
sg64
F-11.433585441150495
sg65
F-11.433585441150495
sg66
F-12.433585441150495
sg67
F-9.626230519092891
sg68
F-11.433585441150495
sg69
F-10.848622940429339
sg335
F-11.433585441150495
sg834
F-10.848622940429339
sg72
F-11.433585441150495
sg73
F-9.8486229404293386
sg74
F-12.433585441150495
sg75
F-11.433585441150495
sg76
F-11.433585441150495
sg77
F-11.433585441150495
sg78
F-12.433585441150495
sg79
F-11.433585441150495
sg80
F-11.433585441150495
sg81
F-11.433585441150495
sg82
F-11.433585441150495
sg83
F-12.433585441150495
sg84
F-11.433585441150495
sg85
F-11.433585441150495
sg86
F-12.433585441150495
sg87
F-12.433585441150495
sg88
F-12.433585441150495
sg89
F-12.433585441150495
sg90
F-11.433585441150495
sg91
F-12.433585441150495
sg92
F-11.433585441150495
sg93
F-10.433585441150495
sg94
F-11.433585441150495
sg96
F-10.848622940429339
sg97
F-12.433585441150495
sg98
F-12.433585441150495
sg837
F-10.433585441150495
sg100
F-11.433585441150495
sg567
F-11.433585441150495
sg102
F-11.433585441150495
sg103
F-11.433585441150495
sg104
F-11.433585441150495
sg105
F-12.433585441150495
sg106
F-11.433585441150495
sg107
F-12.433585441150495
sg630
F-12.433585441150495
sg631
F-8.1856579277069095
sg110
F-11.433585441150495
sg111
F-11.433585441150495
sg112
F-12.433585441150495
sg113
F-11.433585441150495
sg114
F-11.433585441150495
sg115
F-11.433585441150495
sg116
F-12.433585441150495
sg117
F-10.848622940429339
sg118
F-11.433585441150495
sg684
F-11.433585441150495
sg1963
F-12.433585441150495
sg121
F-11.433585441150495
sg122
F-12.433585441150495
sg123
F-11.433585441150495
sg124
F-12.433585441150495
sg125
F-11.433585441150495
sg1250
F-12.433585441150495
sg127
F-8.9741538225131965
sg128
F-11.433585441150495
sg1964
F-10.848622940429339
sg130
F-11.433585441150495
sg751
F-11.433585441150495
sg760
F-11.433585441150495
sg1251
F-11.433585441150495
sg134
F-11.433585441150495
sg135
F-11.433585441150495
sg136
F-12.433585441150495
sg137
F-11.433585441150495
sg138
F-12.433585441150495
sg139
F-11.433585441150495
sg140
F-11.433585441150495
sg141
F-11.433585441150495
sS'A'
F-10.433585441150495
sg142
F-12.433585441150495
sg143
F-11.433585441150495
sg144
F-11.433585441150495
sg145
F-11.433585441150495
sg146
F-10.848622940429339
sg147
F-11.433585441150495
sg148
F-11.433585441150495
sg149
F-11.433585441150495
sg150
F-10.433585441150495
sg151
F-11.433585441150495
sg152
F-12.433585441150495
sg153
F-12.433585441150495
sg154
F-11.433585441150495
sg155
F-11.433585441150495
sg156
F-12.433585441150495
sg157
F-11.433585441150495
sg158
F-11.433585441150495
sg1258
F-11.433585441150495
sg160
F-11.433585441150495
sg161
F-11.433585441150495
sg162
F-11.433585441150495
sg1259
F-12.433585441150495
sg164
F-10.433585441150495
sg165
F-11.433585441150495
sg166
F-12.433585441150495
sg167
F-11.433585441150495
sg168
F-11.433585441150495
sg169
F-11.433585441150495
sg170
F-12.433585441150495
sg171
F-10.848622940429339
sg172
F-11.433585441150495
sg1781
F-11.433585441150495
sg173
F-11.433585441150495
sg174
F-12.433585441150495
sg175
F-12.433585441150495
sg176
F-11.433585441150495
sg177
F-10.111657346263133
sg178
F-10.433585441150495
sg180
F-12.433585441150495
sg181
F-12.433585441150495
sg182
F-9.8486229404293386
sg183
F-9.4335854411504947
sg184
F-11.433585441150495
sg185
F-10.848622940429339
sg186
F-11.433585441150495
sg187
F-12.433585441150495
sg188
F-8.7331457230094021
sg1264
F-12.433585441150495
sg190
F-12.433585441150495
sg191
F-11.433585441150495
sg193
F-11.433585441150495
sg194
F-11.433585441150495
sg195
F-11.433585441150495
sg196
F-11.433585441150495
sg197
F-11.433585441150495
sg199
F-11.433585441150495
sg200
F-11.433585441150495
sg201
F-11.433585441150495
sg202
F-11.433585441150495
sg203
F-12.433585441150495
sg204
F-12.433585441150495
sg1266
F-12.433585441150495
sg206
F-12.433585441150495
sg207
F-11.433585441150495
sg208
F-11.433585441150495
sg210
F-11.433585441150495
sg211
F-12.433585441150495
sg212
F-10.433585441150495
sg213
F-12.433585441150495
sg214
F-11.433585441150495
sg215
F-11.433585441150495
sg216
F-9.2636604397081825
sg217
F-11.433585441150495
sg1269
F-11.433585441150495
sg219
F-11.433585441150495
sg220
F-11.433585441150495
sg221
F-11.433585441150495
sg222
F-11.433585441150495
sg223
F-12.433585441150495
sg224
F-11.433585441150495
sg1310
F-11.433585441150495
sg226
F-11.433585441150495
sg227
F-11.433585441150495
sg228
F-12.433585441150495
sg229
F-11.433585441150495
sg230
F-11.433585441150495
sg231
F-11.433585441150495
sg233
F-11.433585441150495
sg234
F-10.848622940429339
sg235
F-12.433585441150495
sg236
F-11.433585441150495
sg237
F-12.433585441150495
sg238
F-12.433585441150495
sg239
F-11.433585441150495
sg240
F-11.433585441150495
sg241
F-11.433585441150495
sg242
F-11.433585441150495
sg243
F-11.433585441150495
sg244
F-12.433585441150495
sg245
F-12.433585441150495
sg246
F-11.433585441150495
sg247
F-10.848622940429339
sg249
F-10.848622940429339
sg250
F-12.433585441150495
sg251
F-11.433585441150495
sg252
F-11.433585441150495
sg253
F-12.433585441150495
sg1810
F-12.433585441150495
sg254
F-10.848622940429339
sg255
F-11.433585441150495
sg864
F-10.848622940429339
sg257
F-11.433585441150495
sg258
F-12.433585441150495
sg259
F-11.433585441150495
sg260
F-11.433585441150495
sg261
F-10.848622940429339
sg1862
F-11.433585441150495
sg262
F-11.433585441150495
sg263
F-11.433585441150495
sg264
F-12.433585441150495
sg265
F-11.433585441150495
sg266
F-11.433585441150495
sg267
F-11.433585441150495
sg268
F-11.433585441150495
sg269
F-11.433585441150495
sg867
F-11.433585441150495
sg271
F-11.433585441150495
sg272
F-12.433585441150495
sg1645
F-12.433585441150495
sg274
F-12.433585441150495
sg275
F-11.433585441150495
sg1646
F-12.433585441150495
sg277
F-12.433585441150495
sg278
F-11.433585441150495
sg1647
F-10.111657346263133
sS'-'
F-10.848622940429339
sg281
F-12.433585441150495
sg282
F-12.433585441150495
sg283
F-12.433585441150495
sg284
F-10.433585441150495
sg870
F-12.433585441150495
sg59
F-11.433585441150495
sg287
F-12.433585441150495
sg288
F-11.433585441150495
sg289
F-11.433585441150495
sg290
F-11.433585441150495
sg291
F-11.433585441150495
sg292
F-11.433585441150495
sg293
F-11.433585441150495
sg294
F-11.433585441150495
sg295
F-12.433585441150495
sg1985
F-12.433585441150495
sg297
F-12.433585441150495
sg298
F-11.433585441150495
sg299
F-11.433585441150495
sg300
F-12.433585441150495
sg301
F-11.433585441150495
sg302
F-11.433585441150495
sg303
F-11.433585441150495
sg304
F-12.433585441150495
sg305
F-11.433585441150495
sg306
F-12.433585441150495
sg307
F-10.848622940429339
sg308
F-12.433585441150495
sg309
F-11.433585441150495
sg310
F-11.433585441150495
sg311
F-11.433585441150495
sg1284
F-12.433585441150495
sg313
F-12.433585441150495
sg314
F-12.433585441150495
sg315
F-12.433585441150495
sg316
F-12.433585441150495
sg317
F-12.433585441150495
sg318
F-11.433585441150495
sg319
F-12.433585441150495
sg320
F-9.8486229404293386
sg321
F-11.433585441150495
sg322
F-11.433585441150495
sg323
F-11.433585441150495
sg1989
F-12.433585441150495
sg325
F-10.433585441150495
sg881
F-12.433585441150495
sg327
F-10.433585441150495
sg328
F-12.433585441150495
sg329
F-11.433585441150495
sg330
F-11.433585441150495
sg332
F-11.433585441150495
sg333
F-11.433585441150495
sg334
F-12.433585441150495
sg70
F-12.433585441150495
sg336
F-12.433585441150495
sg337
F-12.433585441150495
sg338
F-12.433585441150495
sg339
F-12.433585441150495
sg340
F-11.433585441150495
sg341
F-12.433585441150495
sg342
F-9.626230519092891
sg343
F-10.848622940429339
sg344
F-11.433585441150495
sg345
F-11.433585441150495
sg346
F-11.433585441150495
sg347
F-11.433585441150495
sg348
F-11.433585441150495
sg349
F-10.848622940429339
sg350
F-9.626230519092891
sg351
F-11.433585441150495
sg352
F-10.848622940429339
sg353
F-12.433585441150495
sg354
F-12.433585441150495
sg355
F-12.433585441150495
sg356
F-11.433585441150495
sg357
F-11.433585441150495
sg358
F-12.433585441150495
sg248
F-11.433585441150495
sg360
F-12.433585441150495
sg361
F-10.848622940429339
sg362
F-12.433585441150495
sg1289
F-12.433585441150495
sg887
F-12.433585441150495
sg56
F-11.433585441150495
sg367
F-12.433585441150495
sg368
F-11.433585441150495
sg369
F-11.433585441150495
sg370
F-12.433585441150495
sg1252
F-12.433585441150495
sg371
F-11.433585441150495
sg372
F-12.433585441150495
sg373
F-11.433585441150495
sg374
F-10.848622940429339
sg376
F-11.433585441150495
sg377
F-11.433585441150495
sg378
F-12.433585441150495
sg379
F-11.433585441150495
sg380
F-11.433585441150495
sg381
F-10.433585441150495
sg382
F-11.433585441150495
sg383
F-11.433585441150495
sg384
F-10.433585441150495
sS'.'
F-9.626230519092891
sg385
F-12.433585441150495
sg386
F-12.433585441150495
sg387
F-11.433585441150495
sg388
F-11.433585441150495
sg389
F-11.433585441150495
sg390
F-9.4335854411504947
sg391
F-12.433585441150495
sg392
F-11.433585441150495
sg393
F-12.433585441150495
sg394
F-12.433585441150495
sg395
F-12.433585441150495
sg396
F-12.433585441150495
sg397
F-11.433585441150495
sg398
F-11.433585441150495
sg399
F-12.433585441150495
sg400
F-11.433585441150495
sg401
F-12.433585441150495
sg403
F-11.433585441150495
sg404
F-11.433585441150495
sg405
F-11.433585441150495
sS'n'
F-11.433585441150495
sg406
F-11.433585441150495
sg407
F-12.433585441150495
sg408
F-11.433585441150495
sg409
F-12.433585441150495
sg410
F-11.433585441150495
sg411
F-12.433585441150495
sg412
F-11.433585441150495
sg413
F-11.433585441150495
sg414
F-11.433585441150495
sg415
F-11.433585441150495
sg1662
F-11.433585441150495
sg417
F-7.148183222288246
sg418
F-12.433585441150495
sg419
F-8.1856579277069095
sg420
F-11.433585441150495
sg421
F-12.433585441150495
sg422
F-10.848622940429339
sg423
F-10.111657346263133
sg424
F-7.041268018371734
sg425
F-12.433585441150495
sg426
F-12.433585441150495
sg427
F-12.433585441150495
sg428
F-10.111657346263133
sg429
F-12.433585441150495
sg430
F-11.433585441150495
sg431
F-11.433585441150495
sg432
F-12.433585441150495
sg433
F-10.111657346263133
sg434
F-10.433585441150495
sg435
F-11.433585441150495
sg436
F-11.433585441150495
sg1298
F-12.433585441150495
sg438
F-12.433585441150495
sg1666
F-11.433585441150495
sg441
F-11.433585441150495
sg442
F-11.433585441150495
sg443
F-11.433585441150495
sg444
F-11.433585441150495
sg445
F-11.433585441150495
sg446
F-11.433585441150495
sg447
F-11.433585441150495
sg448
F-12.433585441150495
sg2002
F-11.433585441150495
sg449
F-11.433585441150495
sg1635
F-11.433585441150495
sg450
F-11.433585441150495
sg451
F-11.433585441150495
sg452
F-11.433585441150495
sg454
F-12.433585441150495
sg455
F-11.433585441150495
sg456
F-11.433585441150495
sg457
F-12.433585441150495
sg458
F-11.433585441150495
sg459
F-5.2737141043721047
sg460
F-11.433585441150495
sg461
F-10.848622940429339
sg462
F-11.433585441150495
sg463
F-11.433585441150495
sg464
F-8.2636604397081825
sg465
F-12.433585441150495
sg466
F-11.433585441150495
sg467
F-11.433585441150495
sg468
F-11.433585441150495
sg469
F-12.433585441150495
sg1805
F-11.433585441150495
sg470
F-11.433585441150495
sg471
F-9.8486229404293386
sg472
F-11.433585441150495
sg473
F-12.433585441150495
sg474
F-12.433585441150495
sg475
F-11.433585441150495
sg476
F-11.433585441150495
sg477
F-11.433585441150495
sg478
F-11.433585441150495
sg479
F-12.433585441150495
sg480
F-12.433585441150495
sg481
F-12.433585441150495
sg484
F-11.433585441150495
sg486
F-12.433585441150495
sg487
F-12.433585441150495
sg488
F-11.433585441150495
sg489
F-12.433585441150495
sg491
F-11.433585441150495
sg492
F-11.433585441150495
sg493
F-12.433585441150495
sg494
F-12.433585441150495
sg1765
F-12.433585441150495
sg495
F-10.848622940429339
sg496
F-10.848622940429339
sg497
F-11.433585441150495
sg498
F-11.433585441150495
sg499
F-11.433585441150495
sg500
F-10.433585441150495
sg501
F-11.433585441150495
sg502
F-12.433585441150495
sg503
F-9.4335854411504947
sg504
F-11.433585441150495
sg505
F-12.433585441150495
sg911
F-12.433585441150495
sg912
F-12.433585441150495
sg1820
F-12.433585441150495
sg1470
F-12.433585441150495
sg508
F-11.433585441150495
sg509
F-11.433585441150495
sg510
F-10.848622940429339
sg511
F-7.6786979389870256
sg618
F-11.433585441150495
sg625
F-11.433585441150495
sg514
F-11.433585441150495
sg515
F-12.433585441150495
sg516
F-12.433585441150495
sg517
F-12.433585441150495
sg518
F-12.433585441150495
sg519
F-11.433585441150495
sg642
F-10.848622940429339
sg521
F-11.433585441150495
sg522
F-11.433585441150495
sg668
F-11.433585441150495
sg524
F-12.433585441150495
sg525
F-11.433585441150495
sg526
F-12.433585441150495
sg527
F-12.433585441150495
sg528
F-11.433585441150495
sg529
F-11.433585441150495
sg530
F-11.433585441150495
sS'o'
F-12.433585441150495
sg744
F-11.433585441150495
sg2013
F-11.433585441150495
sg533
F-11.433585441150495
sg534
F-12.433585441150495
sg2094
F-10.848622940429339
sg535
F-11.433585441150495
sg536
F-12.433585441150495
sg537
F-12.433585441150495
sg784
F-11.433585441150495
sg539
F-12.433585441150495
sg540
F-11.433585441150495
sg541
F-11.433585441150495
sg542
F-11.433585441150495
sg543
F-12.433585441150495
sg544
F-10.848622940429339
sg545
F-12.433585441150495
sg546
F-11.433585441150495
sg2014
F-12.433585441150495
sg363
F-12.433585441150495
sg549
F-9.8486229404293386
sg550
F-12.433585441150495
sg551
F-11.433585441150495
sg552
F-12.433585441150495
sg553
F-9.2636604397081825
sg2185
F-12.433585441150495
sg554
F-11.433585441150495
sg555
F-11.433585441150495
sg556
F-11.433585441150495
sg557
F-11.433585441150495
sg558
F-11.433585441150495
sg559
F-11.433585441150495
sg560
F-11.433585441150495
sg561
F-11.433585441150495
sg562
F-12.433585441150495
sg947
F-11.433585441150495
sg565
F-11.433585441150495
sg963
F-11.433585441150495
sg101
F-12.433585441150495
sg568
F-11.433585441150495
sg569
F-12.433585441150495
sg926
F-12.433585441150495
sg571
F-11.433585441150495
sg572
F-12.433585441150495
sg573
F-11.433585441150495
sg574
F-10.111657346263133
sg575
F-12.433585441150495
sg576
F-12.433585441150495
sg577
F-11.433585441150495
sg578
F-12.433585441150495
sg579
F-12.433585441150495
sg580
F-9.4335854411504947
sg581
F-12.433585441150495
sg582
F-12.433585441150495
sg583
F-12.433585441150495
sg584
F-12.433585441150495
sg585
F-12.433585441150495
sg586
F-11.433585441150495
sg1102
F-11.433585441150495
sg588
F-12.433585441150495
sg589
F-11.433585441150495
sg1122
F-12.433585441150495
sg591
F-11.433585441150495
sg592
F-12.433585441150495
sg593
F-11.433585441150495
sg594
F-12.433585441150495
sg595
F-11.433585441150495
sg596
F-11.433585441150495
sg597
F-12.433585441150495
sg598
F-11.433585441150495
sg599
F-12.433585441150495
sg600
F-12.433585441150495
sg601
F-12.433585441150495
sg602
F-12.433585441150495
sg1323
F-12.433585441150495
sg604
F-10.848622940429339
sg605
F-11.433585441150495
sg606
F-11.433585441150495
sg607
F-12.433585441150495
sg608
F-12.433585441150495
sg609
F-9.4335854411504947
sg610
F-11.433585441150495
sg1324
F-9.8486229404293386
sg612
F-11.433585441150495
sg613
F-12.433585441150495
sg614
F-12.433585441150495
sg615
F-9.626230519092891
sg616
F-12.433585441150495
sg617
F-12.433585441150495
sg512
F-12.433585441150495
sg619
F-10.848622940429339
sg620
F-12.433585441150495
sg621
F-11.433585441150495
sg622
F-12.433585441150495
sg623
F-11.433585441150495
sg624
F-11.433585441150495
sg513
F-12.433585441150495
sg626
F-11.433585441150495
sg627
F-12.433585441150495
sg628
F-12.433585441150495
sS'0'
F-12.433585441150495
sg629
F-12.433585441150495
sg108
F-10.848622940429339
sg109
F-12.433585441150495
sg633
F-11.433585441150495
sg634
F-11.433585441150495
sg635
F-11.433585441150495
sg636
F-11.433585441150495
sg637
F-12.433585441150495
sg638
F-11.433585441150495
sg639
F-11.433585441150495
sg640
F-12.433585441150495
sg641
F-12.433585441150495
sg520
F-12.433585441150495
sg643
F-9.4335854411504947
sg644
F-10.111657346263133
sg645
F-11.433585441150495
sg646
F-11.433585441150495
sg647
F-10.848622940429339
sg648
F-12.433585441150495
sg649
F-11.433585441150495
sg2138
F-12.433585441150495
sg650
F-12.433585441150495
sg651
F-11.433585441150495
sg652
F-11.433585441150495
sg653
F-11.433585441150495
sg654
F-11.433585441150495
sg655
F-11.433585441150495
sg656
F-11.433585441150495
sg657
F-12.433585441150495
sg658
F-12.433585441150495
sg659
F-12.433585441150495
sg660
F-12.433585441150495
sg661
F-12.433585441150495
sg662
F-11.433585441150495
sg663
F-11.433585441150495
sg664
F-11.433585441150495
sg665
F-11.433585441150495
sg666
F-11.433585441150495
sg667
F-11.433585441150495
sg523
F-12.433585441150495
sg669
F-10.848622940429339
sg670
F-11.433585441150495
sg671
F-12.433585441150495
sg672
F-11.433585441150495
sg674
F-11.433585441150495
sg675
F-11.433585441150495
sg1704
F-12.433585441150495
sg676
F-11.433585441150495
sg677
F-11.433585441150495
sg678
F-10.848622940429339
sg679
F-12.433585441150495
sg680
F-11.433585441150495
sg681
F-10.848622940429339
sg682
F-12.433585441150495
sg683
F-11.433585441150495
sg119
F-7.1856579277069086
sg686
F-11.433585441150495
sg687
F-12.433585441150495
sg485
F-11.433585441150495
sg689
F-12.433585441150495
sg1344
F-12.433585441150495
sg691
F-11.433585441150495
sg692
F-8.7331457230094021
sg693
F-11.433585441150495
sg694
F-11.433585441150495
sg696
F-10.111657346263133
sg697
F-11.433585441150495
sg698
F-12.433585441150495
sg699
F-12.433585441150495
sg700
F-11.433585441150495
sg1710
F-11.433585441150495
sg702
F-12.433585441150495
sg703
F-12.433585441150495
sg704
F-10.111657346263133
sg706
F-11.433585441150495
sg707
F-11.433585441150495
sg708
F-10.848622940429339
sg709
F-9.8486229404293386
sg710
F-11.433585441150495
sg711
F-12.433585441150495
sg712
F-12.433585441150495
sg713
F-12.433585441150495
sg714
F-12.433585441150495
sg715
F-11.433585441150495
sg716
F-11.433585441150495
sg717
F-12.433585441150495
sg718
F-12.433585441150495
sg719
F-8.9741538225131965
sg720
F-11.433585441150495
sg721
F-11.433585441150495
sg722
F-12.433585441150495
sg723
F-11.433585441150495
sg724
F-12.433585441150495
sg725
F-10.848622940429339
sg726
F-11.433585441150495
sg727
F-11.433585441150495
sg728
F-11.433585441150495
sg729
F-12.433585441150495
sg730
F-11.433585441150495
sg731
F-11.433585441150495
sg732
F-11.433585441150495
sg733
F-12.433585441150495
sg1353
F-12.433585441150495
sg735
F-11.433585441150495
sg736
F-11.433585441150495
sg737
F-11.433585441150495
sS'1'
F-10.848622940429339
sg739
F-12.433585441150495
sg740
F-12.433585441150495
sg741
F-11.433585441150495
sS'!'
F-9.626230519092891
sg743
F-11.433585441150495
sg1031
F-11.433585441150495
sg745
F-12.433585441150495
sg746
F-11.433585441150495
sg747
F-12.433585441150495
sg748
F-11.433585441150495
sg749
F-11.433585441150495
sg750
F-11.433585441150495
sg1176
F-12.433585441150495
sg752
F-12.433585441150495
sg753
F-11.433585441150495
sg754
F-11.433585441150495
sg755
F-11.433585441150495
sg756
F-10.848622940429339
sg757
F-12.433585441150495
sg758
F-11.433585441150495
sg759
F-11.433585441150495
sg761
F-11.433585441150495
sg762
F-11.433585441150495
sg763
F-9.111657346263133
sg764
F-11.433585441150495
sg765
F-10.433585441150495
sg766
F-12.433585441150495
sg1360
F-12.433585441150495
sg768
F-12.433585441150495
sg769
F-12.433585441150495
sg770
F-12.433585441150495
sg771
F-11.433585441150495
sg772
F-12.433585441150495
sg773
F-12.433585441150495
sg774
F-11.433585441150495
sg775
F-12.433585441150495
sg776
F-12.433585441150495
sg777
F-12.433585441150495
sg778
F-10.433585441150495
sg779
F-10.433585441150495
sg780
F-11.433585441150495
sg781
F-10.848622940429339
sg782
F-11.433585441150495
sg783
F-12.433585441150495
sg538
F-12.433585441150495
sg785
F-11.433585441150495
sg786
F-12.433585441150495
sg787
F-11.433585441150495
sg788
F-11.433585441150495
sg789
F-12.433585441150495
sg790
F-10.433585441150495
sg791
F-11.433585441150495
sg792
F-12.433585441150495
sg548
F-11.433585441150495
sg794
F-11.433585441150495
sg2057
F-11.433585441150495
sg796
F-11.433585441150495
sg797
F-11.433585441150495
sg798
F-11.433585441150495
sg799
F-12.433585441150495
sg800
F-12.433585441150495
sg801
F-9.626230519092891
sg802
F-9.2636604397081825
sg803
F-12.433585441150495
sg804
F-12.433585441150495
sg805
F-11.433585441150495
sg806
F-11.433585441150495
sg807
F-11.433585441150495
sg808
F-11.433585441150495
sg809
F-12.433585441150495
sg810
F-11.433585441150495
sg811
F-12.433585441150495
sg812
F-11.433585441150495
sg813
F-11.433585441150495
sg814
F-11.433585441150495
sg815
F-12.433585441150495
sg816
F-12.433585441150495
sg564
F-11.433585441150495
sg818
F-11.433585441150495
sg819
F-12.433585441150495
sg820
F-11.433585441150495
sg821
F-11.433585441150495
sg822
F-11.433585441150495
sg1208
F-11.433585441150495
sg824
F-12.433585441150495
sg825
F-12.433585441150495
sg826
F-12.433585441150495
sg827
F-12.433585441150495
sg828
F-10.848622940429339
sg829
F-11.433585441150495
sg830
F-11.433585441150495
sg831
F-12.433585441150495
sg832
F-10.433585441150495
sg833
F-11.433585441150495
sS'G'
F-11.433585441150495
sg71
F-11.433585441150495
sg835
F-11.433585441150495
sg836
F-11.433585441150495
sg99
F-11.433585441150495
sg838
F-11.433585441150495
sg839
F-11.433585441150495
sg840
F-12.433585441150495
sg132
F-10.111657346263133
sg842
F-10.433585441150495
sg843
F-11.433585441150495
sg844
F-10.111657346263133
sg845
F-10.848622940429339
sg846
F-11.433585441150495
sg847
F-11.433585441150495
sg848
F-12.433585441150495
sg849
F-11.433585441150495
sg850
F-10.433585441150495
sg851
F-11.433585441150495
sg852
F-11.433585441150495
sg853
F-11.433585441150495
sg1096
F-11.433585441150495
sg855
F-12.433585441150495
sg856
F-12.433585441150495
sg857
F-11.433585441150495
sg858
F-10.848622940429339
sg859
F-11.433585441150495
sg860
F-12.433585441150495
sg861
F-10.848622940429339
sg862
F-12.433585441150495
sS't'
F-12.433585441150495
sg863
F-12.433585441150495
sS'2'
F-11.433585441150495
sg256
F-11.433585441150495
sg865
F-11.433585441150495
sg866
F-11.433585441150495
sg270
F-11.433585441150495
sg868
F-11.433585441150495
sg869
F-7.5756044460229219
sg285
F-12.433585441150495
sg871
F-11.433585441150495
sg872
F-12.433585441150495
sg873
F-12.433585441150495
sg875
F-12.433585441150495
sg876
F-12.433585441150495
sg877
F-12.433585441150495
sg878
F-10.848622940429339
sg879
F-12.433585441150495
sg880
F-11.433585441150495
sg326
F-12.433585441150495
sg882
F-12.433585441150495
sg883
F-10.433585441150495
sg884
F-12.433585441150495
sg885
F-11.433585441150495
sS'r'
F-12.433585441150495
sg886
F-10.848622940429339
sg365
F-11.433585441150495
sg888
F-6.3891913217920413
sg889
F-12.433585441150495
sg890
F-12.433585441150495
sg891
F-12.433585441150495
sg892
F-12.433585441150495
sg893
F-11.433585441150495
sg894
F-9.8486229404293386
sg895
F-12.433585441150495
sg896
F-11.433585441150495
sg897
F-11.433585441150495
sg898
F-11.433585441150495
sg899
F-11.433585441150495
sg900
F-12.433585441150495
sg902
F-12.433585441150495
sg903
F-12.433585441150495
sg904
F-12.433585441150495
sg905
F-11.433585441150495
sg906
F-12.433585441150495
sg907
F-12.433585441150495
sg908
F-12.433585441150495
sg909
F-11.433585441150495
sg910
F-12.433585441150495
sg506
F-11.433585441150495
sg507
F-10.848622940429339
sg913
F-11.433585441150495
sg914
F-12.433585441150495
sg915
F-11.433585441150495
sg916
F-11.433585441150495
sg917
F-11.433585441150495
sg918
F-11.433585441150495
sg919
F-12.433585441150495
sg920
F-12.433585441150495
sg921
F-12.433585441150495
sg922
F-11.433585441150495
sg923
F-11.433585441150495
sg924
F-11.433585441150495
sg925
F-11.433585441150495
sg570
F-11.433585441150495
sg927
F-11.433585441150495
sg928
F-11.433585441150495
sg930
F-11.433585441150495
sg931
F-12.433585441150495
sg932
F-11.433585441150495
sg933
F-10.433585441150495
sg934
F-12.433585441150495
sg935
F-12.433585441150495
sg937
F-11.433585441150495
sg938
F-10.848622940429339
sg939
F-10.848622940429339
sg941
F-11.433585441150495
sg942
F-12.433585441150495
sg943
F-11.433585441150495
sg944
F-10.433585441150495
sg945
F-9.111657346263133
sg946
F-11.433585441150495
sg563
F-11.433585441150495
sg949
F-8.9741538225131965
sg950
F-12.433585441150495
sg951
F-11.433585441150495
sg952
F-12.433585441150495
sg953
F-11.433585441150495
sg2160
F-10.433585441150495
sg1385
F-12.433585441150495
sg955
F-11.433585441150495
sg956
F-11.433585441150495
sg957
F-12.433585441150495
sg958
F-12.433585441150495
sg959
F-11.433585441150495
sg960
F-11.433585441150495
sg2076
F-11.433585441150495
sg962
F-10.433585441150495
sg566
F-11.433585441150495
sg964
F-12.433585441150495
sg965
F-12.433585441150495
sg966
F-11.433585441150495
sg967
F-11.433585441150495
sg968
F-12.433585441150495
sg969
F-11.433585441150495
sg970
F-12.433585441150495
sg971
F-11.433585441150495
sg972
F-11.433585441150495
sg973
F-12.433585441150495
sg974
F-12.433585441150495
sg975
F-11.433585441150495
sg976
F-11.433585441150495
sg22
F-11.433585441150495
sg977
F-12.433585441150495
sg978
F-11.433585441150495
sS'3'
F-11.433585441150495
sg979
F-10.111657346263133
sg980
F-12.433585441150495
sg981
F-10.848622940429339
sg982
F-11.433585441150495
sg983
F-11.433585441150495
sg984
F-11.433585441150495
sg2253
F-11.433585441150495
sg985
F-12.433585441150495
sg986
F-12.433585441150495
sg987
F-11.433585441150495
sg988
F-12.433585441150495
sg989
F-12.433585441150495
sg990
F-11.433585441150495
sg991
F-12.433585441150495
sg992
F-12.433585441150495
sg993
F-11.433585441150495
sg994
F-9.111657346263133
sg995
F-11.433585441150495
sS's'
F-11.433585441150495
sg997
F-12.433585441150495
sg998
F-11.433585441150495
sg999
F-10.848622940429339
sg1000
F-11.433585441150495
sg1001
F-12.433585441150495
sg1002
F-11.433585441150495
sg1003
F-11.433585441150495
sg2310
F-12.433585441150495
sg1004
F-11.433585441150495
sg1005
F-12.433585441150495
sg1006
F-11.433585441150495
sg1007
F-11.433585441150495
sg1008
F-12.433585441150495
sg1009
F-11.433585441150495
sg1134
F-12.433585441150495
sg1011
F-11.433585441150495
sg1147
F-12.433585441150495
sg1013
F-12.433585441150495
sg1014
F-11.433585441150495
sg1015
F-11.433585441150495
sg1017
F-12.433585441150495
sg1018
F-11.433585441150495
sg1019
F-11.433585441150495
sg1020
F-12.433585441150495
sg1021
F-11.433585441150495
sg1022
F-12.433585441150495
sg2085
F-11.433585441150495
sg1024
F-11.433585441150495
sg1025
F-12.433585441150495
sg1026
F-10.848622940429339
sg1027
F-12.433585441150495
sg1028
F-12.433585441150495
sg1030
F-10.433585441150495
sg1032
F-11.433585441150495
sg1033
F-11.433585441150495
sg1034
F-12.433585441150495
sg1035
F-11.433585441150495
sg2086
F-12.433585441150495
sg1037
F-12.433585441150495
sg1038
F-11.433585441150495
sg1039
F-12.433585441150495
sg1040
F-12.433585441150495
sg1041
F-12.433585441150495
sg1042
F-12.433585441150495
sg1043
F-11.433585441150495
sg1044
F-12.433585441150495
sg1045
F-11.433585441150495
sg1046
F-12.433585441150495
sg1047
F-11.433585441150495
sg1048
F-11.433585441150495
sg1049
F-10.848622940429339
sg1050
F-12.433585441150495
sg1051
F-10.848622940429339
sg1052
F-11.433585441150495
sg1053
F-11.433585441150495
sg1054
F-11.433585441150495
sg1055
F-12.433585441150495
sg1056
F-11.433585441150495
sg1057
F-10.433585441150495
sg1058
F-10.848622940429339
sg1059
F-11.433585441150495
sg1366
F-12.433585441150495
sg1060
F-10.433585441150495
sg1061
F-12.433585441150495
sg1062
F-12.433585441150495
sS'I'
F-6.1667989004555936
sg1063
F-11.433585441150495
sg1064
F-11.433585441150495
sg1065
F-10.848622940429339
sg1066
F-11.433585441150495
sg1067
F-12.433585441150495
sg1068
F-10.848622940429339
sg1406
F-12.433585441150495
sg1070
F-11.433585441150495
sg1071
F-10.848622940429339
sg1072
F-10.848622940429339
sg1073
F-11.433585441150495
sg1074
F-11.433585441150495
sg1075
F-11.433585441150495
sg1974
F-11.433585441150495
sg1076
F-9.111657346263133
sg1077
F-12.433585441150495
sg1078
F-12.433585441150495
sg1079
F-11.433585441150495
sg1080
F-12.433585441150495
sg1081
F-11.433585441150495
sg1082
F-9.626230519092891
sg1083
F-11.433585441150495
sg1084
F-10.848622940429339
sg1085
F-12.433585441150495
sg2091
F-12.433585441150495
sg1087
F-12.433585441150495
sg1088
F-12.433585441150495
sg1089
F-12.433585441150495
sg1090
F-11.433585441150495
sg1091
F-11.433585441150495
sg1770
F-12.433585441150495
sg1093
F-12.433585441150495
sg1094
F-11.433585441150495
sS'4'
F-12.433585441150495
sg1095
F-12.433585441150495
sg1097
F-11.433585441150495
sg1098
F-11.433585441150495
sg1099
F-12.433585441150495
sg1100
F-12.433585441150495
sg1101
F-12.433585441150495
sg587
F-11.433585441150495
sg1103
F-11.433585441150495
sg1104
F-11.433585441150495
sg1105
F-11.433585441150495
sg2096
F-11.433585441150495
sg1107
F-12.433585441150495
sg1108
F-11.433585441150495
sg1109
F-12.433585441150495
sg1110
F-11.433585441150495
sg1111
F-12.433585441150495
sg1112
F-11.433585441150495
sg1244
F-11.433585441150495
sg1413
F-11.433585441150495
sg1115
F-12.433585441150495
sg1116
F-12.433585441150495
sg1117
F-11.433585441150495
sg1118
F-12.433585441150495
sg1119
F-11.433585441150495
sg2101
F-11.433585441150495
sg1905
F-11.433585441150495
sg1120
F-10.848622940429339
sg1121
F-12.433585441150495
sg590
F-12.433585441150495
sg1123
F-11.433585441150495
sg1124
F-12.433585441150495
sg1125
F-12.433585441150495
sg1126
F-10.848622940429339
sg1127
F-12.433585441150495
sg1128
F-11.433585441150495
sg1416
F-12.433585441150495
sg2104
F-12.433585441150495
sg1131
F-11.433585441150495
sg2130
F-12.433585441150495
sg1132
F-11.433585441150495
sg1133
F-11.433585441150495
sg1010
F-12.433585441150495
sg1135
F-12.433585441150495
sg1136
F-12.433585441150495
sg531
F-11.433585441150495
sg1138
F-12.433585441150495
sg1139
F-12.433585441150495
sg1140
F-12.433585441150495
sg1141
F-12.433585441150495
sg1142
F-10.848622940429339
sg1143
F-7.1856579277069086
sg1144
F-11.433585441150495
sg1145
F-11.433585441150495
sg1146
F-6.8188755970352863
sg1012
F-12.433585441150495
sg1148
F-12.433585441150495
sg1149
F-9.626230519092891
sg1150
F-12.433585441150495
sg1151
F-10.848622940429339
sg1152
F-12.433585441150495
sg1153
F-11.433585441150495
sg1154
F-11.433585441150495
sg2120
F-12.433585441150495
sg1420
F-12.433585441150495
sg1156
F-11.433585441150495
sg1157
F-12.433585441150495
sg1158
F-12.433585441150495
sg1159
F-8.7331457230094021
sg1160
F-10.848622940429339
sg1161
F-11.433585441150495
sg1162
F-9.626230519092891
sg1163
F-11.433585441150495
sg1164
F-12.433585441150495
sg1165
F-11.433585441150495
sg1166
F-11.433585441150495
sg1167
F-11.433585441150495
sg1168
F-11.433585441150495
sg1169
F-12.433585441150495
sg1170
F-11.433585441150495
sg1171
F-10.848622940429339
sg1172
F-11.433585441150495
sg1173
F-11.433585441150495
sg1174
F-12.433585441150495
sg1175
F-11.433585441150495
sg1177
F-11.433585441150495
sg1178
F-12.433585441150495
sg1179
F-11.433585441150495
sg1180
F-7.5756044460229219
sg1181
F-11.433585441150495
sg1182
F-12.433585441150495
sg1183
F-12.433585441150495
sg1184
F-11.433585441150495
sg1185
F-12.433585441150495
sg1186
F-11.433585441150495
sg1187
F-12.433585441150495
sg1188
F-12.433585441150495
sg1189
F-12.433585441150495
sg1190
F-12.433585441150495
sg1191
F-11.433585441150495
sg1192
F-9.8486229404293386
sg1193
F-12.433585441150495
sg1194
F-11.433585441150495
sg1195
F-11.433585441150495
sg1196
F-9.4335854411504947
sg1197
F-11.433585441150495
sg1198
F-8.3461225999001538
sg1199
F-11.433585441150495
sg1200
F-12.433585441150495
sg1201
F-12.433585441150495
sg1202
F-12.433585441150495
sg1203
F-10.848622940429339
sg1204
F-12.433585441150495
sg1205
F-12.433585441150495
sg1206
F-11.433585441150495
sg1207
F-12.433585441150495
sg2143
F-12.433585441150495
sS'5'
F-12.433585441150495
sg1209
F-12.433585441150495
sg1210
F-7.2241320755215446
sg1211
F-12.433585441150495
sg1788
F-12.433585441150495
sg1213
F-11.433585441150495
sg1214
F-11.433585441150495
sg1215
F-11.433585441150495
sg1216
F-12.433585441150495
sg1217
F-12.433585441150495
sg695
F-11.433585441150495
sg1219
F-11.433585441150495
sg1220
F-12.433585441150495
sg1221
F-11.433585441150495
sg1222
F-11.433585441150495
sg1223
F-11.433585441150495
sg1224
F-12.433585441150495
sg1225
F-12.433585441150495
sg1226
F-11.433585441150495
sS'u'
F-10.848622940429339
sg1446
F-10.848622940429339
sg1227
F-12.433585441150495
sg1228
F-12.433585441150495
sg1229
F-11.433585441150495
sg1230
F-8.626230519092891
sg1231
F-10.433585441150495
sg1232
F-12.433585441150495
sg1233
F-12.433585441150495
sg1234
F-12.433585441150495
sg1235
F-11.433585441150495
sg1236
F-12.433585441150495
sg1237
F-12.433585441150495
sg1238
F-11.433585441150495
sg1239
F-11.433585441150495
sg1241
F-11.433585441150495
sg1242
F-12.433585441150495
sg1243
F-11.433585441150495
sg1245
F-5.941732344820819
sg1246
F-12.433585441150495
sg1247
F-11.433585441150495
sg1248
F-11.433585441150495
sg632
F-11.433585441150495
sg126
F-12.433585441150495
sg133
F-10.848622940429339
sg375
F-10.848622940429339
sg1253
F-11.433585441150495
sg1254
F-11.433585441150495
sg1255
F-11.433585441150495
sg1256
F-11.433585441150495
sg1257
F-10.848622940429339
sg159
F-11.433585441150495
sg163
F-11.433585441150495
sg1260
F-11.433585441150495
sg1261
F-8.4335854411504947
sg1262
F-12.433585441150495
sg1263
F-11.433585441150495
sg189
F-11.433585441150495
sg1265
F-10.111657346263133
sg205
F-11.433585441150495
sg1267
F-12.433585441150495
sg1268
F-12.433585441150495
sg218
F-11.433585441150495
sg1270
F-11.433585441150495
sg1271
F-11.433585441150495
sg1272
F-11.433585441150495
sg1273
F-11.433585441150495
sg1274
F-11.433585441150495
sg1798
F-12.433585441150495
sg1276
F-11.433585441150495
sg1277
F-12.433585441150495
sg1278
F-12.433585441150495
sg1279
F-11.433585441150495
sg1280
F-9.111657346263133
sg1281
F-12.433585441150495
sg1282
F-10.848622940429339
sg1283
F-12.433585441150495
sg312
F-11.433585441150495
sg1285
F-12.433585441150495
sg1286
F-11.433585441150495
sg1287
F-11.433585441150495
sg1288
F-11.433585441150495
sg364
F-11.433585441150495
sg1290
F-11.433585441150495
sg1291
F-12.433585441150495
sg1292
F-11.433585441150495
sg1293
F-11.433585441150495
sg1294
F-11.433585441150495
sg1295
F-11.433585441150495
sg1296
F-12.433585441150495
sg2131
F-11.433585441150495
sg1297
F-12.433585441150495
sg437
F-12.433585441150495
sg1299
F-11.433585441150495
sg1300
F-10.848622940429339
sg1301
F-12.433585441150495
sg1302
F-11.433585441150495
sg1303
F-12.433585441150495
sg1304
F-11.433585441150495
sg1305
F-12.433585441150495
sg490
F-11.433585441150495
sg1307
F-12.433585441150495
sg2162
F-11.433585441150495
sg1308
F-11.433585441150495
sg1309
F-11.433585441150495
sg1311
F-12.433585441150495
sg1312
F-11.433585441150495
sg1313
F-11.433585441150495
sg1314
F-10.433585441150495
sg1315
F-12.433585441150495
sg1448
F-12.433585441150495
sS'6'
F-11.433585441150495
sg2190
F-12.433585441150495
sg1317
F-9.8486229404293386
sg1318
F-11.433585441150495
sg1319
F-12.433585441150495
sg1320
F-12.433585441150495
sg1321
F-11.433585441150495
sg1322
F-12.433585441150495
sg603
F-11.433585441150495
sg611
F-11.433585441150495
sg1325
F-12.433585441150495
sg1326
F-11.433585441150495
sg1327
F-11.433585441150495
sg1328
F-12.433585441150495
sg1329
F-10.848622940429339
sg1330
F-12.433585441150495
sg1331
F-10.848622940429339
sg1332
F-11.433585441150495
sg1773
F-11.433585441150495
sg1334
F-12.433585441150495
sg1335
F-11.433585441150495
sg1336
F-12.433585441150495
sg1337
F-12.433585441150495
sg1338
F-10.848622940429339
sg1339
F-12.433585441150495
sg1340
F-12.433585441150495
sg1341
F-12.433585441150495
sg1342
F-12.433585441150495
sg1343
F-11.433585441150495
sg690
F-11.433585441150495
sg1345
F-11.433585441150495
sg1623
F-10.433585441150495
sg1347
F-12.433585441150495
sg1348
F-11.433585441150495
sg1349
F-10.848622940429339
sg1351
F-11.433585441150495
sg1352
F-12.433585441150495
sg734
F-11.433585441150495
sg738
F-11.433585441150495
sg742
F-12.433585441150495
sg1355
F-10.848622940429339
sg1356
F-10.848622940429339
sg1357
F-11.433585441150495
sg1358
F-12.433585441150495
sg1359
F-11.433585441150495
sg767
F-11.433585441150495
sg1361
F-12.433585441150495
sg1430
F-11.433585441150495
sg1363
F-11.433585441150495
sg1364
F-11.433585441150495
sg1365
F-11.433585441150495
sg1129
F-11.433585441150495
sg823
F-12.433585441150495
sg1368
F-12.433585441150495
sg1369
F-11.433585441150495
sS'a'
F-6.9100234850934807
sg1370
F-12.433585441150495
sg1371
F-12.433585441150495
sg453
F-11.433585441150495
sg1373
F-11.433585441150495
sg1374
F-12.433585441150495
sg1375
F-11.433585441150495
sg1376
F-12.433585441150495
sg1377
F-12.433585441150495
sg1378
F-10.848622940429339
sg1460
F-11.433585441150495
sg1380
F-12.433585441150495
sg1381
F-11.433585441150495
sg1382
F-11.433585441150495
sg1383
F-10.433585441150495
sg1384
F-11.433585441150495
sg954
F-11.433585441150495
sg1386
F-10.848622940429339
sg1387
F-11.433585441150495
sg1388
F-10.111657346263133
sg1389
F-12.433585441150495
sg1390
F-10.848622940429339
sg996
F-11.433585441150495
sg1392
F-12.433585441150495
sg1393
F-11.433585441150495
sg1394
F-12.433585441150495
sg483
F-11.433585441150495
sg1396
F-12.433585441150495
sg1029
F-11.433585441150495
sg1398
F-12.433585441150495
sg1399
F-11.433585441150495
sg1400
F-12.433585441150495
sg198
F-9.626230519092891
sg1402
F-12.433585441150495
sg1403
F-10.848622940429339
sg1404
F-10.848622940429339
sg2146
F-12.433585441150495
sg1069
F-11.433585441150495
sg1407
F-11.433585441150495
sg1408
F-11.433585441150495
sg1409
F-12.433585441150495
sg1410
F-12.433585441150495
sg1411
F-11.433585441150495
sg1412
F-12.433585441150495
sg1114
F-9.8486229404293386
sg1414
F-12.433585441150495
sg1415
F-12.433585441150495
sg1401
F-10.848622940429339
sg1417
F-11.433585441150495
sg1418
F-11.433585441150495
sg1419
F-12.433585441150495
sg1155
F-11.433585441150495
sg1421
F-12.433585441150495
sg1422
F-11.433585441150495
sg1423
F-12.433585441150495
sg1424
F-11.433585441150495
sg1425
F-11.433585441150495
sg1426
F-12.433585441150495
sg1427
F-12.433585441150495
sg1428
F-9.8486229404293386
sg1429
F-11.433585441150495
sg1218
F-11.433585441150495
sg1431
F-11.433585441150495
sg1432
F-12.433585441150495
sg1786
F-12.433585441150495
sg1433
F-12.433585441150495
sg1434
F-11.433585441150495
sg1435
F-11.433585441150495
sS'7'
F-11.433585441150495
sg1436
F-12.433585441150495
sg1437
F-10.848622940429339
sg1438
F-11.433585441150495
sg1367
F-12.433585441150495
sg1439
F-12.433585441150495
sg1440
F-11.433585441150495
sg1441
F-12.433585441150495
sg1442
F-11.433585441150495
sg1443
F-11.433585441150495
sg1444
F-11.433585441150495
sg1445
F-12.433585441150495
sg439
F-11.433585441150495
sg1447
F-11.433585441150495
sg1316
F-11.433585441150495
sg1449
F-12.433585441150495
sg1450
F-12.433585441150495
sg1451
F-12.433585441150495
sg685
F-11.433585441150495
sg1453
F-11.433585441150495
sg1454
F-11.433585441150495
sg1456
F-10.848622940429339
sg1457
F-11.433585441150495
sg1458
F-11.433585441150495
sg1459
F-12.433585441150495
sg1379
F-11.433585441150495
sg1461
F-12.433585441150495
sg1462
F-10.433585441150495
sg1463
F-12.433585441150495
sg2157
F-12.433585441150495
sg1465
F-12.433585441150495
sg1466
F-12.433585441150495
sg1467
F-12.433585441150495
sg1468
F-11.433585441150495
sg1469
F-11.433585441150495
sg95
F-11.433585441150495
sg1471
F-10.433585441150495
sg1472
F-12.433585441150495
sg1473
F-10.433585441150495
sg1474
F-11.433585441150495
sg1475
F-11.433585441150495
sg1476
F-11.433585441150495
sg1477
F-11.433585441150495
sg1478
F-11.433585441150495
sg1479
F-11.433585441150495
sg1480
F-12.433585441150495
sg1481
F-11.433585441150495
sg1482
F-12.433585441150495
sg1483
F-12.433585441150495
sg1484
F-11.433585441150495
sg1485
F-12.433585441150495
sg1486
F-12.433585441150495
sg1487
F-11.433585441150495
sg1488
F-11.433585441150495
sg1489
F-10.433585441150495
sg1490
F-11.433585441150495
sg1491
F-11.433585441150495
sg1492
F-11.433585441150495
sg1493
F-11.433585441150495
sg1494
F-12.433585441150495
sg1495
F-11.433585441150495
sg1496
F-11.433585441150495
sg1497
F-12.433585441150495
sg1498
F-12.433585441150495
sg1499
F-12.433585441150495
sg1500
F-11.433585441150495
sg1501
F-12.433585441150495
sg1502
F-11.433585441150495
sg1503
F-11.433585441150495
sg1504
F-11.433585441150495
sg1505
F-11.433585441150495
sg1506
F-12.433585441150495
sg192
F-11.433585441150495
sg1508
F-11.433585441150495
sg1509
F-11.433585441150495
sg1510
F-10.848622940429339
sg1511
F-11.433585441150495
sg1512
F-12.433585441150495
sg1513
F-11.433585441150495
sg1514
F-8.1856579277069095
sg1515
F-12.433585441150495
sg1516
F-11.433585441150495
sg1517
F-12.433585441150495
sg1518
F-12.433585441150495
sg1519
F-11.433585441150495
sg1520
F-12.433585441150495
sg1521
F-12.433585441150495
sg1522
F-11.433585441150495
sg1523
F-11.433585441150495
sg1524
F-11.433585441150495
sg1525
F-11.433585441150495
sg1526
F-11.433585441150495
sg1527
F-12.433585441150495
sg1830
F-11.433585441150495
sg1528
F-11.433585441150495
sg2170
F-12.433585441150495
sg1530
F-11.433585441150495
sg1531
F-11.433585441150495
sg1533
F-12.433585441150495
sg1534
F-10.433585441150495
sg1535
F-10.111657346263133
sg1536
F-11.433585441150495
sS'b'
F-11.433585441150495
sg1537
F-11.433585441150495
sg1538
F-11.433585441150495
sg1539
F-11.433585441150495
sg1540
F-11.433585441150495
sg1541
F-12.433585441150495
sg1542
F-11.433585441150495
sg1543
F-12.433585441150495
sg1544
F-11.433585441150495
sg1545
F-11.433585441150495
sg1546
F-10.848622940429339
sg1547
F-11.433585441150495
sg1548
F-12.433585441150495
sg1549
F-10.433585441150495
sg1550
F-11.433585441150495
sg1551
F-9.8486229404293386
sg1552
F-12.433585441150495
sg1553
F-8.626230519092891
sg1554
F-11.433585441150495
sg1555
F-11.433585441150495
sg1557
F-11.433585441150495
sg1558
F-10.848622940429339
sg1559
F-12.433585441150495
sg1560
F-11.433585441150495
sg1561
F-11.433585441150495
sg1562
F-12.433585441150495
sg1563
F-12.433585441150495
sg1564
F-11.433585441150495
sg1565
F-11.433585441150495
sg1566
F-11.433585441150495
sg1567
F-12.433585441150495
sg1568
F-12.433585441150495
sg1569
F-11.433585441150495
sg1570
F-12.433585441150495
sg1571
F-11.433585441150495
sg1572
F-12.433585441150495
sg1573
F-11.433585441150495
sg940
F-11.433585441150495
sg1575
F-11.433585441150495
sg1577
F-11.433585441150495
sg948
F-12.433585441150495
sg1579
F-12.433585441150495
sg874
F-11.433585441150495
sg1581
F-11.433585441150495
sg1582
F-11.433585441150495
sg1583
F-12.433585441150495
sg1584
F-12.433585441150495
sg1585
F-11.433585441150495
sg1587
F-11.433585441150495
sg1588
F-12.433585441150495
sg1589
F-11.433585441150495
sg1590
F-11.433585441150495
sg1591
F-11.433585441150495
sg1592
F-12.433585441150495
sg1593
F-12.433585441150495
sg1594
F-11.433585441150495
sg1595
F-11.433585441150495
sg1596
F-11.433585441150495
sg1597
F-12.433585441150495
sg1598
F-11.433585441150495
sg1599
F-11.433585441150495
sg1601
F-11.433585441150495
sg1602
F-12.433585441150495
sg1603
F-12.433585441150495
sg1604
F-11.433585441150495
sg1605
F-11.433585441150495
sg1606
F-11.433585441150495
sg1607
F-11.433585441150495
sg1608
F-11.433585441150495
sg1609
F-11.433585441150495
sg1610
F-12.433585441150495
sg1611
F-10.848622940429339
sg331
F-11.433585441150495
sg1613
F-10.848622940429339
sg1614
F-11.433585441150495
sg1615
F-12.433585441150495
sg1616
F-11.433585441150495
sg1617
F-11.433585441150495
sg1618
F-12.433585441150495
sg1619
F-11.433585441150495
sg1620
F-12.433585441150495
sg1621
F-11.433585441150495
sg1622
F-11.433585441150495
sg1346
F-11.433585441150495
sg1624
F-10.848622940429339
sg1625
F-12.433585441150495
sg1626
F-12.433585441150495
sg1627
F-9.2636604397081825
sg1628
F-12.433585441150495
sg1629
F-11.433585441150495
sS'9'
F-11.433585441150495
sg1933
F-10.111657346263133
sg1630
F-10.848622940429339
sg1631
F-12.433585441150495
sg1632
F-11.433585441150495
sg688
F-12.433585441150495
sg1600
F-12.433585441150495
sg232
F-11.433585441150495
sg1636
F-12.433585441150495
sg1637
F-12.433585441150495
sg1638
F-11.433585441150495
sg1639
F-11.433585441150495
sg1640
F-12.433585441150495
sg1641
F-12.433585441150495
sg1642
F-12.433585441150495
sg1452
F-11.433585441150495
sg1643
F-11.433585441150495
sg1644
F-11.433585441150495
sg273
F-11.433585441150495
sg276
F-11.433585441150495
sg279
F-11.433585441150495
sg1634
F-12.433585441150495
sg1648
F-11.433585441150495
sg1649
F-11.433585441150495
sg1650
F-11.433585441150495
sg2195
F-10.433585441150495
sg1651
F-11.433585441150495
sg532
F-12.433585441150495
sg1652
F-12.433585441150495
sg1653
F-12.433585441150495
sg1654
F-12.433585441150495
sg1655
F-11.433585441150495
sg1656
F-11.433585441150495
sg1657
F-11.433585441150495
sg1658
F-12.433585441150495
sg1659
F-12.433585441150495
sg1660
F-10.433585441150495
sg1661
F-11.433585441150495
sg416
F-12.433585441150495
sg1663
F-11.433585441150495
sg1664
F-12.433585441150495
sg1665
F-11.433585441150495
sg440
F-11.433585441150495
sg1667
F-11.433585441150495
sg1668
F-10.433585441150495
sg1669
F-9.8486229404293386
sg1670
F-12.433585441150495
sg1671
F-11.433585441150495
sg1672
F-11.433585441150495
sg1673
F-12.433585441150495
sg1397
F-12.433585441150495
sg2199
F-12.433585441150495
sg1675
F-11.433585441150495
sg1677
F-12.433585441150495
sg1678
F-11.433585441150495
sg1679
F-12.433585441150495
sg1680
F-10.111657346263133
sg1681
F-9.8486229404293386
sg1507
F-10.848622940429339
sg1683
F-11.433585441150495
sg1684
F-11.433585441150495
sg1685
F-12.433585441150495
sg1686
F-11.433585441150495
sg1687
F-12.433585441150495
sg1688
F-11.433585441150495
sg1689
F-11.433585441150495
sg1690
F-11.433585441150495
sg1691
F-10.848622940429339
sg1692
F-12.433585441150495
sg1693
F-10.848622940429339
sg1694
F-11.433585441150495
sg1695
F-10.848622940429339
sg1696
F-11.433585441150495
sg1697
F-11.433585441150495
sg1113
F-12.433585441150495
sg1698
F-7.3891913217920413
sg1699
F-11.433585441150495
sg1700
F-12.433585441150495
sg1701
F-11.433585441150495
sg1702
F-11.433585441150495
sg1867
F-10.848622940429339
sS'O'
F-10.848622940429339
sg1705
F-11.433585441150495
sg1706
F-10.848622940429339
sg2204
F-12.433585441150495
sg1708
F-11.433585441150495
sg1868
F-12.433585441150495
sg701
F-11.433585441150495
sg209
F-10.433585441150495
sg1712
F-11.433585441150495
sg1713
F-12.433585441150495
sg1714
F-11.433585441150495
sg1715
F-10.848622940429339
sg1716
F-11.433585441150495
sg1717
F-11.433585441150495
sg1718
F-11.433585441150495
sg1719
F-9.8486229404293386
sg1720
F-12.433585441150495
sg1721
F-12.433585441150495
sg1722
F-12.433585441150495
sg1723
F-12.433585441150495
sg1724
F-11.433585441150495
sg1726
F-10.433585441150495
sg1727
F-11.433585441150495
sg1728
F-11.433585441150495
sg1729
F-11.433585441150495
sg2208
F-11.433585441150495
sg1731
F-12.433585441150495
sg1732
F-11.433585441150495
sg1733
F-12.433585441150495
sg1734
F-12.433585441150495
sg1735
F-10.848622940429339
sg1872
F-12.433585441150495
sg1737
F-11.433585441150495
sg1738
F-11.433585441150495
sg1739
F-12.433585441150495
sg854
F-12.433585441150495
sg1741
F-11.433585441150495
sg1742
F-11.433585441150495
sg1743
F-11.433585441150495
sg1744
F-11.433585441150495
sS':'
F-11.433585441150495
sg1745
F-12.433585441150495
sg2210
F-12.433585441150495
sg1748
F-10.848622940429339
sg1749
F-12.433585441150495
sg1750
F-9.8486229404293386
sg1751
F-11.433585441150495
sg1752
F-11.433585441150495
sg1753
F-10.848622940429339
sg1754
F-8.8486229404293386
sg1755
F-10.848622940429339
sg1756
F-10.848622940429339
sg1757
F-12.433585441150495
sg1758
F-12.433585441150495
sg1759
F-12.433585441150495
sg1760
F-12.433585441150495
sg1761
F-12.433585441150495
sg1762
F-10.848622940429339
sg1763
F-11.433585441150495
sg1764
F-11.433585441150495
sg402
F-11.433585441150495
sg1766
F-12.433585441150495
sg1767
F-11.433585441150495
sg1768
F-11.433585441150495
sg1769
F-12.433585441150495
sg1092
F-12.433585441150495
sg1771
F-11.433585441150495
sg1772
F-11.433585441150495
sg1774
F-12.433585441150495
sg1775
F-10.433585441150495
sg1776
F-12.433585441150495
sg1777
F-11.433585441150495
sg1778
F-11.433585441150495
sg1779
F-12.433585441150495
sg2221
F-11.433585441150495
sg1240
F-12.433585441150495
sg1782
F-11.433585441150495
sg1783
F-11.433585441150495
sg1784
F-11.433585441150495
sg1785
F-12.433585441150495
sg280
F-12.433585441150495
sg1787
F-12.433585441150495
sg1212
F-11.433585441150495
sg1789
F-12.433585441150495
sg1790
F-11.433585441150495
sg1791
F-11.433585441150495
sg1792
F-11.433585441150495
sg1793
F-12.433585441150495
sg1794
F-12.433585441150495
sg1795
F-11.433585441150495
sg1796
F-11.433585441150495
sg1797
F-11.433585441150495
sg1275
F-12.433585441150495
sg1799
F-12.433585441150495
sg1800
F-11.433585441150495
sg1801
F-12.433585441150495
sg1802
F-11.433585441150495
sg1803
F-12.433585441150495
sg1804
F-12.433585441150495
sg1333
F-12.433585441150495
sg1806
F-11.433585441150495
sg131
F-11.433585441150495
sg1807
F-11.433585441150495
sg1808
F-11.433585441150495
sg1809
F-11.433585441150495
sg179
F-11.433585441150495
sg1811
F-12.433585441150495
sg1812
F-11.433585441150495
sg1813
F-11.433585441150495
sg1814
F-12.433585441150495
sg1815
F-11.433585441150495
sg1816
F-11.433585441150495
sg1817
F-11.433585441150495
sg1818
F-11.433585441150495
sg1819
F-9.4335854411504947
sg1556
F-11.433585441150495
sg1821
F-12.433585441150495
sg1822
F-11.433585441150495
sg1823
F-12.433585441150495
sg1824
F-12.433585441150495
sg1825
F-11.433585441150495
sg1826
F-10.848622940429339
sg1928
F-12.433585441150495
sg1827
F-10.848622940429339
sg1828
F-10.848622940429339
sg1829
F-10.111657346263133
sg1137
F-12.433585441150495
sg1831
F-12.433585441150495
sg1832
F-11.433585441150495
sg1833
F-10.848622940429339
sg1834
F-12.433585441150495
sg1835
F-12.433585441150495
sg1836
F-11.433585441150495
sg1837
F-11.433585441150495
sg1838
F-11.433585441150495
sg1839
F-12.433585441150495
sg1840
F-12.433585441150495
sg1841
F-11.433585441150495
sg1842
F-11.433585441150495
sg1843
F-11.433585441150495
sg1574
F-11.433585441150495
sg1845
F-11.433585441150495
sg1846
F-12.433585441150495
sg1847
F-12.433585441150495
sg1848
F-11.433585441150495
sg1849
F-11.433585441150495
sg1850
F-12.433585441150495
sg1851
F-11.433585441150495
sg1852
F-12.433585441150495
sg1853
F-11.433585441150495
sg1854
F-12.433585441150495
sg1855
F-11.433585441150495
sg1856
F-11.433585441150495
sg1857
F-12.433585441150495
sg1859
F-11.433585441150495
sg1860
F-10.848622940429339
sg1861
F-11.433585441150495
sg1395
F-11.433585441150495
sg1863
F-11.433585441150495
sg1864
F-11.433585441150495
sg1865
F-12.433585441150495
sg1866
F-12.433585441150495
sg1703
F-12.433585441150495
sg1709
F-9.2636604397081825
sg1869
F-11.433585441150495
sg2254
F-11.433585441150495
sg1870
F-12.433585441150495
sg1871
F-10.848622940429339
sg1736
F-11.433585441150495
sg2115
F-11.433585441150495
sg1873
F-11.433585441150495
sg1874
F-11.433585441150495
sg2234
F-8.7331457230094021
sg1876
F-11.433585441150495
sg1877
F-11.433585441150495
sg1878
F-11.433585441150495
sg1879
F-11.433585441150495
sg1880
F-12.433585441150495
sg1881
F-11.433585441150495
sg1882
F-11.433585441150495
sg1883
F-7.9741538225131974
sg1884
F-10.848622940429339
sg1885
F-11.433585441150495
sg1886
F-10.111657346263133
sg1887
F-11.433585441150495
sg1888
F-11.433585441150495
sg225
F-12.433585441150495
sg1890
F-12.433585441150495
sg2182
F-10.848622940429339
sg1891
F-12.433585441150495
sg1892
F-11.433585441150495
sg1893
F-11.433585441150495
sg1894
F-11.433585441150495
sg1895
F-10.111657346263133
sg1896
F-11.433585441150495
sg1897
F-11.433585441150495
sg2237
F-12.433585441150495
sg1899
F-11.433585441150495
sg1900
F-12.433585441150495
sg1901
F-12.433585441150495
sg1902
F-11.433585441150495
sg1903
F-11.433585441150495
sg1904
F-9.626230519092891
sg1676
F-11.433585441150495
sg1906
F-11.433585441150495
sg1907
F-11.433585441150495
sg1908
F-11.433585441150495
sg1909
F-10.848622940429339
sg1910
F-11.433585441150495
sg1911
F-11.433585441150495
sg1912
F-10.433585441150495
sg2270
F-11.433585441150495
sg1913
F-12.433585441150495
sg1914
F-10.848622940429339
sg1915
F-11.433585441150495
sg1916
F-11.433585441150495
sg1917
F-11.433585441150495
sg1918
F-11.433585441150495
sg1919
F-12.433585441150495
sg1920
F-10.848622940429339
sg1921
F-11.433585441150495
sg1922
F-11.433585441150495
sg1923
F-11.433585441150495
sg1924
F-10.848622940429339
sg1925
F-11.433585441150495
sg1926
F-11.433585441150495
sg1927
F-11.433585441150495
sg1898
F-11.433585441150495
sg1929
F-11.433585441150495
sg1930
F-10.848622940429339
sg1931
F-11.433585441150495
sg1932
F-12.433585441150495
sg2243
F-12.433585441150495
sg1633
F-10.848622940429339
sg1934
F-12.433585441150495
sg1935
F-11.433585441150495
sg1936
F-12.433585441150495
sg1937
F-12.433585441150495
sg1938
F-12.433585441150495
sg1939
F-11.433585441150495
sS'|'
F-11.433585441150495
sg1940
F-11.433585441150495
sg673
F-10.433585441150495
sg1942
F-10.848622940429339
sg1943
F-12.433585441150495
sg1944
F-10.433585441150495
sg1945
F-12.433585441150495
sg1946
F-8.626230519092891
sg1947
F-11.433585441150495
sg1948
F-12.433585441150495
sS"'"
F-11.433585441150495
sg1949
F-12.433585441150495
sg1950
F-11.433585441150495
sg1951
F-12.433585441150495
sg1952
F-12.433585441150495
sg1953
F-12.433585441150495
sg1954
F-10.433585441150495
sg1955
F-11.433585441150495
sg1956
F-12.433585441150495
sg1957
F-12.433585441150495
sg1958
F-10.433585441150495
sg1959
F-12.433585441150495
sg1960
F-11.433585441150495
sg1961
F-12.433585441150495
sg1962
F-12.433585441150495
sg120
F-11.433585441150495
sg1306
F-11.433585441150495
sg129
F-11.433585441150495
sg1965
F-12.433585441150495
sg1966
F-11.433585441150495
sg1967
F-11.433585441150495
sg1968
F-11.433585441150495
sg2251
F-11.433585441150495
sg1969
F-11.433585441150495
sg1970
F-12.433585441150495
sg1971
F-11.433585441150495
sg1972
F-12.433585441150495
sg1973
F-11.433585441150495
sg1740
F-10.433585441150495
sg1975
F-11.433585441150495
sg1976
F-11.433585441150495
sg1977
F-11.433585441150495
sg1978
F-12.433585441150495
sg1979
F-10.433585441150495
sg1980
F-12.433585441150495
sg1981
F-11.433585441150495
sg1682
F-10.848622940429339
sg1982
F-11.433585441150495
sg1983
F-12.433585441150495
sg1984
F-11.433585441150495
sg296
F-12.433585441150495
sg1986
F-11.433585441150495
sg1987
F-11.433585441150495
sg1988
F-11.433585441150495
sg324
F-11.433585441150495
sg2257
F-12.433585441150495
sg1991
F-12.433585441150495
sg1992
F-11.433585441150495
sg1993
F-12.433585441150495
sg1994
F-11.433585441150495
sg1578
F-11.433585441150495
sg1995
F-11.433585441150495
sg1996
F-11.433585441150495
sg1997
F-10.433585441150495
sg1998
F-11.433585441150495
sg1999
F-12.433585441150495
sg2000
F-8.5266948455419769
sg2001
F-9.4335854411504947
sg841
F-12.433585441150495
sg1858
F-11.433585441150495
sg2003
F-12.433585441150495
sg2004
F-11.433585441150495
sS'='
F-11.433585441150495
sg2005
F-12.433585441150495
sg2006
F-11.433585441150495
sg2007
F-11.433585441150495
sg2008
F-11.433585441150495
sg2009
F-11.433585441150495
sg2010
F-11.433585441150495
sg2011
F-9.2636604397081825
sg2012
F-11.433585441150495
sg929
F-11.433585441150495
sg547
F-11.433585441150495
sg2015
F-11.433585441150495
sg2016
F-11.433585441150495
sg2017
F-11.433585441150495
sg2018
F-11.433585441150495
sg2019
F-10.433585441150495
sg2020
F-12.433585441150495
sg2021
F-11.433585441150495
sg2022
F-11.433585441150495
sg2023
F-12.433585441150495
sg2024
F-10.111657346263133
sg2025
F-11.433585441150495
sg2026
F-10.848622940429339
sg2027
F-12.433585441150495
sg2028
F-12.433585441150495
sg2029
F-11.433585441150495
sg2030
F-11.433585441150495
sg2031
F-10.433585441150495
sg2032
F-11.433585441150495
sg2033
F-11.433585441150495
sg2034
F-11.433585441150495
sg2035
F-8.9741538225131965
sg2036
F-12.433585441150495
sg2037
F-11.433585441150495
sg2038
F-12.433585441150495
sg2040
F-10.111657346263133
sg2041
F-11.433585441150495
sg2042
F-11.433585441150495
sg2043
F-11.433585441150495
sg2044
F-10.848622940429339
sg2045
F-11.433585441150495
sg2046
F-10.433585441150495
sg2273
F-11.433585441150495
sg2048
F-12.433585441150495
sg2049
F-10.848622940429339
sg2050
F-11.433585441150495
sg2051
F-11.433585441150495
sg1350
F-11.433585441150495
sg2053
F-11.433585441150495
sg2054
F-11.433585441150495
sg2055
F-10.848622940429339
sg2056
F-11.433585441150495
sg795
F-12.433585441150495
sg2058
F-11.433585441150495
sg2059
F-11.433585441150495
sg2060
F-11.433585441150495
sg2061
F-11.433585441150495
sg2062
F-10.848622940429339
sg2063
F-10.111657346263133
sg2065
F-11.433585441150495
sg2066
F-10.848622940429339
sg1725
F-12.433585441150495
sg2068
F-11.433585441150495
sg2069
F-12.433585441150495
sg1711
F-12.433585441150495
sg2070
F-10.433585441150495
sg2071
F-11.433585441150495
sg2072
F-12.433585441150495
sg2073
F-11.433585441150495
sg2074
F-12.433585441150495
sg2075
F-11.433585441150495
sg961
F-11.433585441150495
sg2077
F-12.433585441150495
sg2078
F-12.433585441150495
sg2079
F-11.433585441150495
sg2080
F-11.433585441150495
sg2081
F-11.433585441150495
sg2082
F-12.433585441150495
sg2083
F-12.433585441150495
sg1016
F-11.433585441150495
sg1023
F-12.433585441150495
sg1036
F-11.433585441150495
sg2087
F-12.433585441150495
sg2088
F-11.433585441150495
sg2089
F-10.848622940429339
sg359
F-11.433585441150495
sg2090
F-11.433585441150495
sg1086
F-11.433585441150495
sg2092
F-11.433585441150495
sg2093
F-11.433585441150495
sg1455
F-11.433585441150495
sg2095
F-11.433585441150495
sg1106
F-12.433585441150495
sg2097
F-12.433585441150495
sg2098
F-11.433585441150495
sg2099
F-11.433585441150495
sg2100
F-10.433585441150495
sg2067
F-12.433585441150495
sg2102
F-10.433585441150495
sg2103
F-12.433585441150495
sg1130
F-11.433585441150495
sg2105
F-9.626230519092891
sg2106
F-11.433585441150495
sg2107
F-12.433585441150495
sg2108
F-11.433585441150495
sg2109
F-11.433585441150495
sg2110
F-12.433585441150495
sg2111
F-11.433585441150495
sg2112
F-11.433585441150495
sg2113
F-11.433585441150495
sg2114
F-11.433585441150495
sg1532
F-11.433585441150495
sg2116
F-12.433585441150495
sg2117
F-11.433585441150495
sg2118
F-12.433585441150495
sg2119
F-11.433585441150495
sg1249
F-11.433585441150495
sg2121
F-10.848622940429339
sg2122
F-12.433585441150495
sg2123
F-11.433585441150495
sg2124
F-11.433585441150495
sg2125
F-11.433585441150495
sg2126
F-8.7331457230094021
sg2127
F-11.433585441150495
sg2128
F-11.433585441150495
sg2129
F-12.433585441150495
sg793
F-12.433585441150495
sg366
F-12.433585441150495
sg2133
F-12.433585441150495
sg2134
F-11.433585441150495
sg2135
F-11.433585441150495
sg2136
F-12.433585441150495
sg2137
F-10.433585441150495
sg1362
F-11.433585441150495
sg2139
F-10.848622940429339
sg2140
F-12.433585441150495
sg2141
F-11.433585441150495
sg2142
F-11.433585441150495
sg2287
F-12.433585441150495
sg1391
F-11.433585441150495
sg2144
F-11.433585441150495
sg2145
F-11.433585441150495
sg1405
F-11.433585441150495
sg2147
F-10.433585441150495
sg2148
F-11.433585441150495
sg2149
F-12.433585441150495
sg2150
F-12.433585441150495
sg2151
F-11.433585441150495
sg2152
F-12.433585441150495
sg2153
F-11.433585441150495
sg2154
F-12.433585441150495
sg2155
F-11.433585441150495
sg2156
F-12.433585441150495
sg1464
F-12.433585441150495
sg2158
F-10.848622940429339
sS'i'
F-9.111657346263133
sg2159
F-11.433585441150495
sg1354
F-11.433585441150495
sg2161
F-12.433585441150495
sg936
F-12.433585441150495
sg2163
F-11.433585441150495
sg2164
F-12.433585441150495
sg2165
F-11.433585441150495
sg2305
F-11.433585441150495
sg2166
F-11.433585441150495
sg2167
F-11.433585441150495
sg2168
F-11.433585441150495
sg2169
F-11.433585441150495
sg1529
F-11.433585441150495
sg2171
F-11.433585441150495
sg2172
F-12.433585441150495
sg2173
F-11.433585441150495
sg2174
F-12.433585441150495
sg2175
F-12.433585441150495
sg2176
F-12.433585441150495
sg2177
F-12.433585441150495
sg2178
F-11.433585441150495
sg2179
F-11.433585441150495
sg2180
F-11.433585441150495
sg2181
F-12.433585441150495
sg1576
F-11.433585441150495
sg2183
F-11.433585441150495
sg2184
F-12.433585441150495
sg1586
F-11.433585441150495
sg2293
F-11.433585441150495
sg2187
F-12.433585441150495
sg2188
F-11.433585441150495
sg2189
F-11.433585441150495
sg1612
F-12.433585441150495
sg2191
F-11.433585441150495
sg2192
F-11.433585441150495
sg2193
F-11.433585441150495
sg2194
F-11.433585441150495
sg1580
F-12.433585441150495
sg2196
F-11.433585441150495
sg2197
F-12.433585441150495
sg2198
F-9.8486229404293386
sg1674
F-11.433585441150495
sg2200
F-11.433585441150495
sg2201
F-11.433585441150495
sg2202
F-11.433585441150495
sg2203
F-12.433585441150495
sg1707
F-11.433585441150495
sg2205
F-12.433585441150495
sg2206
F-11.433585441150495
sg2207
F-12.433585441150495
sg1730
F-10.111657346263133
sg2209
F-11.433585441150495
sg1746
F-11.433585441150495
sg2211
F-11.433585441150495
sg2212
F-11.433585441150495
sg2213
F-11.433585441150495
sg2214
F-11.433585441150495
sg2215
F-10.848622940429339
sg2216
F-11.433585441150495
sg2217
F-12.433585441150495
sg2218
F-11.433585441150495
sg2219
F-12.433585441150495
sg2220
F-10.848622940429339
sg1780
F-11.433585441150495
sg1844
F-12.433585441150495
sg2222
F-11.433585441150495
sg2223
F-11.433585441150495
sg2084
F-11.433585441150495
sg2224
F-11.433585441150495
sg2225
F-12.433585441150495
sg2226
F-11.433585441150495
sS'?'
F-10.848622940429339
sg2228
F-11.433585441150495
sg2229
F-11.433585441150495
sg2230
F-11.433585441150495
sg2231
F-11.433585441150495
sg2302
F-12.433585441150495
sg2232
F-11.433585441150495
sg2233
F-12.433585441150495
sg1875
F-12.433585441150495
sg2235
F-10.111657346263133
sg2303
F-11.433585441150495
sg2132
F-11.433585441150495
sg2238
F-10.848622940429339
sg2239
F-10.848622940429339
sg2240
F-12.433585441150495
sg2241
F-11.433585441150495
sg2242
F-11.433585441150495
sg1889
F-11.433585441150495
sg2244
F-12.433585441150495
sg2245
F-11.433585441150495
sg2304
F-12.433585441150495
sg2246
F-11.433585441150495
sg2052
F-10.848622940429339
sg2247
F-11.433585441150495
sg2249
F-12.433585441150495
sg2250
F-11.433585441150495
sg2227
F-11.433585441150495
sg2252
F-11.433585441150495
sg1941
F-12.433585441150495
sg2039
F-10.433585441150495
sg2255
F-11.433585441150495
sg2256
F-12.433585441150495
sg1990
F-11.433585441150495
sg2258
F-11.433585441150495
sg2259
F-11.433585441150495
sg2260
F-10.433585441150495
sg2261
F-11.433585441150495
sg2262
F-12.433585441150495
sg2263
F-12.433585441150495
sg2264
F-11.433585441150495
sg2265
F-9.111657346263133
sg2266
F-11.433585441150495
sg2267
F-12.433585441150495
sg2268
F-12.433585441150495
sg2269
F-12.433585441150495
sg901
F-11.433585441150495
sg2271
F-11.433585441150495
sg2272
F-10.848622940429339
sg2047
F-11.433585441150495
sg2274
F-11.433585441150495
sg2275
F-12.433585441150495
sg2276
F-10.433585441150495
sg2277
F-12.433585441150495
sg2278
F-11.433585441150495
sg2279
F-12.433585441150495
sg2280
F-12.433585441150495
sg2281
F-11.433585441150495
sg2282
F-11.433585441150495
sg2283
F-11.433585441150495
sg2284
F-10.848622940429339
sg2285
F-11.433585441150495
sg2286
F-12.433585441150495
sg817
F-10.848622940429339
sg2288
F-11.433585441150495
sg2289
F-10.848622940429339
sg2290
F-12.433585441150495
sg2291
F-11.433585441150495
sg2292
F-11.433585441150495
sg2186
F-12.433585441150495
sg2294
F-12.433585441150495
sg2295
F-11.433585441150495
sg2296
F-12.433585441150495
sg2297
F-12.433585441150495
sg2298
F-11.433585441150495
sg2299
F-12.433585441150495
sg2300
F-12.433585441150495
sg2301
F-12.433585441150495
sg1747
F-11.433585441150495
sg2236
F-11.433585441150495
sS'U'
F-10.848622940429339
sg705
F-11.433585441150495
sg2248
F-11.433585441150495
sg2306
F-11.433585441150495
sg2307
F-10.848622940429339
sg2308
F-11.433585441150495
sg2309
F-12.433585441150495
sg1372
F-12.433585441150495
sg482
F-11.433585441150495
sg2311
F-12.433585441150495
sg2312
F-12.433585441150495
sg2313
F-12.433585441150495
ssS'num_docs'
p2321
I283
sS'freqs'
p2322
(dp2323
S'all'
p2324
I13
sS'forget'
p2325
I3
sg1604
I1
sg8
I1
sg11
I2
sg12
I1
sg13
I1
sg1238
I1
sS'up.'
p2326
I1
sg1239
I1
sg1241
I1
sg1969
I1
sg17
I1
sg1243
I1
sS'to'
p2327
I89
sg1247
I1
sg1248
I1
sg1249
I1
sg22
I1
sg23
I1
sg133
I2
sg375
I2
sg1254
I1
sg1255
I1
sg1256
I1
sS"I'd"
p2328
I2
sS'every'
p2329
I8
sg25
I1
sg163
I1
sg1260
I1
sg26
I1
sg168
I1
sS"I'm"
p2330
I15
sg28
I1
sg29
I1
sg30
I1
sg1263
I1
sg31
I1
sS'school'
p2331
I3
sg33
I1
sg34
I1
sS"Don't"
p2332
I4
sg1607
I1
sg205
I1
sg36
I1
sg830
I1
sS'Go'
p2333
I3
sg1235
I1
sg1269
I1
sg42
I1
sg43
I1
sg242
I1
sg1270
I1
sg45
I1
sg1609
I1
sS'me.'
p2334
I3
sg49
I1
sg50
I1
sg51
I1
sS'Should'
p2335
I1
sg52
I1
sS'second'
p2336
I1
sg54
I1
sS'me?'
p2337
I1
sg833
I1
sS'even'
p2338
I1
sS'what'
p2339
I9
sg1282
I2
sg312
I1
sg63
I1
sg64
I1
sg65
I1
sS'new'
p2340
I6
sg68
I1
sS'ever'
p2341
I2
sg335
I1
sg71
I1
sg72
I1
sg1288
I1
sS'never'
p2342
I5
sg248
I1
sg364
I1
sg1290
I1
sg75
I1
sg1292
I1
sS'strong'
p2343
I1
sS'kids'
p2344
I1
sg1294
I1
sg77
I1
sg1295
I1
sg79
I1
sg80
I1
sg81
I1
sg82
I1
sg442
I1
sg84
I1
sg85
I1
sg1304
I1
sg2070
I3
sg1960
I1
sg484
I1
sg490
I1
sg90
I1
sg1813
I1
sg1308
I1
sg92
I1
sg1309
I1
sS'would'
p2345
I3
sg1312
I1
sg1313
I1
sg94
I1
sS'two'
p2346
I3
sg96
I2
sS'6'
I1
sg99
I1
sS'type'
p2347
I1
sS'tell'
p2348
I1
sS'more'
p2349
I5
sg1318
I1
sg102
I1
sg103
I1
sg1321
I1
sg104
I1
sS'phone'
p2350
I1
sg603
I1
sS'So'
p2351
I5
sg1326
I1
sg1327
I1
sg1329
I2
sS'must'
p2352
I2
sg2053
I1
sg110
I1
sS'Now'
p2353
I1
sS'room'
p2354
I1
sg1335
I1
sS'work'
p2355
I1
sg114
I1
sg115
I1
sg117
I2
sg1781
I1
sg118
I1
sg1338
I2
sg684
I1
sg686
I1
sg1343
I1
sg121
I1
sg1345
I1
sg1346
I1
sg37
I1
sg123
I1
sg1348
I1
sg1349
I2
sS'ready'
p2356
I3
sg1351
I1
sS'want'
p2357
I10
sS'Lord'
p2358
I1
sS'keep'
p2359
I1
sg734
I1
sg738
I1
sg130
I1
sg1355
I2
sg1356
I2
sg1357
I1
sg1253
I1
sg760
I1
sS'rather'
p2360
I1
sg1251
I1
sS'how'
p2361
I1
sg1982
I1
sg137
I1
sg797
I1
sg139
I1
sg140
I1
sg1363
I1
sg141
I1
sS'A'
I3
sg1364
I1
sS'okay'
p2362
I1
sg1129
I1
sS'after'
p2363
I1
sg144
I1
sg145
I1
sS'wrong'
p2364
I2
sg147
I1
sg148
I1
sS'a'
I45
sg149
I1
sS'All'
p2365
I3
sg151
I1
sg453
I1
sg1373
I1
sg2141
I1
sg154
I1
sg155
I1
sg157
I1
sg158
I1
sg159
I1
sg160
I1
sg161
I1
sS"that's"
p2366
I2
sg1379
I1
sg162
I1
sg1382
I1
sS"don't"
p2367
I3
sS'of.'
p2368
I1
sS'over'
p2369
I3
sg1384
I1
sg1502
I1
sg167
I1
sS'hell'
p2370
I1
sg169
I1
sg978
I1
sg171
I2
sg172
I1
sg1390
I2
sg173
I1
sg996
I1
sg2052
I2
sg176
I1
sg177
I4
sg178
I3
sg483
I1
sg1629
I1
sg2145
I1
sg1029
I1
sg1399
I1
sS'then'
p2371
I5
sS'them'
p2372
I7
sS'good'
p2373
I6
sg184
I1
sg1403
I2
sg1404
I2
sS'Gotta'
p2374
I2
sg2271
I1
sg186
I1
sg1744
I1
sS'they'
p2375
I12
sS'party'
p2376
I3
sg189
I1
sS'yourself'
p2377
I1
sg1408
I1
sg191
I1
sg193
I1
sg194
I1
sg1114
I5
sg195
I1
sg196
I1
sg197
I1
sg1059
I1
sg199
I1
sg1417
I1
sS'each'
p2378
I1
sg1418
I1
sg201
I1
sg202
I1
sS'bitch'
p2379
I1
sg1155
I1
sg1167
I1
sS'hard'
p2380
I1
sg207
I1
sS'Waiting'
p2381
I1
sg1425
I1
sS'really'
p2382
I5
sg1429
I1
sg210
I1
sg1431
I1
sS'won'
p2383
I1
sg1223
I1
sg212
I3
sS'ha'
p2384
I1
sg1434
I1
sg1435
I1
sS'day.'
p2385
I1
sg215
I1
sS'got'
p2386
I8
sg217
I1
sg218
I1
sS'ass'
p2387
I2
sg1438
I1
sg220
I1
sg221
I1
sg222
I1
sg95
I1
sg224
I1
sS'reason'
p2388
I1
sS'basketball'
p2389
I1
sg1444
I1
sS'ask'
p2390
I1
sg1310
I1
sg1447
I1
sg226
I1
sg1316
I1
sg2155
I1
sS'Ugh'
p2391
I1
sg685
I1
sS'needing'
p2392
I1
sg229
I1
sS'days'
p2393
I1
sg231
I1
sS'7'
I1
sg232
I1
sg1456
I2
sg1457
I1
sg1458
I1
sg233
I1
sg1460
I1
sS'already'
p2394
I2
sS'dont'
p2395
I3
sg236
I1
sg1395
I1
sg239
I1
sS'Going'
p2396
I1
sg241
I1
sS'me!'
p2397
I1
sS'miss'
p2398
I1
sg243
I1
sg1815
I1
sg1440
I1
sg1443
I1
sg1271
I1
sg247
I2
sg1471
I3
sS'needed'
p2399
I2
sS'too'
p2400
I3
sS'It'
p2401
I1
sg251
I1
sg1272
I1
sg1475
I1
sg252
I1
sg1476
I1
sg1509
I1
sg254
I2
sg1478
I1
sg1808
I1
sg255
I1
sg2250
I1
sS'believe'
p2402
I1
sS'Suck'
p2403
I1
sg1274
I1
sS'b'
I1
sg1484
I1
sg259
I1
sg260
I1
sS'matter'
p2404
I2
sg262
I1
sg1487
I1
sg263
I1
sg265
I1
sg266
I1
sg267
I1
sg268
I1
sS'God'
p2405
I3
sS'mind'
p2406
I1
sg867
I1
sg1490
I1
sg2054
I1
sS'talking'
p2407
I1
sg1474
I1
sg1493
I1
sg1617
I1
sg275
I1
sg1496
I1
sg1635
I1
sg1578
I1
sS'person'
p2408
I4
sg1500
I1
sg2212
I1
sS'-'
I2
sg2163
I1
sg1503
I1
sS'They'
p2409
I3
sg1667
I1
sg1279
I1
sg1504
I1
sg1505
I1
sS'play'
p2410
I2
sg1984
I1
sg1508
I1
sg288
I1
sg289
I1
sg1477
I1
sg1510
I2
sg1511
I1
sg290
I1
sg291
I1
sg292
I1
sg293
I1
sS'The'
p2411
I18
sg294
I1
sg1967
I1
sg299
I1
sg301
I1
sg302
I1
sg1771
I1
sS'Its'
p2412
I1
sg1522
I1
sg307
I2
sg1524
I1
sg2166
I1
sg309
I1
sg310
I1
sg1525
I1
sg1822
I1
sg1526
I1
sS'find'
p2413
I4
sg1643
I1
sg1837
I1
sg1843
I1
sg1528
I1
sg1481
I1
sg2169
I1
sg1873
I1
sg1529
I1
sg1530
I1
sS'circle'
p2414
I1
sg1918
I1
sg318
I1
sS'do'
p2415
I5
sg321
I1
sg322
I1
sg323
I1
sg324
I1
sS'watch'
p2416
I6
sg327
I3
sg1536
I1
sg1910
I1
sg329
I1
sg1537
I1
sg330
I1
sg1539
I1
sg1540
I1
sg1452
I1
sg1950
I1
sg333
I1
sg1545
I1
sS'gt;gt;gt;'
p2417
I2
sg1547
I1
sS'For'
p2418
I3
sg1550
I1
sS'see'
p2419
I5
sg340
I1
sS'are'
p2420
I13
sg1554
I1
sg1287
I1
sg1858
I1
sS'best'
p2421
I6
sg1558
I2
sS'said'
p2422
I2
sg344
I1
sg2024
I4
sg345
I1
sS'please'
p2423
I1
sg346
I1
sS"there's"
p2424
I1
sg348
I1
sg2055
I2
sg349
I2
sg1564
I1
sS'we'
p2425
I6
sS'men'
p2426
I1
sg352
I2
sg1565
I1
sg2075
I1
sg356
I1
sg357
I1
sg359
I1
sg2092
I1
sS'cousin'
p2427
I2
sg1569
I1
sg2114
I1
sS'last'
p2428
I1
sg56
I1
sg368
I1
sg2151
I1
sS'thoe'
p2429
I1
sg371
I1
sS'whole'
p2430
I1
sg373
I1
sg374
I2
sg1577
I1
sg376
I1
sg874
I1
sg377
I1
sg1582
I1
sg2200
I1
sg379
I1
sg2295
I1
sg1586
I1
sg380
I1
sS'now.'
p2431
I3
sg1906
I1
sg382
I1
sg1889
I1
sS'been'
p2432
I3
sS'.'
I6
sS'$300'
p2433
I1
sS'damn'
p2434
I1
sg1590
I1
sg387
I1
sg388
I1
sg389
I1
sS'life'
p2435
I7
sg392
I1
sg2292
I1
sg1598
I1
sS'else'
p2436
I1
sg7
I1
sg397
I1
sg1605
I1
sg398
I1
sg400
I1
sS'tonight'
p2437
I3
sg1606
I1
sg1492
I1
sg1608
I1
sg403
I1
sg404
I1
sg1998
I1
sg405
I1
sS'n'
I1
sS'while'
p2438
I2
sg406
I1
sg331
I1
sg408
I1
sg1613
I2
sg410
I1
sg1614
I1
sg412
I1
sg413
I1
sS'over.'
p2439
I1
sg1616
I1
sg415
I1
sg257
I1
sg1619
I1
sS'it'
p2440
I18
sg1621
I1
sg420
I1
sg422
I2
sg1622
I1
sg423
I4
sS'in'
p2441
I41
sg125
I1
sg134
I1
sS'if'
p2442
I4
sg1624
I2
sg430
I1
sg431
I1
sS'things'
p2443
I4
sS'make'
p2444
I3
sg435
I1
sg436
I1
sg165
I1
sS'amp;'
p2445
I8
sg1299
I1
sg2113
I1
sS'9'
I1
sg441
I1
sg1777
I1
sg1630
I2
sg1632
I1
sS'lt;3'
p2446
I2
sg443
I1
sg444
I1
sg445
I1
sg446
I1
sg447
I1
sS'Twitter'
p2447
I1
sg485
I1
sg278
I1
sg2194
I1
sg1302
I1
sg449
I1
sg1638
I1
sg1639
I1
sg2043
I1
sg451
I1
sg452
I1
sg455
I1
sg456
I1
sg1644
I1
sg273
I1
sg276
I1
sg279
I1
sg2214
I1
sg458
I1
sS'the'
p2448
I142
sg1649
I1
sg1650
I1
sg460
I1
sS'left'
p2449
I2
sg462
I1
sg463
I1
sS'just'
p2450
I17
sg466
I1
sg467
I1
sg2119
I1
sg468
I1
sg1655
I1
sg1656
I1
sg1657
I1
sg470
I1
sS'had'
p2451
I5
sg1557
I1
sS'easy'
p2452
I1
sS'win'
p2453
I2
sS'has'
p2454
I1
sS'excited'
p2455
I3
sg1661
I1
sS'gave'
p2456
I1
sg477
I1
sg1662
I1
sg1663
I1
sg2227
I1
sg1665
I1
sS'big'
p2457
I1
sg1668
I3
sS'game'
p2458
I5
sg1671
I1
sg1672
I1
sg488
I1
sS"ain't"
p2459
I1
sg491
I1
sS'performing'
p2460
I1
sg1675
I1
sg1863
I1
sg495
I2
sS'night'
p2461
I2
sg2006
I1
sg497
I1
sg498
I1
sg499
I1
sS'right'
p2462
I3
sg501
I1
sg1678
I1
sS'people'
p2463
I7
sg504
I1
sS'some'
p2464
I5
sg192
I1
sg1683
I1
sS'lips'
p2465
I1
sg2009
I1
sg508
I1
sg509
I1
sS'Life'
p2466
I2
sg1688
I1
sg1689
I1
sg1690
I1
sS'for'
p2467
I26
sg1691
I2
sS'#oomf'
p2468
I2
sg618
I1
sg625
I1
sg514
I1
sS'Nothing'
p2469
I2
sg519
I1
sg642
I2
sg1696
I1
sg1697
I1
sg521
I1
sS'be'
p2470
I32
sg1699
I1
sg1701
I1
sg522
I1
sg1702
I1
sg668
I1
sS'O'
I2
sg1705
I1
sg1706
I2
sg525
I1
sg1708
I1
sg1710
I1
sS'by'
p2471
I3
sg528
I1
sg1712
I1
sg529
I1
sS'working'
p2472
I1
sg1715
I2
sg1716
I1
sg530
I1
sg1717
I1
sg744
I1
sg533
I1
sS'wanna'
p2473
I5
sS'Best'
p2474
I1
sg1724
I1
sg2013
I1
sg784
I1
sg540
I1
sg541
I1
sg542
I1
sS'down'
p2475
I2
sg1729
I1
sS'because'
p2476
I4
sg1513
I1
sg1732
I1
sS'..'
p2477
I2
sS'support'
p2478
I1
sg1737
I1
sS'question'
p2479
I1
sS'long'
p2480
I3
sg1741
I1
sg1742
I1
sS'way'
p2481
I5
sg1747
I1
sg551
I1
sS':'
I1
sS'was'
p2482
I8
sg554
I1
sg1680
I4
sS'fireworks'
p2483
I1
sg556
I1
sg557
I1
sg558
I1
sg559
I1
sg560
I1
sg561
I1
sg947
I1
sS"I'll"
p2484
I5
sg2252
I1
sg1286
I1
sg565
I1
sg1751
I1
sS'inside'
p2485
I1
sg1753
I2
sS'up'
p2486
I11
sg478
I1
sg568
I1
sS'called'
p2487
I2
sS'cover'
p2488
I1
sS'Fuck'
p2489
I1
sS'To'
p2490
I2
sg1763
I1
sg1764
I1
sg402
I1
sS'face'
p2491
I3
sS'trip'
p2492
I1
sS'shit'
p2493
I4
sg577
I1
sg1276
I1
sS'no'
p2494
I7
sg1767
I1
sg1768
I1
sg35
I1
sg586
I1
sg1772
I1
sg587
I1
sS'nice'
p2495
I3
sg589
I1
sg591
I1
sg1778
I1
sg2221
I1
sg593
I1
sg1782
I1
sg595
I1
sg596
I1
sg1783
I1
sg598
I1
sg2115
I1
sg439
I1
sS'together'
p2496
I2
sg605
I1
sg606
I1
sg1212
I1
sS'time'
p2497
I7
sg610
I1
sg1219
I1
sg612
I1
sg1791
I1
sg1792
I1
sS':)'
p2498
I6
sg1795
I1
sg1796
I1
sg1797
I1
sg619
I2
sS'go'
p2499
I7
sg1488
I1
sg621
I1
sg623
I1
sg624
I1
sg626
I1
sg1694
I1
sg1587
I1
sg1773
I1
sS'me'
p2500
I18
sg633
I1
sg1806
I1
sS'could'
p2501
I1
sS'end'
p2502
I1
sg1332
I1
sg634
I1
sg635
I1
sg636
I1
sg638
I1
sg1807
I1
sg639
I1
sS'Just'
p2503
I7
sS'did'
p2504
I4
sg1809
I1
sg645
I1
sg646
I1
sS'leave'
p2505
I2
sg649
I1
sg179
I1
sg1812
I1
sg651
I1
sg652
I1
sg653
I1
sg654
I1
sg655
I1
sg656
I1
sg1469
I1
sg1816
I1
sg1168
I1
sg1817
I1
sg1818
I1
sg1556
I1
sg311
I1
sg1430
I1
sg1825
I1
sg1827
I2
sg662
I1
sg1828
I2
sg663
I1
sg1830
I1
sg664
I1
sg1832
I1
sg665
I1
sg666
I1
sg1833
I2
sg667
I1
sS'Me'
p2506
I2
sg670
I1
sg1836
I1
sg672
I1
sS'pushing'
p2507
I1
sg1841
I1
sg1842
I1
sg674
I1
sg675
I1
sg2305
I1
sg676
I1
sS'alone'
p2508
I1
sg1845
I1
sS'My'
p2509
I2
sS'change'
p2510
I1
sg681
I2
sg1595
I1
sg683
I1
sg1848
I1
sg1849
I1
sg1851
I1
sS'my'
p2511
I37
sg1853
I1
sg1855
I1
sg1856
I1
sg1633
I2
sg690
I1
sg691
I1
sS'thats'
p2512
I1
sg1648
I1
sS'love'
p2513
I12
sg693
I1
sS"It's"
p2514
I1
sg1861
I1
sS'When'
p2515
I4
sg1862
I1
sg697
I1
sg1864
I1
sg1585
I1
sS'use'
p2516
I2
sS'from'
p2517
I8
sg1714
I1
sg1869
I1
sg1718
I1
sg2041
I1
sS'next'
p2518
I2
sg1736
I1
sg704
I4
sS'black'
p2519
I1
sg707
I1
sg708
I2
sg709
I5
sg710
I1
sg2228
I1
sg1874
I1
sg1876
I1
sg1877
I1
sg1878
I1
sg1879
I1
sg1881
I1
sg2045
I1
sg1882
I1
sg715
I1
sS'this'
p2520
I21
sg1884
I2
sg1885
I1
sg716
I1
sg1887
I1
sg1888
I1
sS'can'
p2521
I10
sS'making'
p2522
I1
sg721
I1
sS'point'
p2523
I2
sS'heart'
p2524
I1
sg1892
I1
sg1893
I1
sg725
I2
sS'fuck'
p2525
I1
sg727
I1
sg1894
I1
sg1895
I4
sS'heard'
p2526
I1
sg1896
I1
sS'his'
p2527
I3
sS'something'
p2528
I1
sS'hit'
p2529
I4
sg730
I1
sg731
I1
sg732
I1
sg735
I1
sg736
I1
sg737
I1
sS'1'
I2
sg1899
I1
sS'swear'
p2530
I2
sg1898
I1
sg2285
I1
sS'Why'
p2531
I1
sg1902
I1
sS'!'
I6
sg743
I1
sg1031
I1
sS'stop'
p2532
I3
sg746
I1
sg748
I1
sS'mad'
p2533
I1
sg750
I1
sS'!!!'
p2534
I1
sg753
I1
sg1977
I1
sg755
I1
sg756
I2
sg1907
I1
sS'remember'
p2535
I1
sg759
I1
sg1908
I1
sS'One'
p2536
I2
sg761
I1
sg762
I1
sS'so'
p2537
I9
sg1911
I1
sg1912
I3
sg764
I1
sS'talk'
p2538
I3
sg767
I1
sg771
I1
sg1914
I2
sg1915
I1
sg1350
I1
sg774
I1
sg1917
I1
sS'still'
p2539
I3
sg1495
I1
sS'RT'
p2540
I3
sg780
I1
sg781
I2
sg782
I1
sg2084
I1
sg785
I1
sS'interesting'
p2541
I1
sg788
I1
sS'him'
p2542
I1
sg790
I3
sg791
I1
sg1924
I2
sS'into'
p2543
I3
sg1925
I1
sS'Goin'
p2544
I1
sg1926
I1
sg1927
I1
sg1727
I1
sg794
I1
sg796
I1
sg1929
I1
sg1930
I2
sg798
I1
sg1931
I1
sS'not'
p2545
I6
sS'now'
p2546
I8
sg2111
I1
sg1728
I1
sS'name'
p2547
I1
sg2201
I1
sg1935
I1
sg807
I1
sg808
I1
sg1939
I1
sg810
I1
sg2132
I1
sg1940
I1
sg812
I1
sg701
I1
sg1903
I1
sg2253
I1
sg1542
I1
sg813
I1
sg814
I1
sg2283
I1
sS'our'
p2548
I3
sg817
I2
sg818
I1
sg820
I1
sg821
I1
sS'living'
p2549
I1
sg1947
I1
sg1802
I1
sg1208
I1
sS"'"
I1
sS'bad'
p2550
I1
sg2062
I2
sS"shouldn't"
p2551
I2
sg829
I1
sS'cause'
p2552
I3
sg2064
I1
sg1955
I1
sg1921
I1
sg832
I3
sg58
I1
sS'G'
I1
sS'This'
p2553
I3
sg834
I2
sg835
I1
sg1544
I1
sS'grandma'
p2554
I1
sS'care'
p2555
I3
sS'training'
p2556
I1
sg839
I1
sS'put'
p2557
I2
sS'times'
p2558
I2
sg132
I4
sS'place'
p2559
I3
sg843
I1
sg1966
I1
sg844
I4
sS'first'
p2560
I2
sg846
I1
sg1454
I1
sS'there'
p2561
I1
sg849
I1
sS'There'
p2562
I3
sS'one'
p2563
I10
sg852
I1
sg853
I1
sg1096
I1
sg208
I1
sg857
I1
sg858
I2
sg859
I1
sS"you're"
p2564
I1
sg861
I2
sg1974
I1
sg1975
I1
sg1976
I1
sg754
I1
sg1369
I1
sS'their'
p2565
I3
sS'2'
I1
sg864
I2
sg1981
I1
sg865
I1
sg866
I1
sS'back'
p2566
I2
sg270
I1
sg868
I1
sg2255
I1
sg440
I1
sS'that'
p2567
I28
sg871
I1
sg298
I1
sg1986
I1
sg1987
I1
sg1988
I1
sS'than'
p2568
I2
sg880
I1
sg2232
I1
sg1990
I1
sg883
I3
sg1992
I1
sg885
I1
sS'were'
p2569
I2
sg2068
I1
sg365
I1
sg1994
I1
sS'and'
p2570
I65
sg1995
I1
sg1996
I1
sg893
I1
sS'say'
p2571
I5
sg2260
I3
sS'have'
p2572
I14
sg1555
I1
sS'need'
p2573
I7
sg896
I1
sS'any'
p2574
I1
sg898
I1
sg899
I1
sS'afraid'
p2575
I1
sg2202
I1
sg905
I1
sg2004
I1
sS'='
I1
sg909
I1
sg2007
I1
sg2008
I1
sg506
I1
sg507
I2
sg913
I1
sg2010
I1
sg915
I1
sS'price'
p2576
I1
sS'who'
p2577
I8
sg917
I1
sg918
I1
sg2012
I1
sS'but'
p2578
I9
sg929
I1
sg1375
I1
sg2266
I1
sg547
I1
sg922
I1
sg923
I1
sg2015
I1
sg924
I1
sg2016
I1
sg1748
I2
sS'considered'
p2579
I1
sg2017
I1
sg570
I1
sS'Some'
p2580
I1
sg571
I1
sg928
I1
sS"you'll"
p2581
I1
sg2022
I1
sg930
I1
sg2025
I1
sg2026
I2
sg2037
I1
sg932
I1
sg2165
I1
sS'show'
p2582
I3
sg2029
I1
sS'one.'
p2583
I1
sS'bring'
p2584
I3
sg1381
I1
sg937
I1
sg2032
I1
sg2033
I1
sg2034
I1
sS'aint'
p2585
I2
sS'We'
p2586
I2
sS'trying'
p2587
I1
sg940
I1
sg941
I1
sS'much'
p2588
I3
sg943
I1
sS'should'
p2589
I4
sS'only'
p2590
I3
sS'going'
p2591
I9
sg706
I1
sg2042
I1
sg2044
I2
sg563
I1
sg2046
I3
sg2273
I1
sS'get'
p2592
I10
sg2049
I2
sg2050
I1
sg2051
I1
sS'act'
p2593
I1
sS'cannot'
p2594
I1
sg2056
I1
sg1916
I1
sS'is'
p2595
I38
sg953
I1
sg1258
I1
sg2057
I1
sg1362
I1
sg2058
I1
sg2059
I1
sS'New'
p2596
I2
sg2060
I1
sg954
I1
sg955
I1
sg956
I1
sg2061
I1
sS'stupid'
p2597
I1
sS'she'
p2598
I4
sg960
I1
sS'through'
p2599
I2
sg2076
I1
sS'where'
p2600
I3
sg963
I1
sg847
I1
sg966
I1
sS'concert'
p2601
I1
sS'?'
I2
sg2065
I1
sS'!!!!'
p2602
I2
sg969
I1
sS'hoes'
p2603
I1
sg972
I1
sS'ur'
p2604
I2
sS'points'
p2605
I1
sg975
I1
sg976
I1
sg2278
I1
sS'its'
p2606
I4
sg2071
I1
sS'3'
I1
sS'between'
p2607
I4
sg2073
I1
sg981
I2
sg1566
I1
sg961
I1
sg1920
I2
sg982
I1
sg983
I1
sg984
I1
sg2079
I1
sS'job'
p2608
I1
sg987
I1
sg1009
I1
sS'come'
p2609
I1
sg1016
I1
sg1407
I1
sg993
I1
sg2284
I2
sg994
I9
sg995
I1
sg1036
I1
sS's'
I1
sg2089
I2
sg998
I1
sS"can't"
p2610
I2
sS'comment'
p2611
I1
sg1000
I1
sg1086
I1
sg1002
I1
sg2081
I1
sg2093
I1
sg1003
I1
sg2095
I1
sS'walk'
p2612
I1
sg1004
I1
sg1110
I1
sg2098
I1
sg2099
I1
sg1006
I1
sg1007
I1
sg2102
I3
sS'actually'
p2613
I1
sg1130
I1
sg1011
I1
sS"it's"
p2614
I6
sg2106
I1
sS'But'
p2615
I1
sg2108
I1
sg2109
I1
sg1015
I1
sg2112
I1
sg1018
I1
sg1019
I1
sg1532
I1
sg1021
I1
sg1922
I1
sg2117
I1
sg1923
I1
sg2085
I1
sg1519
I1
sg1024
I1
sS'those'
p2616
I2
sg632
I1
sS'And'
p2617
I2
sg2123
I1
sS'these'
p2618
I3
sg2124
I1
sg2125
I1
sS'will'
p2619
I12
sg1032
I1
sg2127
I1
sg1033
I1
sg2128
I1
sS'life.'
p2620
I1
sg2131
I1
sg1038
I1
sg2134
I1
sg2135
I1
sg1331
I2
sg1043
I1
sS'someone'
p2621
I2
sg1045
I1
sg1047
I1
sS'You'
p2622
I3
sg1048
I1
sg1049
I2
sg1051
I2
sg1052
I1
sg1574
I1
sg2139
I2
sg1053
I1
sg1054
I1
sg1056
I1
sg2088
I1
sg1057
I3
sg1391
I1
sS'when'
p2623
I4
sg2144
I1
sg1058
I2
sg1405
I1
sS'games'
p2624
I1
sS'gets'
p2625
I1
sg219
I1
sS'week'
p2626
I3
sg2191
I1
sS'I'
I76
sg2153
I1
sg1063
I1
sg1064
I1
sg1065
I2
sg1066
I1
sS'off'
p2627
I2
sS'i'
I9
sS'Is'
p2628
I2
sg2159
I1
sg1354
I1
sg1069
I1
sS'know'
p2629
I3
sS'thought'
p2630
I1
sg1070
I1
sS'Im'
p2631
I2
sS'comes'
p2632
I2
sS'In'
p2633
I1
sg1074
I1
sg1075
I1
sS'If'
p2634
I9
sg1523
I1
sg1079
I1
sg2167
I1
sg1081
I1
sg2168
I1
sS'being'
p2635
I6
sS'money'
p2636
I1
sg2171
I1
sg1800
I1
sS'rest'
p2637
I2
sg2173
I1
sg2178
I1
sg2179
I1
sS'blow'
p2638
I1
sg2180
I1
sg1091
I1
sg1576
I1
sg2183
I1
sS'day'
p2639
I4
sg1094
I1
sg2094
I2
sg1411
I1
sg2188
I1
sg2189
I1
sS'real'
p2640
I1
sg1098
I1
sg2192
I1
sg2193
I1
sS'gonna'
p2641
I1
sg1102
I1
sS'()'
p2642
I1
sg1601
I1
sg2196
I1
sg1104
I1
sg1105
I1
sg1581
I1
sg1108
I1
sS'like'
p2643
I5
sg1674
I1
sg1112
I1
sg1244
I1
sg2223
I1
sS'all.'
p2644
I1
sg1707
I1
sg1686
I1
sg1117
I1
sg2206
I1
sS'nigga'
p2645
I1
sg2100
I3
sg2209
I1
sg1746
I1
sg1119
I1
sS'alive'
p2646
I1
sS'hair'
p2647
I1
sg2101
I1
sS"There's"
p2648
I2
sg2216
I1
sg806
I1
sg2220
I2
sg1780
I1
sg1123
I1
sg2222
I1
sg1126
I2
sg1128
I1
sg2224
I1
sS'does'
p2649
I1
sg1131
I1
sg1132
I1
sg1133
I1
sg1826
I2
sg531
I1
sg2229
I1
sg2230
I1
sg2231
I1
sS';)'
p2650
I2
sS'on'
p2651
I37
sS'about'
p2652
I12
sg2235
I4
sg1144
I1
sg1145
I1
sS'of'
p2653
I48
sg2236
I1
sS'|'
I1
sg695
I1
sg1676
I1
sS'or'
p2654
I6
sg2239
I2
sS'No'
p2655
I2
sg2241
I1
sg1153
I1
sg1154
I1
sg2242
I1
sS'three'
p2656
I1
sg1156
I1
sg2245
I1
sg2246
I1
sg2247
I1
sS'your'
p2657
I12
sS'her'
p2658
I2
sg1968
I1
sg2251
I1
sS'lol'
p2659
I6
sg1163
I1
sg673
I3
sg1165
I1
sg2308
I1
sS'lot'
p2660
I1
sg450
I1
sg1170
I1
sg2258
I1
sg2259
I1
sS'you.'
p2661
I2
sg1172
I1
sg2261
I1
sS'complete'
p2662
I1
sg1175
I1
sg2264
I1
sS'you!'
p2663
I1
sg1743
I1
sg1784
I1
sg901
I1
sS'with'
p2664
I28
sg1591
I1
sg1181
I1
sS'he'
p2665
I2
sg2047
I1
sg2274
I1
sS"wasn't"
p2666
I1
sS'wish'
p2667
I3
sg1186
I1
sg1455
I1
sg1942
I2
sg2281
I1
sS'cake'
p2668
I1
sg1594
I1
sg1191
I1
sS'am'
p2669
I5
sS'an'
p2670
I1
sS'How'
p2671
I1
sS'as'
p2672
I7
sg1197
I1
sS'at'
p2673
I16
sg1199
I1
sg564
I1
sS'again'
p2674
I2
sg1596
I1
sg2288
I1
sS'Never'
p2675
I2
sg1206
I1
sg2291
I1
sS'book'
p2676
I1
sS'you'
p2677
I36
sS'out'
p2678
I13
sg1213
I1
sg1214
I1
sg1215
I1
sS'well'
p2679
I3
sg2298
I1
sg2303
I1
sg1218
I1
sS'U'
I2
sg705
I1
sg2248
I1
sg2306
I1
sS'friends'
p2680
I2
sg1221
I1
sg1222
I1
sg482
I1
sg1790
I1
sg1226
I1
sS'u'
I2
sg1651
I1
sg1229
I1
ssS'label'
p2681
g2317
sS'prob'
p2682
F-0.82112604183020477
sS'num_words'
p2683
I3191
ssS'negative'
p2684
(dp2685
g2319
(dp2686
S''
F-11.265908009231101
sg5
F-11.265908009231101
sg6
F-11.265908009231101
sg7
F-12.265908009231101
sg8
F-12.265908009231101
sg9
F-11.265908009231101
sg10
F-11.265908009231101
sg11
F-12.265908009231101
sg12
F-12.265908009231101
sg13
F-12.265908009231101
sg14
F-8.9439799143437391
sg15
F-11.265908009231101
sg16
F-11.265908009231101
sg17
F-12.265908009231101
sg18
F-11.265908009231101
sg19
F-11.265908009231101
sg20
F-10.680945508509945
sg21
F-11.265908009231101
sg37
F-12.265908009231101
sg23
F-12.265908009231101
sg24
F-10.680945508509945
sg25
F-12.265908009231101
sg26
F-12.265908009231101
sg27
F-10.680945508509945
sg28
F-12.265908009231101
sg29
F-12.265908009231101
sg30
F-12.265908009231101
sg31
F-12.265908009231101
sg32
F-10.680945508509945
sg33
F-12.265908009231101
sg34
F-12.265908009231101
sg35
F-12.265908009231101
sg36
F-12.265908009231101
sg2064
F-12.265908009231101
sg38
F-11.265908009231101
sg39
F-11.265908009231101
sg40
F-11.265908009231101
sg41
F-11.265908009231101
sg42
F-12.265908009231101
sg43
F-12.265908009231101
sg44
F-11.265908009231101
sg45
F-12.265908009231101
sg46
F-11.265908009231101
sg47
F-11.265908009231101
sg48
F-10.680945508509945
sg49
F-12.265908009231101
sg50
F-12.265908009231101
sg51
F-12.265908009231101
sg52
F-12.265908009231101
sg53
F-11.265908009231101
sg54
F-12.265908009231101
sg55
F-11.265908009231101
sg57
F-11.265908009231101
sg58
F-12.265908009231101
sg286
F-11.265908009231101
sg60
F-11.265908009231101
sg61
F-11.265908009231101
sg62
F-11.265908009231101
sg63
F-12.265908009231101
sg64
F-12.265908009231101
sg65
F-12.265908009231101
sg66
F-11.265908009231101
sg67
F-10.680945508509945
sg68
F-12.265908009231101
sg69
F-10.265908009231101
sg335
F-12.265908009231101
sg834
F-12.265908009231101
sg72
F-12.265908009231101
sg73
F-9.4585530871734971
sg74
F-10.680945508509945
sg75
F-12.265908009231101
sg76
F-11.265908009231101
sg77
F-12.265908009231101
sg78
F-11.265908009231101
sg79
F-12.265908009231101
sg80
F-12.265908009231101
sg81
F-12.265908009231101
sg82
F-12.265908009231101
sg83
F-11.265908009231101
sg84
F-12.265908009231101
sg85
F-12.265908009231101
sg86
F-10.680945508509945
sg87
F-11.265908009231101
sg88
F-11.265908009231101
sg89
F-11.265908009231101
sg90
F-12.265908009231101
sg91
F-11.265908009231101
sg92
F-12.265908009231101
sg93
F-9.0959830077887887
sg94
F-12.265908009231101
sg96
F-12.265908009231101
sg97
F-11.265908009231101
sg98
F-11.265908009231101
sg837
F-10.265908009231101
sg100
F-11.265908009231101
sg567
F-10.680945508509945
sg102
F-12.265908009231101
sg103
F-12.265908009231101
sg104
F-12.265908009231101
sg105
F-10.680945508509945
sg106
F-10.680945508509945
sg107
F-11.265908009231101
sg630
F-10.265908009231101
sg631
F-8.0959830077887887
sg110
F-12.265908009231101
sg111
F-11.265908009231101
sg112
F-11.265908009231101
sg113
F-9.9439799143437391
sg114
F-12.265908009231101
sg115
F-12.265908009231101
sg116
F-11.265908009231101
sg117
F-12.265908009231101
sg118
F-12.265908009231101
sg684
F-12.265908009231101
sg1963
F-11.265908009231101
sg121
F-12.265908009231101
sg122
F-9.9439799143437391
sg123
F-12.265908009231101
sg124
F-11.265908009231101
sg125
F-12.265908009231101
sg1250
F-11.265908009231101
sg127
F-9.9439799143437391
sg128
F-11.265908009231101
sg1964
F-11.265908009231101
sg130
F-12.265908009231101
sg751
F-10.680945508509945
sg760
F-12.265908009231101
sg1251
F-12.265908009231101
sg134
F-12.265908009231101
sg135
F-9.2659080092311008
sg136
F-11.265908009231101
sg137
F-12.265908009231101
sg138
F-11.265908009231101
sg139
F-12.265908009231101
sg140
F-12.265908009231101
sg141
F-12.265908009231101
sS'A'
F-12.265908009231101
sg142
F-11.265908009231101
sg143
F-11.265908009231101
sg144
F-12.265908009231101
sg145
F-12.265908009231101
sg146
F-10.680945508509945
sg147
F-12.265908009231101
sg148
F-12.265908009231101
sg149
F-12.265908009231101
sg150
F-11.265908009231101
sg151
F-12.265908009231101
sg152
F-11.265908009231101
sg153
F-11.265908009231101
sg154
F-12.265908009231101
sg155
F-12.265908009231101
sg156
F-11.265908009231101
sg157
F-12.265908009231101
sg158
F-12.265908009231101
sg1258
F-12.265908009231101
sg160
F-12.265908009231101
sg161
F-12.265908009231101
sg162
F-12.265908009231101
sg1259
F-10.680945508509945
sg164
F-9.4585530871734971
sg165
F-12.265908009231101
sg166
F-11.265908009231101
sg167
F-12.265908009231101
sg168
F-12.265908009231101
sg169
F-12.265908009231101
sg170
F-11.265908009231101
sg171
F-12.265908009231101
sg172
F-12.265908009231101
sg1781
F-12.265908009231101
sg173
F-12.265908009231101
sg174
F-10.680945508509945
sg175
F-11.265908009231101
sg176
F-12.265908009231101
sg177
F-12.265908009231101
sg178
F-12.265908009231101
sg180
F-11.265908009231101
sg181
F-11.265908009231101
sg182
F-9.2659080092311008
sg183
F-10.680945508509945
sg184
F-12.265908009231101
sg185
F-11.265908009231101
sg186
F-12.265908009231101
sg187
F-11.265908009231101
sg188
F-8.1784451679807617
sg1264
F-11.265908009231101
sg190
F-11.265908009231101
sg191
F-12.265908009231101
sg193
F-12.265908009231101
sg194
F-12.265908009231101
sg195
F-12.265908009231101
sg196
F-12.265908009231101
sg197
F-12.265908009231101
sg199
F-12.265908009231101
sg200
F-11.265908009231101
sg201
F-12.265908009231101
sg202
F-12.265908009231101
sg203
F-11.265908009231101
sg204
F-10.680945508509945
sg1266
F-11.265908009231101
sg206
F-11.265908009231101
sg207
F-12.265908009231101
sg208
F-12.265908009231101
sg210
F-12.265908009231101
sg211
F-11.265908009231101
sg212
F-12.265908009231101
sg213
F-11.265908009231101
sg214
F-11.265908009231101
sg215
F-12.265908009231101
sg216
F-9.9439799143437391
sg217
F-12.265908009231101
sg1269
F-12.265908009231101
sg219
F-12.265908009231101
sg220
F-12.265908009231101
sg221
F-12.265908009231101
sg222
F-12.265908009231101
sg223
F-11.265908009231101
sg224
F-12.265908009231101
sg1310
F-12.265908009231101
sg226
F-12.265908009231101
sg227
F-11.265908009231101
sg228
F-11.265908009231101
sg229
F-12.265908009231101
sg230
F-10.265908009231101
sg231
F-12.265908009231101
sg233
F-12.265908009231101
sg234
F-10.265908009231101
sg235
F-11.265908009231101
sg236
F-12.265908009231101
sg237
F-11.265908009231101
sg238
F-11.265908009231101
sg239
F-12.265908009231101
sg240
F-11.265908009231101
sg241
F-12.265908009231101
sg242
F-12.265908009231101
sg243
F-12.265908009231101
sg244
F-11.265908009231101
sg245
F-10.680945508509945
sg246
F-11.265908009231101
sg247
F-12.265908009231101
sg249
F-11.265908009231101
sg250
F-11.265908009231101
sg251
F-12.265908009231101
sg252
F-12.265908009231101
sg253
F-10.680945508509945
sg1810
F-11.265908009231101
sg254
F-12.265908009231101
sg255
F-12.265908009231101
sg864
F-12.265908009231101
sg257
F-12.265908009231101
sg258
F-11.265908009231101
sg259
F-12.265908009231101
sg260
F-12.265908009231101
sg261
F-10.680945508509945
sg1862
F-12.265908009231101
sg262
F-12.265908009231101
sg263
F-12.265908009231101
sg264
F-11.265908009231101
sg265
F-12.265908009231101
sg266
F-12.265908009231101
sg267
F-12.265908009231101
sg268
F-12.265908009231101
sg269
F-10.680945508509945
sg867
F-12.265908009231101
sg271
F-11.265908009231101
sg272
F-11.265908009231101
sg1645
F-11.265908009231101
sg274
F-11.265908009231101
sg275
F-12.265908009231101
sg1646
F-11.265908009231101
sg277
F-11.265908009231101
sg278
F-12.265908009231101
sg1647
F-10.680945508509945
sS'-'
F-11.265908009231101
sg281
F-11.265908009231101
sg282
F-11.265908009231101
sg283
F-11.265908009231101
sg284
F-9.6809455085099447
sg870
F-10.680945508509945
sg59
F-9.9439799143437391
sg287
F-11.265908009231101
sg288
F-12.265908009231101
sg289
F-12.265908009231101
sg290
F-12.265908009231101
sg291
F-12.265908009231101
sg292
F-12.265908009231101
sg293
F-12.265908009231101
sg294
F-12.265908009231101
sg295
F-11.265908009231101
sg1985
F-11.265908009231101
sg297
F-10.680945508509945
sg298
F-12.265908009231101
sg299
F-12.265908009231101
sg300
F-11.265908009231101
sg301
F-12.265908009231101
sg302
F-12.265908009231101
sg303
F-11.265908009231101
sg304
F-11.265908009231101
sg305
F-11.265908009231101
sg306
F-11.265908009231101
sg307
F-12.265908009231101
sg308
F-11.265908009231101
sg309
F-12.265908009231101
sg310
F-12.265908009231101
sg311
F-12.265908009231101
sg1284
F-11.265908009231101
sg313
F-11.265908009231101
sg314
F-11.265908009231101
sg315
F-11.265908009231101
sg316
F-11.265908009231101
sg317
F-11.265908009231101
sg318
F-12.265908009231101
sg319
F-11.265908009231101
sg320
F-8.8064763905938044
sg321
F-12.265908009231101
sg322
F-12.265908009231101
sg323
F-12.265908009231101
sg1989
F-11.265908009231101
sg325
F-10.680945508509945
sg881
F-11.265908009231101
sg327
F-12.265908009231101
sg328
F-11.265908009231101
sg329
F-12.265908009231101
sg330
F-12.265908009231101
sg332
F-10.680945508509945
sg333
F-12.265908009231101
sg334
F-10.265908009231101
sg70
F-10.680945508509945
sg336
F-11.265908009231101
sg337
F-11.265908009231101
sg338
F-11.265908009231101
sg339
F-11.265908009231101
sg340
F-12.265908009231101
sg341
F-11.265908009231101
sg342
F-10.680945508509945
sg343
F-10.680945508509945
sg344
F-12.265908009231101
sg345
F-12.265908009231101
sg346
F-12.265908009231101
sg347
F-11.265908009231101
sg348
F-12.265908009231101
sg349
F-12.265908009231101
sg350
F-8.9439799143437391
sg351
F-11.265908009231101
sg352
F-12.265908009231101
sg353
F-11.265908009231101
sg354
F-11.265908009231101
sg355
F-11.265908009231101
sg356
F-12.265908009231101
sg357
F-12.265908009231101
sg358
F-11.265908009231101
sg248
F-12.265908009231101
sg360
F-11.265908009231101
sg361
F-11.265908009231101
sg362
F-11.265908009231101
sg1289
F-11.265908009231101
sg887
F-11.265908009231101
sg56
F-12.265908009231101
sg367
F-11.265908009231101
sg368
F-12.265908009231101
sg369
F-11.265908009231101
sg370
F-11.265908009231101
sg1252
F-11.265908009231101
sg371
F-12.265908009231101
sg372
F-11.265908009231101
sg373
F-12.265908009231101
sg374
F-12.265908009231101
sg376
F-12.265908009231101
sg377
F-12.265908009231101
sg378
F-11.265908009231101
sg379
F-12.265908009231101
sg380
F-12.265908009231101
sg381
F-11.265908009231101
sg382
F-12.265908009231101
sg383
F-11.265908009231101
sg384
F-10.680945508509945
sS'.'
F-9.0959830077887887
sg385
F-11.265908009231101
sg386
F-11.265908009231101
sg387
F-12.265908009231101
sg388
F-12.265908009231101
sg389
F-12.265908009231101
sg390
F-10.265908009231101
sg391
F-11.265908009231101
sg392
F-12.265908009231101
sg393
F-11.265908009231101
sg394
F-10.680945508509945
sg395
F-11.265908009231101
sg396
F-11.265908009231101
sg397
F-12.265908009231101
sg398
F-12.265908009231101
sg399
F-11.265908009231101
sg400
F-12.265908009231101
sg401
F-11.265908009231101
sg403
F-12.265908009231101
sg404
F-12.265908009231101
sg405
F-12.265908009231101
sS'n'
F-12.265908009231101
sg406
F-12.265908009231101
sg407
F-11.265908009231101
sg408
F-12.265908009231101
sg409
F-11.265908009231101
sg410
F-12.265908009231101
sg411
F-11.265908009231101
sg412
F-12.265908009231101
sg413
F-12.265908009231101
sg414
F-11.265908009231101
sg415
F-12.265908009231101
sg1662
F-12.265908009231101
sg417
F-7.5110205070676326
sg418
F-11.265908009231101
sg419
F-7.873590586452341
sg420
F-12.265908009231101
sg421
F-11.265908009231101
sg422
F-12.265908009231101
sg423
F-12.265908009231101
sg424
F-7.8064763905938044
sg425
F-11.265908009231101
sg426
F-11.265908009231101
sg427
F-11.265908009231101
sg428
F-10.265908009231101
sg429
F-11.265908009231101
sg430
F-12.265908009231101
sg431
F-12.265908009231101
sg432
F-11.265908009231101
sg433
F-10.680945508509945
sg434
F-11.265908009231101
sg435
F-12.265908009231101
sg436
F-12.265908009231101
sg1298
F-11.265908009231101
sg438
F-11.265908009231101
sg1666
F-10.680945508509945
sg441
F-12.265908009231101
sg442
F-12.265908009231101
sg443
F-12.265908009231101
sg444
F-12.265908009231101
sg445
F-12.265908009231101
sg446
F-12.265908009231101
sg447
F-12.265908009231101
sg448
F-11.265908009231101
sg2002
F-11.265908009231101
sg449
F-12.265908009231101
sg1635
F-12.265908009231101
sg450
F-12.265908009231101
sg451
F-12.265908009231101
sg452
F-12.265908009231101
sg454
F-11.265908009231101
sg455
F-12.265908009231101
sg456
F-12.265908009231101
sg457
F-11.265908009231101
sg458
F-12.265908009231101
sg459
F-5.7267491981230698
sg460
F-12.265908009231101
sg461
F-11.265908009231101
sg462
F-12.265908009231101
sg463
F-12.265908009231101
sg464
F-8.359017413622583
sg465
F-11.265908009231101
sg466
F-12.265908009231101
sg467
F-12.265908009231101
sg468
F-12.265908009231101
sg469
F-11.265908009231101
sg1805
F-10.265908009231101
sg470
F-12.265908009231101
sg471
F-10.680945508509945
sg472
F-11.265908009231101
sg473
F-11.265908009231101
sg474
F-11.265908009231101
sg475
F-11.265908009231101
sg476
F-11.265908009231101
sg477
F-12.265908009231101
sg478
F-12.265908009231101
sg479
F-11.265908009231101
sg480
F-11.265908009231101
sg481
F-11.265908009231101
sg484
F-12.265908009231101
sg486
F-10.680945508509945
sg487
F-11.265908009231101
sg488
F-12.265908009231101
sg489
F-10.265908009231101
sg491
F-12.265908009231101
sg492
F-11.265908009231101
sg493
F-11.265908009231101
sg494
F-11.265908009231101
sg1765
F-11.265908009231101
sg495
F-12.265908009231101
sg496
F-10.265908009231101
sg497
F-12.265908009231101
sg498
F-12.265908009231101
sg499
F-12.265908009231101
sg500
F-9.9439799143437391
sg501
F-12.265908009231101
sg502
F-10.680945508509945
sg503
F-8.359017413622583
sg504
F-12.265908009231101
sg505
F-11.265908009231101
sg911
F-11.265908009231101
sg912
F-10.265908009231101
sg1820
F-11.265908009231101
sg1470
F-10.680945508509945
sg508
F-12.265908009231101
sg509
F-12.265908009231101
sg510
F-11.265908009231101
sg511
F-8.359017413622583
sg618
F-12.265908009231101
sg625
F-12.265908009231101
sg514
F-12.265908009231101
sg515
F-11.265908009231101
sg516
F-11.265908009231101
sg517
F-11.265908009231101
sg518
F-11.265908009231101
sg519
F-12.265908009231101
sg642
F-12.265908009231101
sg521
F-12.265908009231101
sg522
F-12.265908009231101
sg668
F-12.265908009231101
sg524
F-11.265908009231101
sg525
F-12.265908009231101
sg526
F-10.680945508509945
sg527
F-11.265908009231101
sg528
F-12.265908009231101
sg529
F-12.265908009231101
sg530
F-12.265908009231101
sS'o'
F-11.265908009231101
sg744
F-12.265908009231101
sg2013
F-12.265908009231101
sg533
F-12.265908009231101
sg534
F-11.265908009231101
sg2094
F-12.265908009231101
sg535
F-11.265908009231101
sg536
F-11.265908009231101
sg537
F-11.265908009231101
sg784
F-12.265908009231101
sg539
F-11.265908009231101
sg540
F-12.265908009231101
sg541
F-12.265908009231101
sg542
F-12.265908009231101
sg543
F-11.265908009231101
sg544
F-11.265908009231101
sg545
F-11.265908009231101
sg546
F-11.265908009231101
sg2014
F-10.265908009231101
sg363
F-11.265908009231101
sg549
F-9.9439799143437391
sg550
F-11.265908009231101
sg551
F-12.265908009231101
sg552
F-10.680945508509945
sg553
F-8.359017413622583
sg2185
F-11.265908009231101
sg554
F-12.265908009231101
sg555
F-10.680945508509945
sg556
F-12.265908009231101
sg557
F-12.265908009231101
sg558
F-12.265908009231101
sg559
F-12.265908009231101
sg560
F-12.265908009231101
sg561
F-12.265908009231101
sg562
F-11.265908009231101
sg947
F-12.265908009231101
sg565
F-12.265908009231101
sg963
F-12.265908009231101
sg101
F-10.680945508509945
sg568
F-12.265908009231101
sg569
F-11.265908009231101
sg926
F-10.680945508509945
sg571
F-12.265908009231101
sg572
F-11.265908009231101
sg573
F-11.265908009231101
sg574
F-9.6809455085099447
sg575
F-11.265908009231101
sg576
F-11.265908009231101
sg577
F-12.265908009231101
sg578
F-11.265908009231101
sg579
F-11.265908009231101
sg580
F-8.9439799143437391
sg581
F-10.680945508509945
sg582
F-11.265908009231101
sg583
F-11.265908009231101
sg584
F-11.265908009231101
sg585
F-11.265908009231101
sg586
F-12.265908009231101
sg1102
F-12.265908009231101
sg588
F-11.265908009231101
sg589
F-12.265908009231101
sg1122
F-11.265908009231101
sg591
F-12.265908009231101
sg592
F-11.265908009231101
sg593
F-12.265908009231101
sg594
F-11.265908009231101
sg595
F-12.265908009231101
sg596
F-12.265908009231101
sg597
F-11.265908009231101
sg598
F-12.265908009231101
sg599
F-11.265908009231101
sg600
F-11.265908009231101
sg601
F-11.265908009231101
sg602
F-11.265908009231101
sg1323
F-11.265908009231101
sg604
F-11.265908009231101
sg605
F-12.265908009231101
sg606
F-12.265908009231101
sg607
F-11.265908009231101
sg608
F-11.265908009231101
sg609
F-9.9439799143437391
sg610
F-12.265908009231101
sg1324
F-10.265908009231101
sg612
F-12.265908009231101
sg613
F-11.265908009231101
sg614
F-10.680945508509945
sg615
F-10.680945508509945
sg616
F-11.265908009231101
sg617
F-11.265908009231101
sg512
F-11.265908009231101
sg619
F-12.265908009231101
sg620
F-11.265908009231101
sg621
F-12.265908009231101
sg622
F-11.265908009231101
sg623
F-12.265908009231101
sg624
F-12.265908009231101
sg513
F-11.265908009231101
sg626
F-12.265908009231101
sg627
F-11.265908009231101
sg628
F-11.265908009231101
sS'0'
F-11.265908009231101
sg629
F-11.265908009231101
sg108
F-10.680945508509945
sg109
F-11.265908009231101
sg633
F-12.265908009231101
sg634
F-12.265908009231101
sg635
F-12.265908009231101
sg636
F-12.265908009231101
sg637
F-11.265908009231101
sg638
F-12.265908009231101
sg639
F-12.265908009231101
sg640
F-11.265908009231101
sg641
F-11.265908009231101
sg520
F-11.265908009231101
sg643
F-11.265908009231101
sg644
F-9.9439799143437391
sg645
F-12.265908009231101
sg646
F-12.265908009231101
sg647
F-11.265908009231101
sg648
F-11.265908009231101
sg649
F-12.265908009231101
sg2138
F-10.680945508509945
sg650
F-11.265908009231101
sg651
F-12.265908009231101
sg652
F-12.265908009231101
sg653
F-12.265908009231101
sg654
F-12.265908009231101
sg655
F-12.265908009231101
sg656
F-12.265908009231101
sg657
F-11.265908009231101
sg658
F-11.265908009231101
sg659
F-11.265908009231101
sg660
F-11.265908009231101
sg661
F-11.265908009231101
sg662
F-12.265908009231101
sg663
F-12.265908009231101
sg664
F-12.265908009231101
sg665
F-12.265908009231101
sg666
F-12.265908009231101
sg667
F-12.265908009231101
sg523
F-11.265908009231101
sg669
F-10.680945508509945
sg670
F-12.265908009231101
sg671
F-11.265908009231101
sg672
F-12.265908009231101
sg674
F-12.265908009231101
sg675
F-12.265908009231101
sg1704
F-11.265908009231101
sg676
F-12.265908009231101
sg677
F-10.680945508509945
sg678
F-10.680945508509945
sg679
F-11.265908009231101
sg680
F-10.680945508509945
sg681
F-12.265908009231101
sg682
F-11.265908009231101
sg683
F-12.265908009231101
sg119
F-7.5110205070676326
sg686
F-12.265908009231101
sg687
F-11.265908009231101
sg485
F-12.265908009231101
sg689
F-11.265908009231101
sg1344
F-11.265908009231101
sg691
F-12.265908009231101
sg692
F-10.680945508509945
sg693
F-12.265908009231101
sg694
F-9.9439799143437391
sg696
F-9.6809455085099447
sg697
F-12.265908009231101
sg698
F-11.265908009231101
sg699
F-11.265908009231101
sg700
F-11.265908009231101
sg1710
F-12.265908009231101
sg702
F-11.265908009231101
sg703
F-11.265908009231101
sg704
F-12.265908009231101
sg706
F-12.265908009231101
sg707
F-12.265908009231101
sg708
F-12.265908009231101
sg709
F-12.265908009231101
sg710
F-12.265908009231101
sg711
F-11.265908009231101
sg712
F-11.265908009231101
sg713
F-11.265908009231101
sg714
F-11.265908009231101
sg715
F-12.265908009231101
sg716
F-12.265908009231101
sg717
F-11.265908009231101
sg718
F-11.265908009231101
sg719
F-10.265908009231101
sg720
F-11.265908009231101
sg721
F-12.265908009231101
sg722
F-10.680945508509945
sg723
F-11.265908009231101
sg724
F-11.265908009231101
sg725
F-12.265908009231101
sg726
F-9.2659080092311008
sg727
F-12.265908009231101
sg728
F-10.680945508509945
sg729
F-11.265908009231101
sg730
F-12.265908009231101
sg731
F-12.265908009231101
sg732
F-12.265908009231101
sg733
F-11.265908009231101
sg1353
F-11.265908009231101
sg735
F-12.265908009231101
sg736
F-12.265908009231101
sg737
F-12.265908009231101
sS'1'
F-10.680945508509945
sg739
F-11.265908009231101
sg740
F-11.265908009231101
sg741
F-9.9439799143437391
sS'!'
F-9.6809455085099447
sg743
F-12.265908009231101
sg1031
F-12.265908009231101
sg745
F-11.265908009231101
sg746
F-12.265908009231101
sg747
F-11.265908009231101
sg748
F-12.265908009231101
sg749
F-11.265908009231101
sg750
F-12.265908009231101
sg1176
F-11.265908009231101
sg752
F-11.265908009231101
sg753
F-12.265908009231101
sg754
F-12.265908009231101
sg755
F-12.265908009231101
sg756
F-12.265908009231101
sg757
F-11.265908009231101
sg758
F-11.265908009231101
sg759
F-12.265908009231101
sg761
F-12.265908009231101
sg762
F-12.265908009231101
sg763
F-8.5654682910900082
sg764
F-12.265908009231101
sg765
F-10.680945508509945
sg766
F-11.265908009231101
sg1360
F-11.265908009231101
sg768
F-11.265908009231101
sg769
F-11.265908009231101
sg770
F-11.265908009231101
sg771
F-12.265908009231101
sg772
F-11.265908009231101
sg773
F-11.265908009231101
sg774
F-12.265908009231101
sg775
F-11.265908009231101
sg776
F-11.265908009231101
sg777
F-11.265908009231101
sg778
F-10.680945508509945
sg779
F-9.4585530871734971
sg780
F-12.265908009231101
sg781
F-12.265908009231101
sg782
F-12.265908009231101
sg783
F-11.265908009231101
sg538
F-11.265908009231101
sg785
F-12.265908009231101
sg786
F-11.265908009231101
sg787
F-11.265908009231101
sg788
F-12.265908009231101
sg789
F-11.265908009231101
sg790
F-12.265908009231101
sg791
F-12.265908009231101
sg792
F-11.265908009231101
sg548
F-11.265908009231101
sg794
F-12.265908009231101
sg2057
F-12.265908009231101
sg796
F-12.265908009231101
sg797
F-12.265908009231101
sg798
F-12.265908009231101
sg799
F-9.6809455085099447
sg800
F-11.265908009231101
sg801
F-7.8064763905938044
sg802
F-8.9439799143437391
sg803
F-11.265908009231101
sg804
F-11.265908009231101
sg805
F-11.265908009231101
sg806
F-12.265908009231101
sg807
F-12.265908009231101
sg808
F-12.265908009231101
sg809
F-11.265908009231101
sg810
F-12.265908009231101
sg811
F-11.265908009231101
sg812
F-12.265908009231101
sg813
F-12.265908009231101
sg814
F-12.265908009231101
sg815
F-11.265908009231101
sg816
F-11.265908009231101
sg564
F-12.265908009231101
sg818
F-12.265908009231101
sg819
F-11.265908009231101
sg820
F-12.265908009231101
sg821
F-12.265908009231101
sg822
F-10.680945508509945
sg1208
F-12.265908009231101
sg824
F-11.265908009231101
sg825
F-11.265908009231101
sg826
F-11.265908009231101
sg827
F-10.680945508509945
sg828
F-11.265908009231101
sg829
F-12.265908009231101
sg830
F-12.265908009231101
sg831
F-11.265908009231101
sg832
F-12.265908009231101
sg833
F-12.265908009231101
sS'G'
F-12.265908009231101
sg71
F-12.265908009231101
sg835
F-12.265908009231101
sg836
F-11.265908009231101
sg99
F-12.265908009231101
sg838
F-10.680945508509945
sg839
F-12.265908009231101
sg840
F-11.265908009231101
sg132
F-12.265908009231101
sg842
F-11.265908009231101
sg843
F-12.265908009231101
sg844
F-12.265908009231101
sg845
F-11.265908009231101
sg846
F-12.265908009231101
sg847
F-12.265908009231101
sg848
F-11.265908009231101
sg849
F-12.265908009231101
sg850
F-11.265908009231101
sg851
F-11.265908009231101
sg852
F-12.265908009231101
sg853
F-12.265908009231101
sg1096
F-12.265908009231101
sg855
F-11.265908009231101
sg856
F-11.265908009231101
sg857
F-12.265908009231101
sg858
F-12.265908009231101
sg859
F-12.265908009231101
sg860
F-11.265908009231101
sg861
F-12.265908009231101
sg862
F-11.265908009231101
sS't'
F-11.265908009231101
sg863
F-11.265908009231101
sS'2'
F-11.265908009231101
sg256
F-11.265908009231101
sg865
F-12.265908009231101
sg866
F-12.265908009231101
sg270
F-12.265908009231101
sg868
F-12.265908009231101
sg869
F-7.3590174136225821
sg285
F-11.265908009231101
sg871
F-12.265908009231101
sg872
F-11.265908009231101
sg873
F-11.265908009231101
sg875
F-11.265908009231101
sg876
F-11.265908009231101
sg877
F-11.265908009231101
sg878
F-9.9439799143437391
sg879
F-11.265908009231101
sg880
F-12.265908009231101
sg326
F-11.265908009231101
sg882
F-11.265908009231101
sg883
F-12.265908009231101
sg884
F-11.265908009231101
sg885
F-12.265908009231101
sS'r'
F-11.265908009231101
sg886
F-10.265908009231101
sg365
F-12.265908009231101
sg888
F-6.9439799143437391
sg889
F-11.265908009231101
sg890
F-10.680945508509945
sg891
F-11.265908009231101
sg892
F-11.265908009231101
sg893
F-12.265908009231101
sg894
F-9.2659080092311008
sg895
F-11.265908009231101
sg896
F-12.265908009231101
sg897
F-10.265908009231101
sg898
F-12.265908009231101
sg899
F-12.265908009231101
sg900
F-11.265908009231101
sg902
F-11.265908009231101
sg903
F-10.680945508509945
sg904
F-11.265908009231101
sg905
F-12.265908009231101
sg906
F-11.265908009231101
sg907
F-11.265908009231101
sg908
F-11.265908009231101
sg909
F-12.265908009231101
sg910
F-11.265908009231101
sg506
F-12.265908009231101
sg507
F-12.265908009231101
sg913
F-12.265908009231101
sg914
F-11.265908009231101
sg915
F-12.265908009231101
sg916
F-11.265908009231101
sg917
F-12.265908009231101
sg918
F-12.265908009231101
sg919
F-11.265908009231101
sg920
F-11.265908009231101
sg921
F-11.265908009231101
sg922
F-12.265908009231101
sg923
F-12.265908009231101
sg924
F-12.265908009231101
sg925
F-11.265908009231101
sg570
F-12.265908009231101
sg927
F-10.265908009231101
sg928
F-12.265908009231101
sg930
F-12.265908009231101
sg931
F-11.265908009231101
sg932
F-12.265908009231101
sg933
F-10.680945508509945
sg934
F-11.265908009231101
sg935
F-11.265908009231101
sg937
F-12.265908009231101
sg938
F-10.265908009231101
sg939
F-11.265908009231101
sg941
F-12.265908009231101
sg942
F-11.265908009231101
sg943
F-12.265908009231101
sg944
F-10.265908009231101
sg945
F-10.680945508509945
sg946
F-10.680945508509945
sg563
F-12.265908009231101
sg949
F-8.1784451679807617
sg950
F-11.265908009231101
sg951
F-11.265908009231101
sg952
F-10.680945508509945
sg953
F-12.265908009231101
sg2160
F-11.265908009231101
sg1385
F-11.265908009231101
sg955
F-12.265908009231101
sg956
F-12.265908009231101
sg957
F-11.265908009231101
sg958
F-11.265908009231101
sg959
F-11.265908009231101
sg960
F-12.265908009231101
sg2076
F-12.265908009231101
sg962
F-11.265908009231101
sg566
F-11.265908009231101
sg964
F-10.680945508509945
sg965
F-11.265908009231101
sg966
F-12.265908009231101
sg967
F-11.265908009231101
sg968
F-11.265908009231101
sg969
F-12.265908009231101
sg970
F-11.265908009231101
sg971
F-11.265908009231101
sg972
F-12.265908009231101
sg973
F-11.265908009231101
sg974
F-10.680945508509945
sg975
F-12.265908009231101
sg976
F-12.265908009231101
sg22
F-12.265908009231101
sg977
F-10.265908009231101
sg978
F-12.265908009231101
sS'3'
F-11.265908009231101
sg979
F-11.265908009231101
sg980
F-11.265908009231101
sg981
F-12.265908009231101
sg982
F-12.265908009231101
sg983
F-12.265908009231101
sg984
F-12.265908009231101
sg2253
F-12.265908009231101
sg985
F-10.680945508509945
sg986
F-11.265908009231101
sg987
F-12.265908009231101
sg988
F-11.265908009231101
sg989
F-11.265908009231101
sg990
F-10.265908009231101
sg991
F-11.265908009231101
sg992
F-11.265908009231101
sg993
F-12.265908009231101
sg994
F-12.265908009231101
sg995
F-12.265908009231101
sS's'
F-12.265908009231101
sg997
F-11.265908009231101
sg998
F-12.265908009231101
sg999
F-11.265908009231101
sg1000
F-12.265908009231101
sg1001
F-11.265908009231101
sg1002
F-12.265908009231101
sg1003
F-12.265908009231101
sg2310
F-11.265908009231101
sg1004
F-12.265908009231101
sg1005
F-11.265908009231101
sg1006
F-12.265908009231101
sg1007
F-12.265908009231101
sg1008
F-11.265908009231101
sg1009
F-12.265908009231101
sg1134
F-11.265908009231101
sg1011
F-12.265908009231101
sg1147
F-11.265908009231101
sg1013
F-11.265908009231101
sg1014
F-11.265908009231101
sg1015
F-12.265908009231101
sg1017
F-11.265908009231101
sg1018
F-12.265908009231101
sg1019
F-12.265908009231101
sg1020
F-11.265908009231101
sg1021
F-12.265908009231101
sg1022
F-11.265908009231101
sg2085
F-12.265908009231101
sg1024
F-12.265908009231101
sg1025
F-11.265908009231101
sg1026
F-11.265908009231101
sg1027
F-11.265908009231101
sg1028
F-11.265908009231101
sg1030
F-9.4585530871734971
sg1032
F-12.265908009231101
sg1033
F-12.265908009231101
sg1034
F-11.265908009231101
sg1035
F-11.265908009231101
sg2086
F-11.265908009231101
sg1037
F-11.265908009231101
sg1038
F-12.265908009231101
sg1039
F-11.265908009231101
sg1040
F-11.265908009231101
sg1041
F-11.265908009231101
sg1042
F-11.265908009231101
sg1043
F-12.265908009231101
sg1044
F-11.265908009231101
sg1045
F-12.265908009231101
sg1046
F-11.265908009231101
sg1047
F-12.265908009231101
sg1048
F-12.265908009231101
sg1049
F-12.265908009231101
sg1050
F-11.265908009231101
sg1051
F-12.265908009231101
sg1052
F-12.265908009231101
sg1053
F-12.265908009231101
sg1054
F-12.265908009231101
sg1055
F-11.265908009231101
sg1056
F-12.265908009231101
sg1057
F-12.265908009231101
sg1058
F-12.265908009231101
sg1059
F-12.265908009231101
sg1366
F-11.265908009231101
sg1060
F-10.265908009231101
sg1061
F-11.265908009231101
sg1062
F-10.265908009231101
sS'I'
F-6.1784451679807617
sg1063
F-12.265908009231101
sg1064
F-12.265908009231101
sg1065
F-12.265908009231101
sg1066
F-12.265908009231101
sg1067
F-11.265908009231101
sg1068
F-10.680945508509945
sg1406
F-10.680945508509945
sg1070
F-12.265908009231101
sg1071
F-11.265908009231101
sg1072
F-9.2659080092311008
sg1073
F-11.265908009231101
sg1074
F-12.265908009231101
sg1075
F-12.265908009231101
sg1974
F-12.265908009231101
sg1076
F-10.265908009231101
sg1077
F-11.265908009231101
sg1078
F-10.265908009231101
sg1079
F-12.265908009231101
sg1080
F-11.265908009231101
sg1081
F-12.265908009231101
sg1082
F-11.265908009231101
sg1083
F-11.265908009231101
sg1084
F-11.265908009231101
sg1085
F-11.265908009231101
sg2091
F-11.265908009231101
sg1087
F-11.265908009231101
sg1088
F-11.265908009231101
sg1089
F-11.265908009231101
sg1090
F-11.265908009231101
sg1091
F-12.265908009231101
sg1770
F-10.680945508509945
sg1093
F-10.680945508509945
sg1094
F-12.265908009231101
sS'4'
F-11.265908009231101
sg1095
F-11.265908009231101
sg1097
F-11.265908009231101
sg1098
F-12.265908009231101
sg1099
F-11.265908009231101
sg1100
F-11.265908009231101
sg1101
F-11.265908009231101
sg587
F-12.265908009231101
sg1103
F-11.265908009231101
sg1104
F-12.265908009231101
sg1105
F-12.265908009231101
sg2096
F-9.9439799143437391
sg1107
F-11.265908009231101
sg1108
F-12.265908009231101
sg1109
F-11.265908009231101
sg1110
F-12.265908009231101
sg1111
F-11.265908009231101
sg1112
F-12.265908009231101
sg1244
F-12.265908009231101
sg1413
F-11.265908009231101
sg1115
F-11.265908009231101
sg1116
F-11.265908009231101
sg1117
F-12.265908009231101
sg1118
F-11.265908009231101
sg1119
F-12.265908009231101
sg2101
F-12.265908009231101
sg1905
F-11.265908009231101
sg1120
F-11.265908009231101
sg1121
F-11.265908009231101
sg590
F-11.265908009231101
sg1123
F-12.265908009231101
sg1124
F-11.265908009231101
sg1125
F-11.265908009231101
sg1126
F-12.265908009231101
sg1127
F-11.265908009231101
sg1128
F-12.265908009231101
sg1416
F-11.265908009231101
sg2104
F-11.265908009231101
sg1131
F-12.265908009231101
sg2130
F-11.265908009231101
sg1132
F-12.265908009231101
sg1133
F-12.265908009231101
sg1010
F-11.265908009231101
sg1135
F-11.265908009231101
sg1136
F-11.265908009231101
sg531
F-12.265908009231101
sg1138
F-11.265908009231101
sg1139
F-11.265908009231101
sg1140
F-11.265908009231101
sg1141
F-11.265908009231101
sg1142
F-11.265908009231101
sg1143
F-7.7423460531740886
sg1144
F-12.265908009231101
sg1145
F-12.265908009231101
sg1146
F-6.980505790368853
sg1012
F-10.680945508509945
sg1148
F-11.265908009231101
sg1149
F-9.4585530871734971
sg1150
F-10.680945508509945
sg1151
F-10.265908009231101
sg1152
F-11.265908009231101
sg1153
F-12.265908009231101
sg1154
F-12.265908009231101
sg2120
F-10.680945508509945
sg1420
F-11.265908009231101
sg1156
F-12.265908009231101
sg1157
F-11.265908009231101
sg1158
F-11.265908009231101
sg1159
F-9.6809455085099447
sg1160
F-9.2659080092311008
sg1161
F-10.680945508509945
sg1162
F-10.680945508509945
sg1163
F-12.265908009231101
sg1164
F-10.265908009231101
sg1165
F-12.265908009231101
sg1166
F-10.680945508509945
sg1167
F-12.265908009231101
sg1168
F-12.265908009231101
sg1169
F-11.265908009231101
sg1170
F-12.265908009231101
sg1171
F-10.265908009231101
sg1172
F-12.265908009231101
sg1173
F-11.265908009231101
sg1174
F-11.265908009231101
sg1175
F-12.265908009231101
sg1177
F-11.265908009231101
sg1178
F-11.265908009231101
sg1179
F-11.265908009231101
sg1180
F-8.359017413622583
sg1181
F-12.265908009231101
sg1182
F-11.265908009231101
sg1183
F-11.265908009231101
sg1184
F-10.680945508509945
sg1185
F-11.265908009231101
sg1186
F-12.265908009231101
sg1187
F-11.265908009231101
sg1188
F-10.680945508509945
sg1189
F-11.265908009231101
sg1190
F-11.265908009231101
sg1191
F-12.265908009231101
sg1192
F-11.265908009231101
sg1193
F-11.265908009231101
sg1194
F-10.265908009231101
sg1195
F-11.265908009231101
sg1196
F-9.6809455085099447
sg1197
F-12.265908009231101
sg1198
F-8.4585530871734971
sg1199
F-12.265908009231101
sg1200
F-11.265908009231101
sg1201
F-11.265908009231101
sg1202
F-11.265908009231101
sg1203
F-10.680945508509945
sg1204
F-11.265908009231101
sg1205
F-11.265908009231101
sg1206
F-12.265908009231101
sg1207
F-11.265908009231101
sg2143
F-11.265908009231101
sS'5'
F-11.265908009231101
sg1209
F-11.265908009231101
sg1210
F-7.4079270141035289
sg1211
F-11.265908009231101
sg1788
F-11.265908009231101
sg1213
F-12.265908009231101
sg1214
F-12.265908009231101
sg1215
F-12.265908009231101
sg1216
F-11.265908009231101
sg1217
F-11.265908009231101
sg695
F-12.265908009231101
sg1219
F-12.265908009231101
sg1220
F-11.265908009231101
sg1221
F-12.265908009231101
sg1222
F-12.265908009231101
sg1223
F-12.265908009231101
sg1224
F-10.680945508509945
sg1225
F-11.265908009231101
sg1226
F-12.265908009231101
sS'u'
F-11.265908009231101
sg1446
F-11.265908009231101
sg1227
F-10.680945508509945
sg1228
F-11.265908009231101
sg1229
F-12.265908009231101
sg1230
F-8.359017413622583
sg1231
F-10.680945508509945
sg1232
F-10.680945508509945
sg1233
F-11.265908009231101
sg1234
F-11.265908009231101
sg1235
F-12.265908009231101
sg1236
F-11.265908009231101
sg1237
F-11.265908009231101
sg1238
F-12.265908009231101
sg1239
F-12.265908009231101
sg1241
F-12.265908009231101
sg1242
F-11.265908009231101
sg1243
F-12.265908009231101
sg1245
F-6.3832649598692601
sg1246
F-11.265908009231101
sg1247
F-12.265908009231101
sg1248
F-12.265908009231101
sg632
F-12.265908009231101
sg126
F-11.265908009231101
sg133
F-12.265908009231101
sg375
F-12.265908009231101
sg1253
F-12.265908009231101
sg1254
F-12.265908009231101
sg1255
F-12.265908009231101
sg1256
F-12.265908009231101
sg1257
F-10.680945508509945
sg159
F-12.265908009231101
sg163
F-12.265908009231101
sg1260
F-12.265908009231101
sg1261
F-8.1784451679807617
sg1262
F-11.265908009231101
sg1263
F-12.265908009231101
sg189
F-12.265908009231101
sg1265
F-11.265908009231101
sg205
F-12.265908009231101
sg1267
F-11.265908009231101
sg1268
F-11.265908009231101
sg218
F-12.265908009231101
sg1270
F-12.265908009231101
sg1271
F-12.265908009231101
sg1272
F-12.265908009231101
sg1273
F-11.265908009231101
sg1274
F-12.265908009231101
sg1798
F-11.265908009231101
sg1276
F-12.265908009231101
sg1277
F-11.265908009231101
sg1278
F-11.265908009231101
sg1279
F-12.265908009231101
sg1280
F-8.5654682910900082
sg1281
F-11.265908009231101
sg1282
F-12.265908009231101
sg1283
F-11.265908009231101
sg312
F-12.265908009231101
sg1285
F-11.265908009231101
sg1286
F-12.265908009231101
sg1287
F-12.265908009231101
sg1288
F-12.265908009231101
sg364
F-12.265908009231101
sg1290
F-12.265908009231101
sg1291
F-11.265908009231101
sg1292
F-12.265908009231101
sg1293
F-11.265908009231101
sg1294
F-12.265908009231101
sg1295
F-12.265908009231101
sg1296
F-11.265908009231101
sg2131
F-12.265908009231101
sg1297
F-11.265908009231101
sg437
F-11.265908009231101
sg1299
F-12.265908009231101
sg1300
F-10.680945508509945
sg1301
F-11.265908009231101
sg1302
F-12.265908009231101
sg1303
F-11.265908009231101
sg1304
F-12.265908009231101
sg1305
F-11.265908009231101
sg490
F-12.265908009231101
sg1307
F-11.265908009231101
sg2162
F-11.265908009231101
sg1308
F-12.265908009231101
sg1309
F-12.265908009231101
sg1311
F-11.265908009231101
sg1312
F-12.265908009231101
sg1313
F-12.265908009231101
sg1314
F-11.265908009231101
sg1315
F-11.265908009231101
sg1448
F-11.265908009231101
sS'6'
F-12.265908009231101
sg2190
F-11.265908009231101
sg1317
F-11.265908009231101
sg1318
F-12.265908009231101
sg1319
F-11.265908009231101
sg1320
F-11.265908009231101
sg1321
F-12.265908009231101
sg1322
F-11.265908009231101
sg603
F-12.265908009231101
sg611
F-11.265908009231101
sg1325
F-11.265908009231101
sg1326
F-12.265908009231101
sg1327
F-12.265908009231101
sg1328
F-11.265908009231101
sg1329
F-12.265908009231101
sg1330
F-11.265908009231101
sg1331
F-12.265908009231101
sg1332
F-12.265908009231101
sg1773
F-12.265908009231101
sg1334
F-11.265908009231101
sg1335
F-12.265908009231101
sg1336
F-11.265908009231101
sg1337
F-11.265908009231101
sg1338
F-12.265908009231101
sg1339
F-11.265908009231101
sg1340
F-11.265908009231101
sg1341
F-11.265908009231101
sg1342
F-10.680945508509945
sg1343
F-12.265908009231101
sg690
F-12.265908009231101
sg1345
F-12.265908009231101
sg1623
F-11.265908009231101
sg1347
F-11.265908009231101
sg1348
F-12.265908009231101
sg1349
F-12.265908009231101
sg1351
F-12.265908009231101
sg1352
F-11.265908009231101
sg734
F-12.265908009231101
sg738
F-12.265908009231101
sg742
F-11.265908009231101
sg1355
F-12.265908009231101
sg1356
F-12.265908009231101
sg1357
F-12.265908009231101
sg1358
F-11.265908009231101
sg1359
F-11.265908009231101
sg767
F-12.265908009231101
sg1361
F-11.265908009231101
sg1430
F-12.265908009231101
sg1363
F-12.265908009231101
sg1364
F-12.265908009231101
sg1365
F-10.680945508509945
sg1129
F-12.265908009231101
sg823
F-11.265908009231101
sg1368
F-11.265908009231101
sg1369
F-12.265908009231101
sS'a'
F-6.8396432545290029
sg1370
F-11.265908009231101
sg1371
F-11.265908009231101
sg453
F-12.265908009231101
sg1373
F-12.265908009231101
sg1374
F-11.265908009231101
sg1375
F-12.265908009231101
sg1376
F-11.265908009231101
sg1377
F-11.265908009231101
sg1378
F-10.265908009231101
sg1460
F-12.265908009231101
sg1380
F-11.265908009231101
sg1381
F-12.265908009231101
sg1382
F-12.265908009231101
sg1383
F-8.4585530871734971
sg1384
F-12.265908009231101
sg954
F-12.265908009231101
sg1386
F-11.265908009231101
sg1387
F-10.680945508509945
sg1388
F-9.6809455085099447
sg1389
F-11.265908009231101
sg1390
F-12.265908009231101
sg996
F-12.265908009231101
sg1392
F-11.265908009231101
sg1393
F-11.265908009231101
sg1394
F-11.265908009231101
sg483
F-12.265908009231101
sg1396
F-11.265908009231101
sg1029
F-12.265908009231101
sg1398
F-11.265908009231101
sg1399
F-12.265908009231101
sg1400
F-11.265908009231101
sg198
F-10.265908009231101
sg1402
F-11.265908009231101
sg1403
F-12.265908009231101
sg1404
F-12.265908009231101
sg2146
F-11.265908009231101
sg1069
F-12.265908009231101
sg1407
F-12.265908009231101
sg1408
F-12.265908009231101
sg1409
F-11.265908009231101
sg1410
F-11.265908009231101
sg1411
F-12.265908009231101
sg1412
F-11.265908009231101
sg1114
F-12.265908009231101
sg1414
F-11.265908009231101
sg1415
F-11.265908009231101
sg1401
F-9.9439799143437391
sg1417
F-12.265908009231101
sg1418
F-12.265908009231101
sg1419
F-11.265908009231101
sg1155
F-12.265908009231101
sg1421
F-9.9439799143437391
sg1422
F-11.265908009231101
sg1423
F-11.265908009231101
sg1424
F-11.265908009231101
sg1425
F-12.265908009231101
sg1426
F-11.265908009231101
sg1427
F-11.265908009231101
sg1428
F-9.4585530871734971
sg1429
F-12.265908009231101
sg1218
F-12.265908009231101
sg1431
F-12.265908009231101
sg1432
F-11.265908009231101
sg1786
F-11.265908009231101
sg1433
F-11.265908009231101
sg1434
F-12.265908009231101
sg1435
F-12.265908009231101
sS'7'
F-11.265908009231101
sg1436
F-11.265908009231101
sg1437
F-10.265908009231101
sg1438
F-12.265908009231101
sg1367
F-11.265908009231101
sg1439
F-11.265908009231101
sg1440
F-12.265908009231101
sg1441
F-11.265908009231101
sg1442
F-10.680945508509945
sg1443
F-12.265908009231101
sg1444
F-12.265908009231101
sg1445
F-11.265908009231101
sg439
F-12.265908009231101
sg1447
F-12.265908009231101
sg1316
F-12.265908009231101
sg1449
F-11.265908009231101
sg1450
F-10.680945508509945
sg1451
F-11.265908009231101
sg685
F-12.265908009231101
sg1453
F-11.265908009231101
sg1454
F-12.265908009231101
sg1456
F-12.265908009231101
sg1457
F-12.265908009231101
sg1458
F-12.265908009231101
sg1459
F-11.265908009231101
sg1379
F-12.265908009231101
sg1461
F-11.265908009231101
sg1462
F-9.9439799143437391
sg1463
F-10.680945508509945
sg2157
F-11.265908009231101
sg1465
F-11.265908009231101
sg1466
F-11.265908009231101
sg1467
F-11.265908009231101
sg1468
F-11.265908009231101
sg1469
F-12.265908009231101
sg95
F-12.265908009231101
sg1471
F-12.265908009231101
sg1472
F-11.265908009231101
sg1473
F-9.9439799143437391
sg1474
F-12.265908009231101
sg1475
F-12.265908009231101
sg1476
F-12.265908009231101
sg1477
F-12.265908009231101
sg1478
F-12.265908009231101
sg1479
F-10.680945508509945
sg1480
F-11.265908009231101
sg1481
F-12.265908009231101
sg1482
F-11.265908009231101
sg1483
F-11.265908009231101
sg1484
F-12.265908009231101
sg1485
F-11.265908009231101
sg1486
F-11.265908009231101
sg1487
F-12.265908009231101
sg1488
F-12.265908009231101
sg1489
F-11.265908009231101
sg1490
F-12.265908009231101
sg1491
F-10.265908009231101
sg1492
F-12.265908009231101
sg1493
F-12.265908009231101
sg1494
F-11.265908009231101
sg1495
F-12.265908009231101
sg1496
F-12.265908009231101
sg1497
F-11.265908009231101
sg1498
F-11.265908009231101
sg1499
F-10.680945508509945
sg1500
F-12.265908009231101
sg1501
F-11.265908009231101
sg1502
F-12.265908009231101
sg1503
F-12.265908009231101
sg1504
F-12.265908009231101
sg1505
F-12.265908009231101
sg1506
F-11.265908009231101
sg192
F-12.265908009231101
sg1508
F-12.265908009231101
sg1509
F-12.265908009231101
sg1510
F-12.265908009231101
sg1511
F-12.265908009231101
sg1512
F-10.680945508509945
sg1513
F-12.265908009231101
sg1514
F-8.8064763905938044
sg1515
F-11.265908009231101
sg1516
F-10.680945508509945
sg1517
F-11.265908009231101
sg1518
F-11.265908009231101
sg1519
F-12.265908009231101
sg1520
F-10.680945508509945
sg1521
F-11.265908009231101
sg1522
F-12.265908009231101
sg1523
F-12.265908009231101
sg1524
F-12.265908009231101
sg1525
F-12.265908009231101
sg1526
F-12.265908009231101
sg1527
F-11.265908009231101
sg1830
F-12.265908009231101
sg1528
F-12.265908009231101
sg2170
F-11.265908009231101
sg1530
F-12.265908009231101
sg1531
F-11.265908009231101
sg1533
F-11.265908009231101
sg1534
F-11.265908009231101
sg1535
F-11.265908009231101
sg1536
F-12.265908009231101
sS'b'
F-12.265908009231101
sg1537
F-12.265908009231101
sg1538
F-10.265908009231101
sg1539
F-12.265908009231101
sg1540
F-12.265908009231101
sg1541
F-11.265908009231101
sg1542
F-12.265908009231101
sg1543
F-11.265908009231101
sg1544
F-12.265908009231101
sg1545
F-12.265908009231101
sg1546
F-11.265908009231101
sg1547
F-12.265908009231101
sg1548
F-11.265908009231101
sg1549
F-11.265908009231101
sg1550
F-12.265908009231101
sg1551
F-10.680945508509945
sg1552
F-11.265908009231101
sg1553
F-8.5654682910900082
sg1554
F-12.265908009231101
sg1555
F-12.265908009231101
sg1557
F-12.265908009231101
sg1558
F-12.265908009231101
sg1559
F-11.265908009231101
sg1560
F-10.680945508509945
sg1561
F-11.265908009231101
sg1562
F-11.265908009231101
sg1563
F-10.680945508509945
sg1564
F-12.265908009231101
sg1565
F-12.265908009231101
sg1566
F-12.265908009231101
sg1567
F-11.265908009231101
sg1568
F-11.265908009231101
sg1569
F-12.265908009231101
sg1570
F-11.265908009231101
sg1571
F-9.4585530871734971
sg1572
F-11.265908009231101
sg1573
F-11.265908009231101
sg940
F-12.265908009231101
sg1575
F-10.680945508509945
sg1577
F-12.265908009231101
sg948
F-11.265908009231101
sg1579
F-11.265908009231101
sg874
F-12.265908009231101
sg1581
F-12.265908009231101
sg1582
F-12.265908009231101
sg1583
F-11.265908009231101
sg1584
F-11.265908009231101
sg1585
F-12.265908009231101
sg1587
F-12.265908009231101
sg1588
F-11.265908009231101
sg1589
F-11.265908009231101
sg1590
F-12.265908009231101
sg1591
F-12.265908009231101
sg1592
F-11.265908009231101
sg1593
F-11.265908009231101
sg1594
F-12.265908009231101
sg1595
F-12.265908009231101
sg1596
F-12.265908009231101
sg1597
F-11.265908009231101
sg1598
F-12.265908009231101
sg1599
F-11.265908009231101
sg1601
F-12.265908009231101
sg1602
F-11.265908009231101
sg1603
F-11.265908009231101
sg1604
F-12.265908009231101
sg1605
F-12.265908009231101
sg1606
F-12.265908009231101
sg1607
F-12.265908009231101
sg1608
F-12.265908009231101
sg1609
F-12.265908009231101
sg1610
F-11.265908009231101
sg1611
F-10.680945508509945
sg331
F-12.265908009231101
sg1613
F-12.265908009231101
sg1614
F-12.265908009231101
sg1615
F-10.680945508509945
sg1616
F-12.265908009231101
sg1617
F-12.265908009231101
sg1618
F-11.265908009231101
sg1619
F-12.265908009231101
sg1620
F-11.265908009231101
sg1621
F-12.265908009231101
sg1622
F-12.265908009231101
sg1346
F-12.265908009231101
sg1624
F-12.265908009231101
sg1625
F-11.265908009231101
sg1626
F-10.265908009231101
sg1627
F-9.9439799143437391
sg1628
F-11.265908009231101
sg1629
F-12.265908009231101
sS'9'
F-12.265908009231101
sg1933
F-8.9439799143437391
sg1630
F-12.265908009231101
sg1631
F-10.680945508509945
sg1632
F-12.265908009231101
sg688
F-11.265908009231101
sg1600
F-10.680945508509945
sg232
F-12.265908009231101
sg1636
F-10.680945508509945
sg1637
F-11.265908009231101
sg1638
F-12.265908009231101
sg1639
F-12.265908009231101
sg1640
F-11.265908009231101
sg1641
F-11.265908009231101
sg1642
F-10.680945508509945
sg1452
F-12.265908009231101
sg1643
F-12.265908009231101
sg1644
F-12.265908009231101
sg273
F-12.265908009231101
sg276
F-12.265908009231101
sg279
F-12.265908009231101
sg1634
F-11.265908009231101
sg1648
F-12.265908009231101
sg1649
F-12.265908009231101
sg1650
F-12.265908009231101
sg2195
F-9.2659080092311008
sg1651
F-12.265908009231101
sg532
F-11.265908009231101
sg1652
F-11.265908009231101
sg1653
F-11.265908009231101
sg1654
F-11.265908009231101
sg1655
F-12.265908009231101
sg1656
F-12.265908009231101
sg1657
F-12.265908009231101
sg1658
F-11.265908009231101
sg1659
F-11.265908009231101
sg1660
F-11.265908009231101
sg1661
F-12.265908009231101
sg416
F-11.265908009231101
sg1663
F-12.265908009231101
sg1664
F-11.265908009231101
sg1665
F-12.265908009231101
sg440
F-12.265908009231101
sg1667
F-12.265908009231101
sg1668
F-12.265908009231101
sg1669
F-10.265908009231101
sg1670
F-11.265908009231101
sg1671
F-12.265908009231101
sg1672
F-12.265908009231101
sg1673
F-11.265908009231101
sg1397
F-10.680945508509945
sg2199
F-10.265908009231101
sg1675
F-12.265908009231101
sg1677
F-11.265908009231101
sg1678
F-12.265908009231101
sg1679
F-11.265908009231101
sg1680
F-12.265908009231101
sg1681
F-9.9439799143437391
sg1507
F-10.680945508509945
sg1683
F-12.265908009231101
sg1684
F-11.265908009231101
sg1685
F-10.680945508509945
sg1686
F-12.265908009231101
sg1687
F-11.265908009231101
sg1688
F-12.265908009231101
sg1689
F-12.265908009231101
sg1690
F-12.265908009231101
sg1691
F-12.265908009231101
sg1692
F-11.265908009231101
sg1693
F-11.265908009231101
sg1694
F-12.265908009231101
sg1695
F-11.265908009231101
sg1696
F-12.265908009231101
sg1697
F-12.265908009231101
sg1113
F-11.265908009231101
sg1698
F-8.0959830077887887
sg1699
F-12.265908009231101
sg1700
F-11.265908009231101
sg1701
F-12.265908009231101
sg1702
F-12.265908009231101
sg1867
F-10.265908009231101
sS'O'
F-12.265908009231101
sg1705
F-12.265908009231101
sg1706
F-12.265908009231101
sg2204
F-11.265908009231101
sg1708
F-12.265908009231101
sg1868
F-10.680945508509945
sg701
F-12.265908009231101
sg209
F-9.6809455085099447
sg1712
F-12.265908009231101
sg1713
F-11.265908009231101
sg1714
F-12.265908009231101
sg1715
F-12.265908009231101
sg1716
F-12.265908009231101
sg1717
F-12.265908009231101
sg1718
F-12.265908009231101
sg1719
F-9.0959830077887887
sg1720
F-11.265908009231101
sg1721
F-11.265908009231101
sg1722
F-10.265908009231101
sg1723
F-11.265908009231101
sg1724
F-12.265908009231101
sg1726
F-10.680945508509945
sg1727
F-12.265908009231101
sg1728
F-12.265908009231101
sg1729
F-12.265908009231101
sg2208
F-11.265908009231101
sg1731
F-11.265908009231101
sg1732
F-12.265908009231101
sg1733
F-11.265908009231101
sg1734
F-11.265908009231101
sg1735
F-9.6809455085099447
sg1872
F-11.265908009231101
sg1737
F-12.265908009231101
sg1738
F-10.680945508509945
sg1739
F-11.265908009231101
sg854
F-11.265908009231101
sg1741
F-12.265908009231101
sg1742
F-12.265908009231101
sg1743
F-12.265908009231101
sg1744
F-12.265908009231101
sS':'
F-12.265908009231101
sg1745
F-11.265908009231101
sg2210
F-11.265908009231101
sg1748
F-12.265908009231101
sg1749
F-11.265908009231101
sg1750
F-10.265908009231101
sg1751
F-12.265908009231101
sg1752
F-10.680945508509945
sg1753
F-12.265908009231101
sg1754
F-7.873590586452341
sg1755
F-11.265908009231101
sg1756
F-11.265908009231101
sg1757
F-11.265908009231101
sg1758
F-11.265908009231101
sg1759
F-11.265908009231101
sg1760
F-11.265908009231101
sg1761
F-11.265908009231101
sg1762
F-11.265908009231101
sg1763
F-12.265908009231101
sg1764
F-12.265908009231101
sg402
F-12.265908009231101
sg1766
F-11.265908009231101
sg1767
F-12.265908009231101
sg1768
F-12.265908009231101
sg1769
F-9.9439799143437391
sg1092
F-11.265908009231101
sg1771
F-12.265908009231101
sg1772
F-12.265908009231101
sg1774
F-11.265908009231101
sg1775
F-11.265908009231101
sg1776
F-11.265908009231101
sg1777
F-12.265908009231101
sg1778
F-12.265908009231101
sg1779
F-10.680945508509945
sg2221
F-12.265908009231101
sg1240
F-11.265908009231101
sg1782
F-12.265908009231101
sg1783
F-12.265908009231101
sg1784
F-12.265908009231101
sg1785
F-11.265908009231101
sg280
F-11.265908009231101
sg1787
F-11.265908009231101
sg1212
F-12.265908009231101
sg1789
F-11.265908009231101
sg1790
F-12.265908009231101
sg1791
F-12.265908009231101
sg1792
F-12.265908009231101
sg1793
F-11.265908009231101
sg1794
F-11.265908009231101
sg1795
F-12.265908009231101
sg1796
F-12.265908009231101
sg1797
F-12.265908009231101
sg1275
F-11.265908009231101
sg1799
F-10.680945508509945
sg1800
F-12.265908009231101
sg1801
F-11.265908009231101
sg1802
F-12.265908009231101
sg1803
F-11.265908009231101
sg1804
F-11.265908009231101
sg1333
F-11.265908009231101
sg1806
F-12.265908009231101
sg131
F-10.680945508509945
sg1807
F-12.265908009231101
sg1808
F-12.265908009231101
sg1809
F-12.265908009231101
sg179
F-12.265908009231101
sg1811
F-11.265908009231101
sg1812
F-12.265908009231101
sg1813
F-12.265908009231101
sg1814
F-11.265908009231101
sg1815
F-12.265908009231101
sg1816
F-12.265908009231101
sg1817
F-12.265908009231101
sg1818
F-12.265908009231101
sg1819
F-9.6809455085099447
sg1556
F-12.265908009231101
sg1821
F-11.265908009231101
sg1822
F-12.265908009231101
sg1823
F-11.265908009231101
sg1824
F-11.265908009231101
sg1825
F-12.265908009231101
sg1826
F-12.265908009231101
sg1928
F-11.265908009231101
sg1827
F-12.265908009231101
sg1828
F-12.265908009231101
sg1829
F-10.680945508509945
sg1137
F-11.265908009231101
sg1831
F-11.265908009231101
sg1832
F-12.265908009231101
sg1833
F-12.265908009231101
sg1834
F-11.265908009231101
sg1835
F-10.680945508509945
sg1836
F-12.265908009231101
sg1837
F-12.265908009231101
sg1838
F-11.265908009231101
sg1839
F-11.265908009231101
sg1840
F-11.265908009231101
sg1841
F-12.265908009231101
sg1842
F-12.265908009231101
sg1843
F-12.265908009231101
sg1574
F-12.265908009231101
sg1845
F-12.265908009231101
sg1846
F-11.265908009231101
sg1847
F-11.265908009231101
sg1848
F-12.265908009231101
sg1849
F-12.265908009231101
sg1850
F-11.265908009231101
sg1851
F-12.265908009231101
sg1852
F-11.265908009231101
sg1853
F-12.265908009231101
sg1854
F-11.265908009231101
sg1855
F-12.265908009231101
sg1856
F-12.265908009231101
sg1857
F-11.265908009231101
sg1859
F-10.265908009231101
sg1860
F-11.265908009231101
sg1861
F-12.265908009231101
sg1395
F-12.265908009231101
sg1863
F-12.265908009231101
sg1864
F-12.265908009231101
sg1865
F-11.265908009231101
sg1866
F-11.265908009231101
sg1703
F-11.265908009231101
sg1709
F-11.265908009231101
sg1869
F-12.265908009231101
sg2254
F-11.265908009231101
sg1870
F-11.265908009231101
sg1871
F-10.680945508509945
sg1736
F-12.265908009231101
sg2115
F-12.265908009231101
sg1873
F-12.265908009231101
sg1874
F-12.265908009231101
sg2234
F-8.4585530871734971
sg1876
F-12.265908009231101
sg1877
F-12.265908009231101
sg1878
F-12.265908009231101
sg1879
F-12.265908009231101
sg1880
F-11.265908009231101
sg1881
F-12.265908009231101
sg1882
F-12.265908009231101
sg1883
F-8.5654682910900082
sg1884
F-12.265908009231101
sg1885
F-12.265908009231101
sg1886
F-8.5654682910900082
sg1887
F-12.265908009231101
sg1888
F-12.265908009231101
sg225
F-11.265908009231101
sg1890
F-11.265908009231101
sg2182
F-10.680945508509945
sg1891
F-11.265908009231101
sg1892
F-12.265908009231101
sg1893
F-12.265908009231101
sg1894
F-12.265908009231101
sg1895
F-12.265908009231101
sg1896
F-12.265908009231101
sg1897
F-11.265908009231101
sg2237
F-11.265908009231101
sg1899
F-12.265908009231101
sg1900
F-11.265908009231101
sg1901
F-11.265908009231101
sg1902
F-12.265908009231101
sg1903
F-12.265908009231101
sg1904
F-9.9439799143437391
sg1676
F-12.265908009231101
sg1906
F-12.265908009231101
sg1907
F-12.265908009231101
sg1908
F-12.265908009231101
sg1909
F-11.265908009231101
sg1910
F-12.265908009231101
sg1911
F-12.265908009231101
sg1912
F-12.265908009231101
sg2270
F-11.265908009231101
sg1913
F-11.265908009231101
sg1914
F-12.265908009231101
sg1915
F-12.265908009231101
sg1916
F-12.265908009231101
sg1917
F-12.265908009231101
sg1918
F-12.265908009231101
sg1919
F-11.265908009231101
sg1920
F-12.265908009231101
sg1921
F-12.265908009231101
sg1922
F-12.265908009231101
sg1923
F-12.265908009231101
sg1924
F-12.265908009231101
sg1925
F-12.265908009231101
sg1926
F-12.265908009231101
sg1927
F-12.265908009231101
sg1898
F-12.265908009231101
sg1929
F-12.265908009231101
sg1930
F-12.265908009231101
sg1931
F-12.265908009231101
sg1932
F-11.265908009231101
sg2243
F-11.265908009231101
sg1633
F-12.265908009231101
sg1934
F-11.265908009231101
sg1935
F-12.265908009231101
sg1936
F-11.265908009231101
sg1937
F-11.265908009231101
sg1938
F-11.265908009231101
sg1939
F-12.265908009231101
sS'|'
F-12.265908009231101
sg1940
F-12.265908009231101
sg673
F-12.265908009231101
sg1942
F-12.265908009231101
sg1943
F-11.265908009231101
sg1944
F-10.265908009231101
sg1945
F-11.265908009231101
sg1946
F-8.6809455085099447
sg1947
F-12.265908009231101
sg1948
F-11.265908009231101
sS"'"
F-12.265908009231101
sg1949
F-11.265908009231101
sg1950
F-12.265908009231101
sg1951
F-11.265908009231101
sg1952
F-11.265908009231101
sg1953
F-11.265908009231101
sg1954
F-10.680945508509945
sg1955
F-12.265908009231101
sg1956
F-11.265908009231101
sg1957
F-11.265908009231101
sg1958
F-9.9439799143437391
sg1959
F-11.265908009231101
sg1960
F-12.265908009231101
sg1961
F-11.265908009231101
sg1962
F-11.265908009231101
sg120
F-10.680945508509945
sg1306
F-10.265908009231101
sg129
F-11.265908009231101
sg1965
F-11.265908009231101
sg1966
F-12.265908009231101
sg1967
F-12.265908009231101
sg1968
F-12.265908009231101
sg2251
F-12.265908009231101
sg1969
F-12.265908009231101
sg1970
F-11.265908009231101
sg1971
F-10.680945508509945
sg1972
F-11.265908009231101
sg1973
F-9.9439799143437391
sg1740
F-11.265908009231101
sg1975
F-12.265908009231101
sg1976
F-12.265908009231101
sg1977
F-12.265908009231101
sg1978
F-11.265908009231101
sg1979
F-10.680945508509945
sg1980
F-11.265908009231101
sg1981
F-12.265908009231101
sg1682
F-11.265908009231101
sg1982
F-12.265908009231101
sg1983
F-11.265908009231101
sg1984
F-12.265908009231101
sg296
F-11.265908009231101
sg1986
F-12.265908009231101
sg1987
F-12.265908009231101
sg1988
F-12.265908009231101
sg324
F-12.265908009231101
sg2257
F-11.265908009231101
sg1991
F-11.265908009231101
sg1992
F-12.265908009231101
sg1993
F-11.265908009231101
sg1994
F-12.265908009231101
sg1578
F-12.265908009231101
sg1995
F-12.265908009231101
sg1996
F-12.265908009231101
sg1997
F-10.265908009231101
sg1998
F-12.265908009231101
sg1999
F-11.265908009231101
sg2000
F-8.4585530871734971
sg2001
F-9.0959830077887887
sg841
F-10.265908009231101
sg1858
F-12.265908009231101
sg2003
F-11.265908009231101
sg2004
F-12.265908009231101
sS'='
F-12.265908009231101
sg2005
F-11.265908009231101
sg2006
F-12.265908009231101
sg2007
F-12.265908009231101
sg2008
F-12.265908009231101
sg2009
F-12.265908009231101
sg2010
F-12.265908009231101
sg2011
F-9.6809455085099447
sg2012
F-12.265908009231101
sg929
F-12.265908009231101
sg547
F-12.265908009231101
sg2015
F-12.265908009231101
sg2016
F-12.265908009231101
sg2017
F-12.265908009231101
sg2018
F-11.265908009231101
sg2019
F-11.265908009231101
sg2020
F-11.265908009231101
sg2021
F-11.265908009231101
sg2022
F-12.265908009231101
sg2023
F-11.265908009231101
sg2024
F-12.265908009231101
sg2025
F-12.265908009231101
sg2026
F-12.265908009231101
sg2027
F-11.265908009231101
sg2028
F-11.265908009231101
sg2029
F-12.265908009231101
sg2030
F-11.265908009231101
sg2031
F-11.265908009231101
sg2032
F-12.265908009231101
sg2033
F-12.265908009231101
sg2034
F-12.265908009231101
sg2035
F-8.6809455085099447
sg2036
F-11.265908009231101
sg2037
F-12.265908009231101
sg2038
F-11.265908009231101
sg2040
F-10.265908009231101
sg2041
F-12.265908009231101
sg2042
F-12.265908009231101
sg2043
F-12.265908009231101
sg2044
F-12.265908009231101
sg2045
F-12.265908009231101
sg2046
F-12.265908009231101
sg2273
F-12.265908009231101
sg2048
F-11.265908009231101
sg2049
F-12.265908009231101
sg2050
F-12.265908009231101
sg2051
F-12.265908009231101
sg1350
F-12.265908009231101
sg2053
F-12.265908009231101
sg2054
F-12.265908009231101
sg2055
F-12.265908009231101
sg2056
F-12.265908009231101
sg795
F-11.265908009231101
sg2058
F-12.265908009231101
sg2059
F-12.265908009231101
sg2060
F-12.265908009231101
sg2061
F-12.265908009231101
sg2062
F-12.265908009231101
sg2063
F-9.6809455085099447
sg2065
F-12.265908009231101
sg2066
F-11.265908009231101
sg1725
F-11.265908009231101
sg2068
F-12.265908009231101
sg2069
F-11.265908009231101
sg1711
F-11.265908009231101
sg2070
F-12.265908009231101
sg2071
F-12.265908009231101
sg2072
F-11.265908009231101
sg2073
F-12.265908009231101
sg2074
F-11.265908009231101
sg2075
F-12.265908009231101
sg961
F-12.265908009231101
sg2077
F-11.265908009231101
sg2078
F-11.265908009231101
sg2079
F-12.265908009231101
sg2080
F-10.680945508509945
sg2081
F-12.265908009231101
sg2082
F-11.265908009231101
sg2083
F-11.265908009231101
sg1016
F-12.265908009231101
sg1023
F-11.265908009231101
sg1036
F-12.265908009231101
sg2087
F-11.265908009231101
sg2088
F-12.265908009231101
sg2089
F-12.265908009231101
sg359
F-12.265908009231101
sg2090
F-11.265908009231101
sg1086
F-12.265908009231101
sg2092
F-12.265908009231101
sg2093
F-12.265908009231101
sg1455
F-12.265908009231101
sg2095
F-12.265908009231101
sg1106
F-11.265908009231101
sg2097
F-11.265908009231101
sg2098
F-12.265908009231101
sg2099
F-12.265908009231101
sg2100
F-12.265908009231101
sg2067
F-11.265908009231101
sg2102
F-12.265908009231101
sg2103
F-11.265908009231101
sg1130
F-12.265908009231101
sg2105
F-9.9439799143437391
sg2106
F-12.265908009231101
sg2107
F-11.265908009231101
sg2108
F-12.265908009231101
sg2109
F-12.265908009231101
sg2110
F-11.265908009231101
sg2111
F-12.265908009231101
sg2112
F-12.265908009231101
sg2113
F-12.265908009231101
sg2114
F-12.265908009231101
sg1532
F-12.265908009231101
sg2116
F-11.265908009231101
sg2117
F-12.265908009231101
sg2118
F-11.265908009231101
sg2119
F-12.265908009231101
sg1249
F-12.265908009231101
sg2121
F-9.9439799143437391
sg2122
F-11.265908009231101
sg2123
F-12.265908009231101
sg2124
F-12.265908009231101
sg2125
F-12.265908009231101
sg2126
F-10.680945508509945
sg2127
F-12.265908009231101
sg2128
F-12.265908009231101
sg2129
F-11.265908009231101
sg793
F-11.265908009231101
sg366
F-11.265908009231101
sg2133
F-11.265908009231101
sg2134
F-12.265908009231101
sg2135
F-12.265908009231101
sg2136
F-11.265908009231101
sg2137
F-9.2659080092311008
sg1362
F-12.265908009231101
sg2139
F-12.265908009231101
sg2140
F-11.265908009231101
sg2141
F-12.265908009231101
sg2142
F-11.265908009231101
sg2287
F-11.265908009231101
sg1391
F-12.265908009231101
sg2144
F-12.265908009231101
sg2145
F-12.265908009231101
sg1405
F-12.265908009231101
sg2147
F-11.265908009231101
sg2148
F-10.265908009231101
sg2149
F-11.265908009231101
sg2150
F-10.680945508509945
sg2151
F-12.265908009231101
sg2152
F-11.265908009231101
sg2153
F-12.265908009231101
sg2154
F-11.265908009231101
sg2155
F-12.265908009231101
sg2156
F-10.265908009231101
sg1464
F-11.265908009231101
sg2158
F-10.680945508509945
sS'i'
F-8.4585530871734971
sg2159
F-12.265908009231101
sg1354
F-12.265908009231101
sg2161
F-11.265908009231101
sg936
F-11.265908009231101
sg2163
F-12.265908009231101
sg2164
F-10.680945508509945
sg2165
F-12.265908009231101
sg2305
F-12.265908009231101
sg2166
F-12.265908009231101
sg2167
F-12.265908009231101
sg2168
F-12.265908009231101
sg2169
F-12.265908009231101
sg1529
F-12.265908009231101
sg2171
F-12.265908009231101
sg2172
F-11.265908009231101
sg2173
F-12.265908009231101
sg2174
F-11.265908009231101
sg2175
F-11.265908009231101
sg2176
F-11.265908009231101
sg2177
F-11.265908009231101
sg2178
F-12.265908009231101
sg2179
F-12.265908009231101
sg2180
F-12.265908009231101
sg2181
F-11.265908009231101
sg1576
F-12.265908009231101
sg2183
F-12.265908009231101
sg2184
F-11.265908009231101
sg1586
F-12.265908009231101
sg2293
F-10.680945508509945
sg2187
F-11.265908009231101
sg2188
F-12.265908009231101
sg2189
F-12.265908009231101
sg1612
F-11.265908009231101
sg2191
F-12.265908009231101
sg2192
F-12.265908009231101
sg2193
F-12.265908009231101
sg2194
F-12.265908009231101
sg1580
F-11.265908009231101
sg2196
F-12.265908009231101
sg2197
F-11.265908009231101
sg2198
F-8.5654682910900082
sg1674
F-12.265908009231101
sg2200
F-12.265908009231101
sg2201
F-12.265908009231101
sg2202
F-12.265908009231101
sg2203
F-11.265908009231101
sg1707
F-12.265908009231101
sg2205
F-11.265908009231101
sg2206
F-12.265908009231101
sg2207
F-11.265908009231101
sg1730
F-10.265908009231101
sg2209
F-12.265908009231101
sg1746
F-12.265908009231101
sg2211
F-11.265908009231101
sg2212
F-12.265908009231101
sg2213
F-11.265908009231101
sg2214
F-12.265908009231101
sg2215
F-9.9439799143437391
sg2216
F-12.265908009231101
sg2217
F-11.265908009231101
sg2218
F-9.2659080092311008
sg2219
F-11.265908009231101
sg2220
F-12.265908009231101
sg1780
F-12.265908009231101
sg1844
F-11.265908009231101
sg2222
F-12.265908009231101
sg2223
F-12.265908009231101
sg2084
F-12.265908009231101
sg2224
F-12.265908009231101
sg2225
F-11.265908009231101
sg2226
F-10.680945508509945
sS'?'
F-12.265908009231101
sg2228
F-12.265908009231101
sg2229
F-12.265908009231101
sg2230
F-12.265908009231101
sg2231
F-12.265908009231101
sg2302
F-10.680945508509945
sg2232
F-12.265908009231101
sg2233
F-11.265908009231101
sg1875
F-11.265908009231101
sg2235
F-12.265908009231101
sg2303
F-12.265908009231101
sg2132
F-12.265908009231101
sg2238
F-11.265908009231101
sg2239
F-12.265908009231101
sg2240
F-11.265908009231101
sg2241
F-12.265908009231101
sg2242
F-12.265908009231101
sg1889
F-12.265908009231101
sg2244
F-11.265908009231101
sg2245
F-12.265908009231101
sg2304
F-11.265908009231101
sg2246
F-12.265908009231101
sg2052
F-12.265908009231101
sg2247
F-12.265908009231101
sg2249
F-11.265908009231101
sg2250
F-12.265908009231101
sg2227
F-12.265908009231101
sg2252
F-12.265908009231101
sg1941
F-11.265908009231101
sg2039
F-10.680945508509945
sg2255
F-12.265908009231101
sg2256
F-11.265908009231101
sg1990
F-12.265908009231101
sg2258
F-12.265908009231101
sg2259
F-12.265908009231101
sg2260
F-12.265908009231101
sg2261
F-12.265908009231101
sg2262
F-11.265908009231101
sg2263
F-11.265908009231101
sg2264
F-12.265908009231101
sg2265
F-8.6809455085099447
sg2266
F-12.265908009231101
sg2267
F-10.680945508509945
sg2268
F-11.265908009231101
sg2269
F-11.265908009231101
sg901
F-12.265908009231101
sg2271
F-12.265908009231101
sg2272
F-10.265908009231101
sg2047
F-12.265908009231101
sg2274
F-12.265908009231101
sg2275
F-10.680945508509945
sg2276
F-11.265908009231101
sg2277
F-11.265908009231101
sg2278
F-12.265908009231101
sg2279
F-11.265908009231101
sg2280
F-11.265908009231101
sg2281
F-12.265908009231101
sg2282
F-11.265908009231101
sg2283
F-12.265908009231101
sg2284
F-12.265908009231101
sg2285
F-12.265908009231101
sg2286
F-11.265908009231101
sg817
F-12.265908009231101
sg2288
F-12.265908009231101
sg2289
F-11.265908009231101
sg2290
F-11.265908009231101
sg2291
F-12.265908009231101
sg2292
F-12.265908009231101
sg2186
F-10.265908009231101
sg2294
F-11.265908009231101
sg2295
F-12.265908009231101
sg2296
F-11.265908009231101
sg2297
F-11.265908009231101
sg2298
F-12.265908009231101
sg2299
F-11.265908009231101
sg2300
F-11.265908009231101
sg2301
F-11.265908009231101
sg1747
F-12.265908009231101
sg2236
F-12.265908009231101
sS'U'
F-12.265908009231101
sg705
F-12.265908009231101
sg2248
F-12.265908009231101
sg2306
F-12.265908009231101
sg2307
F-11.265908009231101
sg2308
F-12.265908009231101
sg2309
F-11.265908009231101
sg1372
F-11.265908009231101
sg482
F-12.265908009231101
sg2311
F-11.265908009231101
sg2312
F-10.680945508509945
sg2313
F-11.265908009231101
ssg2321
I217
sg2322
(dp2687
S''
I1
sg5
I1
sg1230
I14
sg6
I1
sg1231
I2
sg1232
I2
sg1233
I1
sg9
I1
sg1234
I1
sg1236
I1
sg1237
I1
sg14
I9
sg15
I1
sg16
I1
sg1242
I1
sg18
I1
sg1951
I1
sg20
I2
sg1245
I58
sg1246
I1
sg21
I1
sg2121
I4
sg1250
I1
sg1252
I1
sg1028
I1
sg631
I17
sg1257
I2
sg24
I2
sg1259
I2
sg1713
I1
sg27
I2
sg1261
I16
sg1262
I1
sg32
I2
sg1264
I1
sg1265
I1
sg1266
I1
sg1267
I1
sg1268
I1
sg38
I1
sg39
I1
sg40
I1
sg41
I1
sg44
I1
sg46
I1
sg47
I1
sg48
I2
sg1273
I1
sg1275
I1
sg53
I1
sg1277
I1
sg55
I1
sg57
I1
sg1278
I1
sg59
I4
sg1280
I12
sg1281
I1
sg60
I1
sg61
I1
sg62
I1
sg1283
I1
sg1284
I1
sg66
I1
sg67
I2
sg1285
I1
sg69
I3
sg70
I2
sg73
I6
sg74
I2
sg1289
I1
sg1291
I1
sg1293
I1
sg76
I1
sg78
I1
sg1296
I1
sg1297
I1
sg1298
I1
sg1300
I2
sg1301
I1
sg86
I2
sg87
I1
sg1303
I1
sg1305
I1
sg88
I1
sg89
I1
sg1306
I3
sg1307
I1
sg627
I1
sg91
I1
sg1311
I1
sg93
I8
sg1520
I2
sg1314
I1
sg1315
I1
sg97
I1
sg98
I1
sg837
I3
sg100
I1
sg101
I2
sg1317
I1
sg1319
I1
sg1320
I1
sg1322
I1
sg105
I2
sg106
I2
sg1323
I1
sg1449
I1
sg1324
I3
sg1325
I1
sg1328
I1
sg107
I1
sg108
I2
sg1330
I1
sg1333
I1
sg1334
I1
sg112
I1
sg113
I4
sg1336
I1
sg116
I1
sg2136
I1
sg1339
I1
sg1340
I1
sg1341
I1
sg1342
I2
sg1344
I1
sg1347
I1
sg122
I4
sg124
I1
sg126
I1
sg127
I4
sg128
I1
sg129
I1
sg1353
I1
sS'!'
I5
sg131
I2
sg1358
I1
sg1965
I1
sg1359
I1
sg1360
I1
sg135
I7
sg1361
I1
sg136
I1
sg138
I1
sg142
I1
sg1365
I2
sg1366
I1
sg1367
I1
sg143
I1
sg146
I2
sg1368
I1
sS'a'
I42
sg1370
I1
sg150
I1
sg1371
I1
sg1372
I1
sg152
I1
sg153
I1
sg1374
I1
sg156
I1
sg1376
I1
sg1377
I1
sg1378
I3
sg1380
I1
sg1383
I13
sg164
I6
sg166
I1
sg1386
I1
sg1387
I2
sg1388
I5
sg1389
I1
sg174
I2
sg1392
I1
sg175
I1
sg1393
I1
sg1394
I1
sg1463
I2
sg1396
I1
sg180
I1
sg1397
I2
sg181
I1
sg1398
I1
sg182
I7
sg183
I2
sg1401
I4
sg1402
I1
sg185
I1
sg1406
I2
sg188
I16
sg190
I1
sg1409
I1
sg1410
I1
sg1412
I1
sg1413
I1
sg1414
I1
sg1415
I1
sg1416
I1
sg1465
I1
sg200
I1
sg203
I1
sg1419
I1
sg1420
I1
sg1421
I4
sg1422
I1
sg1423
I1
sg206
I1
sg1424
I1
sg1062
I3
sg1426
I1
sg1427
I1
sg1428
I6
sg209
I5
sg1432
I1
sg211
I1
sg213
I1
sg1433
I1
sg214
I1
sS'7'
I1
sg216
I4
sg1436
I1
sg1437
I3
sg1973
I4
sg1439
I1
sg223
I1
sg1441
I1
sg1442
I2
sg1445
I1
sg1446
I1
sg225
I1
sg1448
I1
sg227
I1
sg1450
I2
sg1451
I1
sg228
I1
sg1453
I1
sg230
I3
sg1561
I1
sg1459
I1
sg1461
I1
sg234
I3
sg235
I1
sg1462
I4
sg237
I1
sg238
I1
sg1464
I1
sg240
I1
sg1466
I1
sg1467
I1
sg1468
I1
sg244
I1
sg245
I2
sg1470
I2
sg246
I1
sg249
I1
sg250
I1
sg1473
I4
sg2091
I1
sg253
I2
sg1479
I2
sg1480
I1
sg10
I1
sg1482
I1
sg1483
I1
sg258
I1
sg1485
I1
sg261
I2
sg1486
I1
sg264
I1
sg1489
I1
sg269
I2
sg1491
I3
sg271
I1
sg272
I1
sg1494
I1
sg274
I1
sg1497
I1
sg1498
I1
sg1499
I2
sg280
I1
sg1501
I1
sS'-'
I1
sg281
I1
sg282
I1
sg283
I1
sg284
I5
sg285
I1
sg1506
I1
sg286
I1
sg1507
I2
sg287
I1
sg419
I20
sg1472
I1
sg1512
I2
sg1514
I10
sg295
I1
sg296
I1
sg1515
I1
sg297
I2
sg1516
I2
sg1517
I1
sg1518
I1
sg303
I1
sg304
I1
sg305
I1
sg306
I1
sg1521
I1
sg308
I1
sg1527
I1
sg313
I1
sg314
I1
sg473
I1
sg315
I1
sg316
I1
sg1531
I1
sg317
I1
sg319
I1
sg320
I10
sg1534
I1
sg1535
I1
sg325
I2
sg326
I1
sg328
I1
sg1538
I3
sg1541
I1
sg1543
I1
sg332
I2
sg334
I3
sg1546
I1
sg1548
I1
sg336
I1
sg1549
I1
sg337
I1
sg338
I1
sg339
I1
sg1551
I2
sg1552
I1
sg1553
I12
sg1088
I1
sg341
I1
sg342
I2
sg1092
I1
sg343
I2
sg1559
I1
sg1560
I2
sg347
I1
sg1562
I1
sg1563
I2
sg350
I9
sg351
I1
sg353
I1
sg354
I1
sg1567
I1
sg355
I1
sg358
I1
sg360
I1
sg361
I1
sg362
I1
sg1568
I1
sg1570
I1
sg1571
I6
sg366
I1
sg367
I1
sg1572
I1
sg369
I1
sg370
I1
sg1573
I1
sg1575
I2
sg372
I1
sg948
I1
sg1579
I1
sg824
I1
sg1580
I1
sg378
I1
sg1583
I1
sg1584
I1
sg381
I1
sg383
I1
sg384
I2
sS'.'
I8
sg385
I1
sg1589
I1
sg386
I1
sg19
I1
sg1592
I1
sg1593
I1
sg390
I3
sg391
I1
sg1597
I1
sg2187
I1
sg394
I2
sg1599
I1
sg1600
I2
sg1602
I1
sg1603
I1
sg395
I1
sg396
I1
sg399
I1
sg401
I1
sg1610
I1
sg1611
I2
sg1612
I1
sg409
I1
sg411
I1
sg1615
I2
sg414
I1
sg1618
I1
sg417
I26
sg418
I1
sg1620
I1
sg421
I1
sg424
I21
sg1623
I1
sg425
I1
sg426
I1
sg427
I1
sg428
I3
sg429
I1
sg1625
I1
sg1626
I3
sg432
I1
sg433
I2
sg434
I1
sg437
I1
sg438
I1
sg1627
I4
sg1628
I1
sg1666
I2
sg548
I1
sg1631
I2
sg83
I1
sg448
I1
sg1634
I1
sg1636
I2
sg1637
I1
sg689
I1
sg1640
I1
sg1641
I1
sg454
I1
sg1642
I2
sg1645
I1
sg1646
I1
sg457
I1
sg1647
I2
sg1835
I2
sg459
I92
sg461
I1
sg464
I14
sg465
I1
sg1652
I1
sg1653
I1
sg1654
I1
sg469
I1
sg1658
I1
sg471
I2
sg472
I1
sg694
I4
sg474
I1
sg475
I1
sg1660
I1
sg476
I1
sg416
I1
sg1664
I1
sg479
I1
sg480
I1
sg481
I1
sg1669
I3
sg1670
I1
sg1673
I1
sg486
I2
sg487
I1
sg1109
I1
sg489
I3
sg492
I1
sg493
I1
sg1677
I1
sg494
I1
sg496
I3
sg500
I4
sg502
I2
sg503
I14
sg1679
I1
sg1681
I4
sg1682
I1
sg505
I1
sg1684
I1
sg911
I1
sg1685
I2
sg1687
I1
sg510
I1
sg511
I14
sg1692
I1
sg1693
I1
sg512
I1
sg513
I1
sg515
I1
sg516
I1
sg517
I1
sg1695
I1
sg520
I1
sS't'
I1
sg2243
I1
sg1698
I17
sg1700
I1
sg523
I1
sg1703
I1
sg1704
I1
sg526
I2
sg1709
I1
sg527
I1
sg1711
I1
sg1116
I1
sS'o'
I1
sg532
I1
sg534
I1
sg1719
I8
sg1720
I1
sg535
I1
sg1721
I1
sg1722
I3
sg1723
I1
sg536
I1
sg537
I1
sg1725
I1
sg539
I1
sg1726
I2
sg198
I3
sg543
I1
sg544
I1
sg1730
I3
sg1731
I1
sg545
I1
sg1871
I2
sg1733
I1
sg1734
I1
sg1735
I5
sg546
I1
sg1738
I2
sg1739
I1
sg1740
I1
sg363
I1
sg549
I4
sg550
I1
sg552
I2
sg1745
I1
sg2185
I1
sg524
I1
sg555
I2
sg277
I1
sg1749
I1
sg562
I1
sg1750
I3
sg1752
I2
sg1761
I1
sg1754
I20
sg1755
I1
sg1122
I1
sg1756
I1
sg569
I1
sg1757
I1
sg1758
I1
sg1759
I1
sg1760
I1
sg300
I1
sg1762
I1
sg1765
I1
sg572
I1
sg573
I1
sg574
I5
sg575
I1
sg576
I1
sg578
I1
sg579
I1
sg580
I9
sg393
I1
sg581
I2
sg582
I1
sg583
I1
sg584
I1
sg1769
I4
sg1770
I2
sg1774
I1
sg588
I1
sg1775
I1
sg1776
I1
sg590
I1
sg592
I1
sg1779
I2
sg1240
I1
sg594
I1
sg597
I1
sg599
I1
sg2217
I1
sg600
I1
sg601
I1
sg602
I1
sg1785
I1
sg1786
I1
sg713
I1
sg607
I1
sg1789
I1
sg609
I4
sg611
I1
sg1793
I1
sg614
I2
sg615
I2
sg1794
I1
sg616
I1
sg617
I1
sg1798
I1
sg620
I1
sg1659
I1
sg622
I1
sg2035
I11
sg1799
I2
sg1801
I1
sg628
I1
sS'0'
I1
sg629
I1
sg1803
I1
sg1804
I1
sg1805
I3
sg109
I1
sg120
I2
sg518
I1
sg637
I1
sg640
I1
sg641
I1
sg643
I1
sg644
I4
sg647
I1
sg648
I1
sg1810
I1
sg1811
I1
sg650
I1
sg1814
I1
sg657
I1
sg658
I1
sg659
I1
sg1819
I5
sg1820
I1
sg1821
I1
sg1823
I1
sg1824
I1
sg1337
I1
sg660
I1
sg661
I1
sg1846
I1
sg1829
I2
sg1831
I1
sg1834
I1
sg669
I2
sg671
I1
sg1838
I1
sg1839
I1
sg1840
I1
sg1844
I1
sg677
I2
sg678
I2
sg679
I1
sg680
I2
sg682
I1
sg1847
I1
sg1850
I1
sg119
I26
sg1852
I1
sg1854
I1
sg687
I1
sg688
I1
sg1857
I1
sg1859
I3
sg692
I2
sg1860
I1
sg696
I5
sg698
I1
sg1865
I1
sg699
I1
sg1866
I1
sg1867
I3
sg1868
I2
sg700
I1
sg702
I1
sg944
I3
sg1870
I1
sg703
I1
sg1872
I1
sg2028
I1
sg711
I1
sg1875
I1
sg712
I1
sg1880
I1
sg714
I1
sg1883
I12
sg1886
I12
sg717
I1
sg1533
I1
sg718
I1
sg719
I3
sg720
I1
sg1890
I1
sg722
I2
sg723
I1
sg724
I1
sg1352
I1
sg726
I7
sg728
I2
sg1897
I1
sg729
I1
sg2275
I2
sg733
I1
sg949
I16
sS'1'
I2
sg739
I1
sg740
I1
sg1900
I1
sg1901
I1
sg741
I4
sg742
I1
sg745
I1
sg1904
I4
sg1905
I1
sg747
I1
sg749
I1
sg751
I2
sg752
I1
sg757
I1
sg758
I1
sg1909
I1
sg763
I12
sg765
I2
sg766
I1
sg768
I1
sg769
I1
sg770
I1
sg1913
I1
sg772
I1
sg773
I1
sg775
I1
sg776
I1
sg777
I1
sg778
I2
sg1919
I1
sg779
I6
sg783
I1
sg538
I1
sg786
I1
sg787
I1
sg789
I1
sg792
I1
sg793
I1
sg1928
I1
sg799
I5
sg1932
I1
sg801
I21
sg802
I9
sg1933
I9
sg804
I1
sg1934
I1
sg805
I1
sg1936
I1
sg1937
I1
sg1938
I1
sg809
I1
sg811
I1
sg1941
I1
sg1943
I1
sg816
I1
sg1944
I3
sg819
I1
sg1945
I1
sg1946
I11
sg822
I2
sg1948
I1
sg823
I1
sg1949
I1
sg825
I1
sg826
I1
sg827
I2
sg1952
I1
sg828
I1
sg1953
I1
sg1954
I2
sg831
I1
sg1956
I1
sg1957
I1
sg1958
I4
sg1959
I1
sg836
I1
sg1961
I1
sg838
I2
sg1962
I1
sg1963
I1
sg840
I1
sg1964
I1
sg841
I3
sg842
I1
sg845
I1
sg848
I1
sg850
I1
sg1970
I1
sg851
I1
sg1971
I2
sg855
I1
sg1972
I1
sg856
I1
sg860
I1
sg862
I1
sg1978
I1
sg863
I1
sg1979
I2
sg1980
I1
sS'2'
I1
sg567
I2
sg256
I1
sg869
I29
sg870
I2
sg1983
I1
sg872
I1
sg1985
I1
sg873
I1
sg875
I1
sg876
I1
sg877
I1
sg878
I4
sg879
I1
sg1989
I1
sg881
I1
sg882
I1
sg553
I14
sg884
I1
sg1991
I1
sS'r'
I1
sg886
I3
sg1993
I1
sg887
I1
sg888
I39
sg889
I1
sg890
I2
sg891
I1
sg892
I1
sg1997
I3
sg894
I7
sg1999
I1
sg895
I1
sg2000
I13
sg2001
I8
sg897
I3
sg2002
I1
sg900
I1
sg2003
I1
sg902
I1
sg903
I2
sg904
I1
sg906
I1
sg907
I1
sg908
I1
sg2005
I1
sg910
I1
sg2263
I1
sg912
I3
sg914
I1
sg916
I1
sg2011
I5
sg919
I1
sg2265
I11
sg920
I1
sg2014
I3
sg921
I1
sg111
I1
sg925
I1
sg926
I2
sg2018
I1
sg927
I3
sg2019
I1
sg2020
I1
sg2021
I1
sg2023
I1
sg2027
I1
sg931
I1
sg2170
I1
sg933
I2
sg934
I1
sg2030
I1
sg2031
I1
sg935
I1
sg936
I1
sg585
I1
sg938
I3
sg2036
I1
sg1179
I1
sg2038
I1
sg2039
I2
sg942
I1
sg2040
I3
sg630
I3
sg945
I2
sg946
I2
sg2048
I1
sg2286
I1
sg950
I1
sg951
I1
sg952
I2
sg795
I1
sg1385
I1
sg957
I1
sg958
I1
sg959
I1
sg2063
I5
sg962
I1
sg566
I1
sg964
I2
sg965
I1
sg967
I1
sg968
I1
sg2066
I1
sg2067
I1
sg970
I1
sg971
I1
sg973
I1
sg2069
I1
sg974
I2
sg613
I1
sg977
I3
sg170
I1
sS'3'
I1
sg979
I1
sg2072
I1
sg980
I1
sg2074
I1
sg2077
I1
sg2078
I1
sg985
I2
sg986
I1
sg2082
I1
sg989
I1
sg990
I3
sg2083
I1
sg992
I1
sg1023
I1
sg2086
I1
sg2080
I2
sg2087
I1
sg997
I1
sg999
I1
sg2090
I1
sg1001
I1
sg2310
I1
sg2096
I4
sg2097
I1
sg988
I1
sg1008
I1
sg2104
I1
sg1010
I1
sg1012
I2
sg2105
I4
sg1013
I1
sg1014
I1
sg2107
I1
sg991
I1
sg2110
I1
sg1017
I1
sg1020
I1
sg1022
I1
sg2116
I1
sg2118
I1
sg1025
I1
sg1026
I1
sg2120
I2
sg1027
I1
sg2122
I1
sg1030
I6
sg2126
I2
sg1034
I1
sg1035
I1
sg2129
I1
sg2130
I1
sg1198
I13
sg1037
I1
sg2133
I1
sg1039
I1
sg1040
I1
sg1400
I1
sg1041
I1
sg1042
I1
sg1044
I1
sg1046
I1
sg2137
I7
sg2138
I2
sg1050
I1
sg2140
I1
sg1891
I1
sg1055
I1
sg2142
I1
sg2143
I1
sg2146
I1
sg2147
I1
sg2148
I3
sg2149
I1
sg1060
I3
sg1061
I1
sg2150
I2
sg2152
I1
sS'I'
I67
sg2154
I1
sg2156
I3
sg2157
I1
sg1067
I1
sg1787
I1
sg2158
I2
sg1766
I1
sS'i'
I13
sg1068
I2
sg2160
I1
sg187
I1
sg2161
I1
sg2162
I1
sg1071
I1
sg1072
I7
sg2164
I2
sg1073
I1
sg1076
I3
sg1077
I1
sg1078
I3
sg1080
I1
sg1082
I1
sg1083
I1
sg800
I1
sg1084
I1
sg1085
I1
sg2172
I1
sg1087
I1
sg2174
I1
sg2175
I1
sg2176
I1
sg2177
I1
sg1089
I1
sg1090
I1
sg2181
I1
sg2182
I2
sg2184
I1
sg803
I1
sg1093
I2
sg2186
I3
sS'4'
I1
sg1095
I1
sg2190
I1
sg1097
I1
sg1099
I1
sg1100
I1
sg1101
I1
sg1103
I1
sg2195
I7
sg1106
I1
sg1107
I1
sg2197
I1
sg939
I1
sg2198
I12
sg2199
I3
sg1005
I1
sg1111
I1
sg1113
I1
sg2203
I1
sg2204
I1
sg1115
I1
sg2205
I1
sg2207
I1
sg2208
I1
sg1118
I1
sg2210
I1
sg2211
I1
sg2213
I1
sg2215
I4
sg1120
I1
sg2218
I7
sg1121
I1
sg2219
I1
sg1124
I1
sg1125
I1
sg1127
I1
sg2103
I1
sg2225
I1
sg2226
I2
sg1134
I1
sg1135
I1
sg1136
I1
sg1137
I1
sg1138
I1
sg1139
I1
sg1140
I1
sg1141
I1
sg1142
I1
sg2233
I1
sg1143
I22
sg2234
I13
sg407
I1
sg1146
I38
sg1147
I1
sg2237
I1
sg2238
I1
sg1148
I1
sg204
I2
sg1149
I6
sg1150
I2
sg2240
I1
sg1151
I3
sg1152
I1
sg1588
I1
sg2244
I1
sg1157
I1
sg1158
I1
sg1159
I5
sg854
I1
sg2249
I1
sg1160
I7
sg1220
I1
sg1161
I2
sg1162
I2
sg1164
I3
sg2254
I1
sg1166
I2
sg2256
I1
sg1169
I1
sg2257
I1
sg1171
I3
sg1173
I1
sg1174
I1
sg2262
I1
sg1176
I1
sg1177
I1
sg2267
I2
sg1178
I1
sg2268
I1
sg2269
I1
sg2270
I1
sg1180
I14
sg2272
I3
sg1182
I1
sg1183
I1
sg1184
I2
sg2276
I1
sg1185
I1
sg2277
I1
sg2279
I1
sg2280
I1
sg2282
I1
sg815
I1
sg1187
I1
sg1188
I2
sg1189
I1
sg1190
I1
sg1192
I1
sg1193
I1
sg1194
I3
sg1195
I1
sg1196
I5
sg604
I1
sg608
I1
sg1200
I1
sg1201
I1
sg2287
I1
sg1202
I1
sg1203
I2
sg1204
I1
sg1205
I1
sg2289
I1
sg2290
I1
sg1207
I1
sg2293
I2
sS'5'
I1
sg2294
I1
sg1209
I1
sg1210
I28
sg1211
I1
sg2296
I1
sg1788
I1
sg2297
I1
sg1216
I1
sg1217
I1
sg2299
I1
sg2300
I1
sg2301
I1
sg2302
I2
sg2304
I1
sg2307
I1
sg2309
I1
sg1224
I2
sg1225
I1
sg2311
I1
sS'u'
I1
sg2312
I2
sg2313
I1
sg1227
I2
sg1228
I1
ssg2681
g2684
sg2682
F-1.2042330522176079
sg2683
I2584
sss.