(lp1
(dp2
S'text'
p3
S'#BMets now lead 4-2 in 2nd. But Reese Havens has just been ejected for arguing balls and strikes with home plate umpire. #Mets'
p4
sS'name'
p5
S'Lynn Worthy'
p6
sa(dp7
g3
S'That shit scarred me'
p8
sg5
S'Roger That !'
p9
sa(dp10
g3
S'Loosin focus on what really matters'
p11
sg5
S'SPEECHless'
p12
sa(dp13
g3
S'#oomf trying to cook'
p14
sg5
S'Mella World'
p15
sa(dp16
g3
S"Michael was usually off with his friends  and had no interest in going into the woods even if he was at home  and it wasn't uncommon for..."
p17
sg5
S'dibernardo'
p18
sa(dp19
g3
S'Some things really get on your nerves like running out of gas in te middle of nowhere and walking 4 miles home'
p20
sg5
S'Daniel Griffith'
p21
sa(dp22
g3
S'new twitcon ;D'
p23
sg5
S'Lyssa Marie (:'
p24
sa(dp25
g3
S'So fucking tired of you. Stop trying to be me.'
p26
sg5
S'Alliey'
p27
sa(dp28
g3
S'Is it a law that whenever a musician dies you call Paul Gambaccini?'
p29
sg5
S"Will O'Connor"
p30
sa(dp31
g3
S'dinner with the brothaa and mo'
p32
sg5
S'Sophia Cuzzupe'
p33
sa(dp34
g3
S'The score is what?'
p35
sg5
S'Villain'
p36
sa(dp37
g3
S"I either want Chinese Food tonight  or seafood! It's gotta be one or the other"
p38
sg5
S'ENiGMiC SOUL'
p39
sa(dp40
g3
S'when a women feed up its nothin yu can do abou it'
p41
sg5
S'Angie Kates'
p42
sa(dp43
g3
S'this shit is what you make of it'
p44
sg5
S'#chillcharlie'
p45
sa(dp46
g3
S'Tonight we are young! So lets set the world on Fire! We can burn brighter than te sun (:'
p47
sg5
S'Vane Bp'
p48
sa(dp49
g3
S'Thank you @265lisa for a great day that included the Avengers + pickled onion Monster Munch - and despite the incessant nagging xxxx'
p50
sg5
S'Ellie Thomas'
p51
sa(dp52
g3
S'After this week only 8 days left of school. Looking forward to the BEST EVER lay in!'
p53
sg5
S'miidGe'
p54
sa(dp55
g3
S'Khloe &amp; Kourtney have the best personality'
p56
sg5
S'solekah'
p57
sa(dp58
g3
S"One day i'll pee in a mf's mouth !"
p59
sg5
S'Hillary Lanoah .'
p60
sa(dp61
g3
S'1974 edition of King John  nice cover by David Gentleman  from Act 4 Sc 1 #g2g http://t.co/9B4YV9aJ'
p62
sg5
S'a j d e h a n y'
p63
sa(dp64
g3
S"You know what's almost not-as-fun as pouring boiling water on your hand? Fishing bowling pins out of the ball return with a burnt hand."
p65
sg5
S'Katherine Beaman'
p66
sa(dp67
g3
S"I'm always waking up needing the toilet. :( If only it could wait 'til the morning."
p68
sg5
S'Roko Mono'
p69
sa(dp70
g3
S"So I'm wearing this shirt......."
p71
sg5
S'Erik Anthony'
p72
sa(dp73
g3
S'I was addicted to buying them things at one point'
p74
sg5
S'Ashley F'
p75
sa(dp76
g3
S"Whatevr u got that's financially winning...cut me n with it"
p77
sg5
S'Gregory Hart'
p78
sa(dp79
g3
S'did i say that right?'
p80
sg5
S'Major Queen Fan'
p81
sa(dp82
g3
S'Ay. Say no to the YA #writeurpassage'
p83
sg5
S'Sydney Leung'
p84
sa(dp85
g3
S'And I am changed by you  The more I get to know you.'
p86
sg5
S'Scott Rennie'
p87
sa(dp88
g3
S'Mwah to all uu bitches !!!'
p89
sg5
S'Takoria Williams'
p90
sa(dp91
g3
S'If I Die Tomorrow   I\'ll go to London and see the boys of "One Direction" taking a shower and everything that I can do!'
p92
sg5
S'property of Niall'
p93
sa(dp94
g3
S'Had just heard that Richard Bruton is launching another leadership challenge  then on advice from Coveney  retracted the thought..'
p95
sg5
S'#kevq'
p96
sa(dp97
g3
S'If I Die Tomorrow  someone needs to bring Zayn Malik to my house PRONTO so we can get the love session over with'
p98
sg5
S'Noelle'
p99
sa(dp100
g3
S'Wondering...even though I have bought an incense holder.The incense still manages to land on the counter...  #DidYouReallyJust'
p101
sg5
S'Niki Cureton'
p102
sa(dp103
g3
S'related?"@Mzz_Akua: loosing a mum is one of the worst things to happen to anyone....what did this 3 months old baby do to deserve that?"'
p104
sg5
S'Its_luekid'
p105
sa(dp106
g3
S'in a very weird mood'
p107
sg5
S'Michael Audette'
p108
sa(dp109
g3
S"This email-intensive job takes the personality out of me. All of my tweets and emails tend to be functional and short. I'm losing me!"
p110
sg5
S'Trista Kempa'
p111
sa(dp112
g3
S"I'm looking for Bron &amp; Wade to go off"
p113
sg5
S'Shemaiah Price'
p114
sa(dp115
g3
S'in such a great mood'
p116
sg5
S'Andrew Gonzalez'
p117
sa(dp118
g3
S"Watch the heat fans storm my timeline now that they're back in the game"
p119
sg5
S'Kourt'
p120
sa(dp121
g3
S'It takes hard work and dedication..no half stepping either'
p122
sg5
S"Sher'e D"
p123
sa(dp124
g3
S'Where the real niggas at  ? Where the real niggas at ? I guess no where around here . *shrugs*'
p125
sg5
S'.. Asianna Monroe'
p126
sa(dp127
g3
S'Swea everytime that song comes on and im driving i blast it #judgeme'
p128
sg5
S'Brandon Anderson'
p129
sa(dp130
g3
S'When people start fights to get attention &lt;&lt;&lt; all attention is not good attention'
p131
sg5
S'Breanna White'
p132
sa(dp133
g3
S"Now that Wayne has brainwashed me into believing BMW's suck  it won't be a BMW."
p134
sg5
S'Krysten'
p135
sa(dp136
g3
S"It's not about being who everyone else wants you to be. It's about being yourself and finding someone who loves every bit of it."
p137
sg5
S'SuxkOnMyDopeSwag(;'
p138
sa(dp139
g3
S'A good agave pia ( hearth of agave plant after leaves are cut) is selected by its #Jimador ( he who harvest the plant) after 7-10 years'
p140
sg5
S'Andres'
p141
sa(dp142
g3
S'we threw a party  yeah  we threw a party.'
p143
sg5
S'King Rohn'
p144
sa(dp145
g3
S'Debating whether to leave the comfort of my bed to get something to eat? #lifechangingdecisions'
p146
sg5
S'Josh Owens'
p147
sa(dp148
g3
S'...I was not just singing at the top of my lungs when my neighbor is mowing his lawn outside.'
p149
sg5
S'Rachel Cohen'
p150
sa(dp151
g3
S"No one touch me or talk to me  worst mood I've been in for awhile"
p152
sg5
S'Laura Honsberger'
p153
sa(dp154
g3
S'Exams; bad for your health and may lead to your death .. Be aware'
p155
sg5
S'Ahmed zakaria'
p156
sa(dp157
g3
S"and that's how its done #proudofyeah"
p158
sg5
S'regan tracey'
p159
sa(dp160
g3
S'Then and now #wow http://t.co/J4WpekUV'
p161
sg5
S'Just Adam'
p162
sa(dp163
g3
S'I refuse for my summer to be anything less than EXCITING so from tomorrow plans with start being put in place #operationspiceupsummer2012'
p164
sg5
S'chloe richardson'
p165
sa(dp166
g3
S'Coming up to my last 12 hours of dance... Guys this is so weird.'
p167
sg5
S'Chloe'
p168
sa(dp169
g3
S'View from the office http://t.co/PJgL2sDY'
p170
sg5
S'True Breeze'
p171
sa(dp172
g3
S'#Cancers are care-givers but that doesnt mean they dont expect to be taken care of in return.'
p173
sg5
S'# THE FEMALE BOSS .'
p174
sa(dp175
g3
S'Flustered as could be  running all ways at once  and falling over.'
p176
sg5
S'goldthwaite'
p177
sa(dp178
g3
S"I used to be one of the rotten ones and you liked me for that. Now I'm all gone  got my makeup on  and I'm not coming back. #DreamAboutMe"
p179
sg5
S'M'
sa(dp180
g3
S"I'm forever wearing a cap or beanie and if I don't  I leave my hair crazy huge and curly."
p181
sg5
S'Deneshia Saylor'
p182
sa(dp183
g3
S'Ate too much food!!!! But Qdoba is the shit'
p184
sg5
S'Morgan Raynor'
p185
sa(dp186
g3
S'i love the ones who are in my life and make it amazing. i also love the ones who left my life and made it fantastic.'
p187
sg5
S'Cori Lynn Echols'
p188
sa(dp189
g3
S'Decided to catch the 804 cos I cbb walking or paying for a ticket LOL'
p190
sg5
S'Genevieve'
p191
sa(dp192
g3
S'I swear sometimes they piss me off but I love em'
p193
sg5
S'Caressa'
p194
sa(dp195
g3
S"me &amp; @CatherineYS could not stop creasing on the way home  what we were laughing at? I don't even know :L"
p196
sg5
S'Charlotte Morrice'
p197
sa(dp198
g3
S'ugh gotta do some wit dis head'
p199
sg5
S'Girl Wit Da Tattoos'
p200
sa(dp201
g3
S'this fone tweakin out'
p202
sg5
S'Raven Nevar'
p203
sa(dp204
g3
S'Bill  breathing hard  squeezed in and pushed the door shut with his back.'
p205
sg5
S'obradovich'
p206
sa(dp207
g3
S'You can cut with a razor the silence in here...'
p208
sg5
S'alexsimball'
p209
sa(dp210
g3
S'my little sister hit her head while opening the fridge  !'
p211
sg5
S'J  N E 5TH .'
p212
sa(dp213
g3
S'needs to be finished'
p214
sg5
S'Dominique'
p215
sa(dp216
g3
S"If I die tomorrow I couldn't wait to see JoJo and my nanny &lt;3"
p217
sg5
S'Shyann Harris'
p218
sa(dp219
g3
S"Tengo un ridiculous amount of homework to do  but I'm going to the 36 instead #lickmybuttholeb #andcallmemaybe"
p220
sg5
S'Colin Furr'
p221
sa(dp222
g3
S'OMC! What if they played one direction at the dance. I would not be able to breath. Oh my gosh. I will go crazy.'
p223
sg5
S'Mayra.'
p224
sa(dp225
g3
S'Go to a place with an elevator and pretend you live there.'
p226
sg5
S'Rasha Alaa Mohamed'
p227
sa(dp228
g3
S'Phone ringing  gotta be the Mexicans!!!'
p229
sg5
S'Avery Oliver'
p230
sa(dp231
g3
S'I would like to see what members of the Bar Council would do if people kick them  smash their cars windscreen and overturn them.'
p232
sg5
S'sofia rashid'
p233
sa(dp234
g3
S'She jus care of ha self ..'
p235
sg5
S"J   Z (forever'his)"
p236
sa(dp237
g3
S'RT @_Brickks: I hate when i give my all and get nothing in return.'
p238
sg5
S'Ciara Murtey'
p239
sa(dp240
g3
S'Uhhhh that was just dumb to say.'
p241
sg5
S'Breasia Sams'
p242
sa(dp243
g3
S'Its to bad i dont speak the language -.-'
p244
sg5
S'tj murphy'
p245
sa(dp246
g3
S'about to put some throwbacks on here  lol'
p247
sg5
S'Messican Model : )'
p248
sa(dp249
g3
S'dance central with the team;p #lmfao!'
p250
sg5
S'Haley Tolitsky'
p251
sa(dp252
g3
S'Wen strangers try to hit yo blunt &lt;&lt;  Hell no wtf u come from pass that shit right on to me.'
p253
sg5
S"doni'June8th!"
p254
sa(dp255
g3
S'Aint nothin to it gangster rap made me do it'
p256
sg5
S'austin johnson'
p257
sa(dp258
g3
S'Sometimes you have to be your own hero'
p259
sg5
S'Run Into The Light'
p260
sa(dp261
g3
S'Chilli with corn on the cob'
p262
sg5
S'Jika'
p263
sa(dp264
g3
S'Holy wind.'
p265
sg5
S'Danielle Wagner'
p266
sa(dp267
g3
S'no Paris'
p268
sg5
S'Loreal'
p269
sa(dp270
g3
S'Basketball season need to hurry up and get here !'
p271
sg5
S'Slick_Pulla'
p272
sa(dp273
g3
S'How many licks do it take to the center of your ()'
p274
sg5
S'Pink_Cash'
p275
sa(dp276
g3
S'hate whens there nothing to watch on t.v'
p277
sg5
S'Jocelyn Marie'
p278
sa(dp279
g3
S"SO much drama lately  y'all need to hit that IDGAF button and actually MEAN IT."
p280
sg5
S'Barbara Martins'
p281
sa(dp282
g3
S'Time to play some Call of Duty :)'
p283
sg5
S'Cheryl Pohlert'
p284
sa(dp285
g3
S"Can't live with Em and u can't live without Em #women"
p286
sg5
S'Dom B'
p287
sa(dp288
g3
S'How to Drop 20 lbs. of Fat in 30 Days http://t.co/C7viT5OX'
p289
sg5
S'Maci  McDaniel'
p290
sa(dp291
g3
S'When does the new season of the boondocks start ?'
p292
sg5
S'Mani .'
p293
sa(dp294
g3
S'As fancy as this place was  it felt cold to her.'
p295
sg5
S'heuring'
p296
sa(dp297
g3
S'now the word follow sounds fuuuuuuunnnnnyyy'
p298
sg5
S'Laura Cameron'
p299
sa(dp300
g3
S'NIggas being thirsty for RTs &lt;&lt;&lt;&lt;&lt;&lt;&lt;&lt;&lt;'
p301
sg5
S'Dee Jay'
p302
sa(dp303
g3
S'I have to do something tonight whats up somebody tell me something'
p304
sg5
S'Mikey $mith'
p305
sa(dp306
g3
S"Emoji's are so fun to play with!"
p307
sg5
S'Sara Stevens'
p308
sa(dp309
g3
S'all of the jaquan`s swear they got hoes ..'
p310
sg5
S'A$AP Trinity .'
p311
sa(dp312
g3
S'Welp bout to finish chilling until my black ass babyfather show up'
p313
sg5
S'Da Envied Bitch'
p314
sa(dp315
g3
S'The things people say and do&lt;&lt;&lt;&lt;'
p316
sg5
S'Antonio Gooden'
p317
sa(dp318
g3
S"just promise me you won't fall in love with me ."
p319
sg5
S'Breanna Buck'
p320
sa(dp321
g3
S'requested Moments by One Direction on Default Name'
p322
sg5
S'Taylor Roberts'
p323
sa(dp324
g3
S'Ray Charles to the bullshit.'
p325
sg5
S'BriCrowe'
p326
sa(dp327
g3
S'When you really care about someone  their mistakes never change our feelings because the mind gets angry but the heart that still cares'
p328
sg5
S'Norris scott'
p329
sa(dp330
g3
S'How do you start the game so well and then go completely cold!? Wahhhh.'
p331
sg5
S'Courtney Girt'
p332
sa(dp333
g3
S'I must have been less that nothing to you'
p334
sg5
S'Harriet Montague'
p335
sa(dp336
g3
S'I be doing the same thing!! haha'
p337
sg5
S'Candace D. Ellis'
p338
sa(dp339
g3
S'Is there anything better than observing the play and laughter of children?'
p340
sg5
S"Kat's Meoww"
p341
sa(dp342
g3
S"I don't understand people who just plain don't want to be happy"
p343
sg5
S'Chelsea Bailey'
p344
sa(dp345
g3
S'Do you know what "nemesis" means? A righteous infliction of retribution manifested by an appropriate agent. Personified in this case by ME!'
p346
sg5
S'Faiz Ilyas'
p347
sa(dp348
g3
S"I walked by the Alamo today. They get mad if you ask to rent a car. Other than that it wasn't that memorable."
p349
sg5
S'Leif Cedar'
p350
sa(dp351
g3
S'Just went for a much needed run. #ClearedMyMind'
p352
sg5
S'KylieJo Kleinendorst'
p353
sa(dp354
g3
S'1 pitch was the difference between a win and a loss if we got that strike out we would have won'
p355
sg5
S'Jordan Montalvan'
p356
sa(dp357
g3
S"One day I'm gonna yell too much about a coupon and the item and get the cops called #crazy"
p358
sg5
S'Julia Moretz'
p359
sa(dp360
g3
S'I hate Tyler hansbrough'
p361
sg5
S'Nicklaus Smith'
p362
sa(dp363
g3
S'these grapes though'
p364
sg5
S'Gee Grant'
p365
sa(dp366
g3
S'Follow me on instagram  I dont have no type of followers lol @imjustessence'
p367
sg5
S'Essence'
p368
sa(dp369
g3
S"I'm in a funk. Not the good kind either."
p370
sg5
S'Sarah'
p371
sa(dp372
g3
S'In which Ronald Reagan tells a seventh grader to clean his room: http://t.co/FV88kOH7'
p373
sg5
S'Joseph Mosby'
p374
sa(dp375
g3
S'Keep my long hair or change into a bob?'
p376
sg5
S'Sophia Salim'
p377
sa(dp378
g3
S"I don't need your money  I have mine. But share some of that ambition I love a man with some of that"
p379
sg5
S'Karen Gonzalez'
p380
sa(dp381
g3
S'Is this heaven? No  its Iowa'
p382
sg5
S'Steven Spears'
p383
sa(dp384
g3
S'#IfIonlyCould go to Munich and watch the Champions League final at the Allianz Arena!'
p385
sg5
S'Anglica Daz Basabe'
p386
sa(dp387
g3
S'So ready for this Chinese food.'
p388
sg5
S'Shay Horne'
p389
sa(dp390
g3
S'woww!! the big surprise   just 1 days your followers can reach 3000 up  visit here http://t.co/z9enUkA5 and discover the secret.'
p391
sg5
S'Paulo Vitor Alves'
p392
sa(dp393
g3
S'You not about that life ..'
p394
sg5
S'May 14th'
p395
sa(dp396
g3
S'Im ME no matter what. And I thank God for giving me the courage to do so.'
p397
sg5
S'Alakea Kiani'
p398
sa(dp399
g3
S"That was about the tweet I rt'd lmao @Razinbran_"
p400
sg5
S'Tits Hemingway-Janay'
p401
sa(dp402
g3
S'people got this "swagg" stuff confused'
p403
sg5
S"Promise A'sure"
p404
sa(dp405
g3
S"I'm too excited! I received the IB chords!"
p406
sg5
S'Hugh Ngo'
p407
sa(dp408
g3
S"We keep running after the people who least care about us. Why don't we just stop  and see who's running behind us."
p409
sg5
S'Carlos Gambino'
p410
sa(dp411
g3
S'Can I wear yoga pants to DC tmrw??'
p412
sg5
S'Lola Loveman'
p413
sa(dp414
g3
S'I wish my b-day was on the last day of skool........'
p415
sg5
S'aLL SmileS =D'
p416
sa(dp417
g3
S"I'm so happy that I still had a little bit of money to buy If I Die Tomorrow"
p418
sg5
S'Morena Mares Altorf'
p419
sa(dp420
g3
S"I can't focus at all for some reason"
p421
sg5
S'Brock Etters'
p422
sa(dp423
g3
S'I hate when people tell me to either chill or calm down'
p424
sg5
S'Taylor Stroble#19'
p425
sa(dp426
g3
S"For the first time  Kahlan wasn't afraid of the witch woman."
p427
sg5
S'cornforth'
p428
sa(dp429
g3
S'everybody has that 1 ex they regret &lt;&lt;&lt;'
p430
sg5
S'indiaa*'
p431
sa(dp432
g3
S'Y must I be the first'
p433
sg5
S'_CELESTEMACAELA_'
p434
sa(dp435
g3
S'"A man can\'t be too careful in the choice of his enemies'
p436
sg5
S'Harper Johnson'
p437
sa(dp438
g3
S"That's real dumb smh"
p439
sg5
S'Huey'
p440
sa(dp441
g3
S'#oomf is mean to me'
p442
sg5
S'Khayla Leabough'
p443
sa(dp444
g3
S'There are some guys that will tell me they are different and I will believe them 100%'
p445
sg5
S'Koro Montana'
p446
sa(dp447
g3
S"X's take on Sioux Falls to open up their 20th season of baseball at the top of the hour. Listen live 1360 KSCJ and http://t.co/4ISUk3rR"
p448
sg5
S'1360 KSCJ'
p449
sa.