(lp1
(dp2
S'text'
p3
S'#BMets now lead 4-2 in 2nd. But Reese Havens has just been ejected for arguing balls and strikes with home plate umpire. #Mets'
p4
sS'name'
p5
S'Lynn Worthy'
p6
sa(dp7
g3
S'That shit scarred me'
p8
sg5
S'Roger That !'
p9
sa(dp10
g3
S'Loosin focus on what really matters'
p11
sg5
S'SPEECHless'
p12
sa(dp13
g3
S'#oomf trying to cook'
p14
sg5
S'Mella World'
p15
sa(dp16
g3
S"Michael was usually off with his friends  and had no interest in going into the woods even if he was at home  and it wasn't uncommon for..."
p17
sg5
S'dibernardo'
p18
sa(dp19
g3
S'Some things really get on your nerves like running out of gas in te middle of nowhere and walking 4 miles home'
p20
sg5
S'Daniel Griffith'
p21
sa(dp22
g3
S'new twitcon ;D'
p23
sg5
S'Lyssa Marie (:'
p24
sa(dp25
g3
S'So fucking tired of you. Stop trying to be me.'
p26
sg5
S'Alliey'
p27
sa(dp28
g3
S'Is it a law that whenever a musician dies you call Paul Gambaccini?'
p29
sg5
S"Will O'Connor"
p30
sa(dp31
g3
S'dinner with the brothaa and mo'
p32
sg5
S'Sophia Cuzzupe'
p33
sa(dp34
g3
S'The score is what?'
p35
sg5
S'Villain'
p36
sa(dp37
g3
S"I either want Chinese Food tonight  or seafood! It's gotta be one or the other"
p38
sg5
S'ENiGMiC SOUL'
p39
sa(dp40
g3
S'So fucking tired of you. Stop trying to be me.'
p41
sg5
S'Alliey'
p42
sa(dp43
g3
S'when a women feed up its nothin yu can do abou it'
p44
sg5
S'Angie Kates'
p45
sa(dp46
g3
S'this shit is what you make of it'
p47
sg5
S'#chillcharlie'
p48
sa(dp49
g3
S'Tonight we are young! So lets set the world on Fire! We can burn brighter than te sun (:'
p50
sg5
S'Vane Bp'
p51
sa(dp52
g3
S'Thank you @265lisa for a great day that included the Avengers + pickled onion Monster Munch - and despite the incessant nagging xxxx'
p53
sg5
S'Ellie Thomas'
p54
sa(dp55
g3
S'After this week only 8 days left of school. Looking forward to the BEST EVER lay in!'
p56
sg5
S'miidGe'
p57
sa(dp58
g3
S'Khloe &amp; Kourtney have the best personality'
p59
sg5
S'solekah'
p60
sa(dp61
g3
S"One day i'll pee in a mf's mouth !"
p62
sg5
S'Hillary Lanoah .'
p63
sa(dp64
g3
S'1974 edition of King John  nice cover by David Gentleman  from Act 4 Sc 1 #g2g http://t.co/9B4YV9aJ'
p65
sg5
S'a j d e h a n y'
p66
sa(dp67
g3
S"You know what's almost not-as-fun as pouring boiling water on your hand? Fishing bowling pins out of the ball return with a burnt hand."
p68
sg5
S'Katherine Beaman'
p69
sa(dp70
g3
S"I'm always waking up needing the toilet. :( If only it could wait 'til the morning."
p71
sg5
S'Roko Mono'
p72
sa(dp73
g3
S"So I'm wearing this shirt......."
p74
sg5
S'Erik Anthony'
p75
sa(dp76
g3
S'I was addicted to buying them things at one point'
p77
sg5
S'Ashley F'
p78
sa(dp79
g3
S"Whatevr u got that's financially winning...cut me n with it"
p80
sg5
S'Gregory Hart'
p81
sa(dp82
g3
S'did i say that right?'
p83
sg5
S'Major Queen Fan'
p84
sa(dp85
g3
S'Ay. Say no to the YA #writeurpassage'
p86
sg5
S'Sydney Leung'
p87
sa(dp88
g3
S'And I am changed by you  The more I get to know you.'
p89
sg5
S'Scott Rennie'
p90
sa(dp91
g3
S'Mwah to all uu bitches !!!'
p92
sg5
S'Takoria Williams'
p93
sa(dp94
g3
S'If I Die Tomorrow   I\'ll go to London and see the boys of "One Direction" taking a shower and everything that I can do!'
p95
sg5
S'property of Niall'
p96
sa(dp97
g3
S'Had just heard that Richard Bruton is launching another leadership challenge  then on advice from Coveney  retracted the thought..'
p98
sg5
S'#kevq'
p99
sa(dp100
g3
S'If I Die Tomorrow  someone needs to bring Zayn Malik to my house PRONTO so we can get the love session over with'
p101
sg5
S'Noelle'
p102
sa(dp103
g3
S'Wondering...even though I have bought an incense holder.The incense still manages to land on the counter...  #DidYouReallyJust'
p104
sg5
S'Niki Cureton'
p105
sa(dp106
g3
S'Mwah to all uu bitches !!!'
p107
sg5
S'Takoria Williams'
p108
sa(dp109
g3
S'related?"@Mzz_Akua: loosing a mum is one of the worst things to happen to anyone....what did this 3 months old baby do to deserve that?"'
p110
sg5
S'Its_luekid'
p111
sa(dp112
g3
S'in a very weird mood'
p113
sg5
S'Michael Audette'
p114
sa(dp115
g3
S"This email-intensive job takes the personality out of me. All of my tweets and emails tend to be functional and short. I'm losing me!"
p116
sg5
S'Trista Kempa'
p117
sa(dp118
g3
S"I'm looking for Bron &amp; Wade to go off"
p119
sg5
S'Shemaiah Price'
p120
sa(dp121
g3
S'in such a great mood'
p122
sg5
S'Andrew Gonzalez'
p123
sa(dp124
g3
S"Watch the heat fans storm my timeline now that they're back in the game"
p125
sg5
S'Kourt'
p126
sa(dp127
g3
S'It takes hard work and dedication..no half stepping either'
p128
sg5
S"Sher'e D"
p129
sa(dp130
g3
S'Where the real niggas at  ? Where the real niggas at ? I guess no where around here . *shrugs*'
p131
sg5
S'.. Asianna Monroe'
p132
sa(dp133
g3
S'Swea everytime that song comes on and im driving i blast it #judgeme'
p134
sg5
S'Brandon Anderson'
p135
sa(dp136
g3
S'When people start fights to get attention &lt;&lt;&lt; all attention is not good attention'
p137
sg5
S'Breanna White'
p138
sa(dp139
g3
S"Now that Wayne has brainwashed me into believing BMW's suck  it won't be a BMW."
p140
sg5
S'Krysten'
p141
sa(dp142
g3
S"It's not about being who everyone else wants you to be. It's about being yourself and finding someone who loves every bit of it."
p143
sg5
S'SuxkOnMyDopeSwag(;'
p144
sa(dp145
g3
S'A good agave pia ( hearth of agave plant after leaves are cut) is selected by its #Jimador ( he who harvest the plant) after 7-10 years'
p146
sg5
S'Andres'
p147
sa(dp148
g3
S'we threw a party  yeah  we threw a party.'
p149
sg5
S'King Rohn'
p150
sa(dp151
g3
S'Debating whether to leave the comfort of my bed to get something to eat? #lifechangingdecisions'
p152
sg5
S'Josh Owens'
p153
sa(dp154
g3
S'...I was not just singing at the top of my lungs when my neighbor is mowing his lawn outside.'
p155
sg5
S'Rachel Cohen'
p156
sa(dp157
g3
S"No one touch me or talk to me  worst mood I've been in for awhile"
p158
sg5
S'Laura Honsberger'
p159
sa(dp160
g3
S'Exams; bad for your health and may lead to your death .. Be aware'
p161
sg5
S'Ahmed zakaria'
p162
sa(dp163
g3
S"and that's how its done #proudofyeah"
p164
sg5
S'regan tracey'
p165
sa(dp166
g3
S'Then and now #wow http://t.co/J4WpekUV'
p167
sg5
S'Just Adam'
p168
sa(dp169
g3
S'I refuse for my summer to be anything less than EXCITING so from tomorrow plans with start being put in place #operationspiceupsummer2012'
p170
sg5
S'chloe richardson'
p171
sa(dp172
g3
S'Coming up to my last 12 hours of dance... Guys this is so weird.'
p173
sg5
S'Chloe'
p174
sa(dp175
g3
S'View from the office http://t.co/PJgL2sDY'
p176
sg5
S'True Breeze'
p177
sa(dp178
g3
S'#Cancers are care-givers but that doesnt mean they dont expect to be taken care of in return.'
p179
sg5
S'# THE FEMALE BOSS .'
p180
sa(dp181
g3
S'Flustered as could be  running all ways at once  and falling over.'
p182
sg5
S'goldthwaite'
p183
sa(dp184
g3
S"I used to be one of the rotten ones and you liked me for that. Now I'm all gone  got my makeup on  and I'm not coming back. #DreamAboutMe"
p185
sg5
S'M'
sa(dp186
g3
S"I'm forever wearing a cap or beanie and if I don't  I leave my hair crazy huge and curly."
p187
sg5
S'Deneshia Saylor'
p188
sa(dp189
g3
S'Ate too much food!!!! But Qdoba is the shit'
p190
sg5
S'Morgan Raynor'
p191
sa(dp192
g3
S"I used to be one of the rotten ones and you liked me for that. Now I'm all gone  got my makeup on  and I'm not coming back. #DreamAboutMe"
p193
sg5
S'M'
sa(dp194
g3
S"I'm forever wearing a cap or beanie and if I don't  I leave my hair crazy huge and curly."
p195
sg5
S'Deneshia Saylor'
p196
sa(dp197
g3
S'Ate too much food!!!! But Qdoba is the shit'
p198
sg5
S'Morgan Raynor'
p199
sa(dp200
g3
S'i love the ones who are in my life and make it amazing. i also love the ones who left my life and made it fantastic.'
p201
sg5
S'Cori Lynn Echols'
p202
sa(dp203
g3
S'Decided to catch the 804 cos I cbb walking or paying for a ticket LOL'
p204
sg5
S'Genevieve'
p205
sa(dp206
g3
S'I swear sometimes they piss me off but I love em'
p207
sg5
S'Caressa'
p208
sa(dp209
g3
S'Decided to catch the 804 cos I cbb walking or paying for a ticket LOL'
p210
sg5
S'Genevieve'
p211
sa(dp212
g3
S"me &amp; @CatherineYS could not stop creasing on the way home  what we were laughing at? I don't even know :L"
p213
sg5
S'Charlotte Morrice'
p214
sa(dp215
g3
S'ugh gotta do some wit dis head'
p216
sg5
S'Girl Wit Da Tattoos'
p217
sa(dp218
g3
S'this fone tweakin out'
p219
sg5
S'Raven Nevar'
p220
sa(dp221
g3
S'Bill  breathing hard  squeezed in and pushed the door shut with his back.'
p222
sg5
S'obradovich'
p223
sa(dp224
g3
S'You can cut with a razor the silence in here...'
p225
sg5
S'alexsimball'
p226
sa(dp227
g3
S'my little sister hit her head while opening the fridge  !'
p228
sg5
S'J  N E 5TH .'
p229
sa(dp230
g3
S'needs to be finished'
p231
sg5
S'Dominique'
p232
sa(dp233
g3
S"If I die tomorrow I couldn't wait to see JoJo and my nanny &lt;3"
p234
sg5
S'Shyann Harris'
p235
sa(dp236
g3
S"Tengo un ridiculous amount of homework to do  but I'm going to the 36 instead #lickmybuttholeb #andcallmemaybe"
p237
sg5
S'Colin Furr'
p238
sa(dp239
g3
S'OMC! What if they played one direction at the dance. I would not be able to breath. Oh my gosh. I will go crazy.'
p240
sg5
S'Mayra.'
p241
sa(dp242
g3
S'i love the ones who are in my life and make it amazing. i also love the ones who left my life and made it fantastic.'
p243
sg5
S'Cori Lynn Echols'
p244
sa(dp245
g3
S'Go to a place with an elevator and pretend you live there.'
p246
sg5
S'Rasha Alaa Mohamed'
p247
sa(dp248
g3
S'Phone ringing  gotta be the Mexicans!!!'
p249
sg5
S'Avery Oliver'
p250
sa(dp251
g3
S'i love the ones who are in my life and make it amazing. i also love the ones who left my life and made it fantastic.'
p252
sg5
S'Cori Lynn Echols'
p253
sa(dp254
g3
S'I would like to see what members of the Bar Council would do if people kick them  smash their cars windscreen and overturn them.'
p255
sg5
S'sofia rashid'
p256
sa(dp257
g3
S'She jus care of ha self ..'
p258
sg5
S"J   Z (forever'his)"
p259
sa(dp260
g3
S'RT @_Brickks: I hate when i give my all and get nothing in return.'
p261
sg5
S'Ciara Murtey'
p262
sa(dp263
g3
S'Uhhhh that was just dumb to say.'
p264
sg5
S'Breasia Sams'
p265
sa(dp266
g3
S'Its to bad i dont speak the language -.-'
p267
sg5
S'tj murphy'
p268
sa(dp269
g3
S'about to put some throwbacks on here  lol'
p270
sg5
S'Messican Model : )'
p271
sa(dp272
g3
S'dance central with the team;p #lmfao!'
p273
sg5
S'Haley Tolitsky'
p274
sa(dp275
g3
S'Wen strangers try to hit yo blunt &lt;&lt;  Hell no wtf u come from pass that shit right on to me.'
p276
sg5
S"doni'June8th!"
p277
sa(dp278
g3
S'Aint nothin to it gangster rap made me do it'
p279
sg5
S'austin johnson'
p280
sa(dp281
g3
S'Sometimes you have to be your own hero'
p282
sg5
S'Run Into The Light'
p283
sa(dp284
g3
S'Chilli with corn on the cob'
p285
sg5
S'Jika'
p286
sa(dp287
g3
S'Holy wind.'
p288
sg5
S'Danielle Wagner'
p289
sa(dp290
g3
S'Aint nothin to it gangster rap made me do it'
p291
sg5
S'austin johnson'
p292
sa(dp293
g3
S'no Paris'
p294
sg5
S'Loreal'
p295
sa(dp296
g3
S'Basketball season need to hurry up and get here !'
p297
sg5
S'Slick_Pulla'
p298
sa(dp299
g3
S'How many licks do it take to the center of your ()'
p300
sg5
S'Pink_Cash'
p301
sa(dp302
g3
S'hate whens there nothing to watch on t.v'
p303
sg5
S'Jocelyn Marie'
p304
sa(dp305
g3
S"SO much drama lately  y'all need to hit that IDGAF button and actually MEAN IT."
p306
sg5
S'Barbara Martins'
p307
sa(dp308
g3
S'Time to play some Call of Duty :)'
p309
sg5
S'Cheryl Pohlert'
p310
sa(dp311
g3
S"Can't live with Em and u can't live without Em #women"
p312
sg5
S'Dom B'
p313
sa(dp314
g3
S'How to Drop 20 lbs. of Fat in 30 Days http://t.co/C7viT5OX'
p315
sg5
S'Maci  McDaniel'
p316
sa(dp317
g3
S'How many licks do it take to the center of your ()'
p318
sg5
S'Pink_Cash'
p319
sa(dp320
g3
S'hate whens there nothing to watch on t.v'
p321
sg5
S'Jocelyn Marie'
p322
sa(dp323
g3
S'When does the new season of the boondocks start ?'
p324
sg5
S'Mani .'
p325
sa(dp326
g3
S'As fancy as this place was  it felt cold to her.'
p327
sg5
S'heuring'
p328
sa(dp329
g3
S'now the word follow sounds fuuuuuuunnnnnyyy'
p330
sg5
S'Laura Cameron'
p331
sa(dp332
g3
S'When does the new season of the boondocks start ?'
p333
sg5
S'Mani .'
p334
sa(dp335
g3
S'NIggas being thirsty for RTs &lt;&lt;&lt;&lt;&lt;&lt;&lt;&lt;&lt;'
p336
sg5
S'Dee Jay'
p337
sa(dp338
g3
S'I have to do something tonight whats up somebody tell me something'
p339
sg5
S'Mikey $mith'
p340
sa(dp341
g3
S"Emoji's are so fun to play with!"
p342
sg5
S'Sara Stevens'
p343
sa(dp344
g3
S'all of the jaquan`s swear they got hoes ..'
p345
sg5
S'A$AP Trinity .'
p346
sa(dp347
g3
S'How many licks do it take to the center of your ()'
p348
sg5
S'Pink_Cash'
p349
sa(dp350
g3
S'hate whens there nothing to watch on t.v'
p351
sg5
S'Jocelyn Marie'
p352
sa(dp353
g3
S'Welp bout to finish chilling until my black ass babyfather show up'
p354
sg5
S'Da Envied Bitch'
p355
sa(dp356
g3
S'The things people say and do&lt;&lt;&lt;&lt;'
p357
sg5
S'Antonio Gooden'
p358
sa(dp359
g3
S"Emoji's are so fun to play with!"
p360
sg5
S'Sara Stevens'
p361
sa(dp362
g3
S'all of the jaquan`s swear they got hoes ..'
p363
sg5
S'A$AP Trinity .'
p364
sa(dp365
g3
S"just promise me you won't fall in love with me ."
p366
sg5
S'Breanna Buck'
p367
sa(dp368
g3
S'When does the new season of the boondocks start ?'
p369
sg5
S'Mani .'
p370
sa(dp371
g3
S'As fancy as this place was  it felt cold to her.'
p372
sg5
S'heuring'
p373
sa(dp374
g3
S'The things people say and do&lt;&lt;&lt;&lt;'
p375
sg5
S'Antonio Gooden'
p376
sa(dp377
g3
S'I have to do something tonight whats up somebody tell me something'
p378
sg5
S'Mikey $mith'
p379
sa(dp380
g3
S"Emoji's are so fun to play with!"
p381
sg5
S'Sara Stevens'
p382
sa(dp383
g3
S'all of the jaquan`s swear they got hoes ..'
p384
sg5
S'A$AP Trinity .'
p385
sa(dp386
g3
S'How many licks do it take to the center of your ()'
p387
sg5
S'Pink_Cash'
p388
sa(dp389
g3
S'hate whens there nothing to watch on t.v'
p390
sg5
S'Jocelyn Marie'
p391
sa(dp392
g3
S'requested Moments by One Direction on Default Name'
p393
sg5
S'Taylor Roberts'
p394
sa(dp395
g3
S'Ray Charles to the bullshit.'
p396
sg5
S'BriCrowe'
p397
sa(dp398
g3
S'When you really care about someone  their mistakes never change our feelings because the mind gets angry but the heart that still cares'
p399
sg5
S'Norris scott'
p400
sa(dp401
g3
S'How do you start the game so well and then go completely cold!? Wahhhh.'
p402
sg5
S'Courtney Girt'
p403
sa(dp404
g3
S"just promise me you won't fall in love with me ."
p405
sg5
S'Breanna Buck'
p406
sa(dp407
g3
S'When does the new season of the boondocks start ?'
p408
sg5
S'Mani .'
p409
sa(dp410
g3
S'As fancy as this place was  it felt cold to her.'
p411
sg5
S'heuring'
p412
sa(dp413
g3
S'I must have been less that nothing to you'
p414
sg5
S'Harriet Montague'
p415
sa(dp416
g3
S'I be doing the same thing!! haha'
p417
sg5
S'Candace D. Ellis'
p418
sa(dp419
g3
S'Is there anything better than observing the play and laughter of children?'
p420
sg5
S"Kat's Meoww"
p421
sa(dp422
g3
S"I don't understand people who just plain don't want to be happy"
p423
sg5
S'Chelsea Bailey'
p424
sa(dp425
g3
S'Do you know what "nemesis" means? A righteous infliction of retribution manifested by an appropriate agent. Personified in this case by ME!'
p426
sg5
S'Faiz Ilyas'
p427
sa(dp428
g3
S"I walked by the Alamo today. They get mad if you ask to rent a car. Other than that it wasn't that memorable."
p429
sg5
S'Leif Cedar'
p430
sa(dp431
g3
S'Just went for a much needed run. #ClearedMyMind'
p432
sg5
S'KylieJo Kleinendorst'
p433
sa(dp434
g3
S'1 pitch was the difference between a win and a loss if we got that strike out we would have won'
p435
sg5
S'Jordan Montalvan'
p436
sa(dp437
g3
S"One day I'm gonna yell too much about a coupon and the item and get the cops called #crazy"
p438
sg5
S'Julia Moretz'
p439
sa(dp440
g3
S'I hate Tyler hansbrough'
p441
sg5
S'Nicklaus Smith'
p442
sa(dp443
g3
S'these grapes though'
p444
sg5
S'Gee Grant'
p445
sa(dp446
g3
S'Follow me on instagram  I dont have no type of followers lol @imjustessence'
p447
sg5
S'Essence'
p448
sa(dp449
g3
S"I'm in a funk. Not the good kind either."
p450
sg5
S'Sarah'
p451
sa(dp452
g3
S'In which Ronald Reagan tells a seventh grader to clean his room: http://t.co/FV88kOH7'
p453
sg5
S'Joseph Mosby'
p454
sa(dp455
g3
S'Keep my long hair or change into a bob?'
p456
sg5
S'Sophia Salim'
p457
sa(dp458
g3
S"I don't need your money  I have mine. But share some of that ambition I love a man with some of that"
p459
sg5
S'Karen Gonzalez'
p460
sa(dp461
g3
S'Is this heaven? No  its Iowa'
p462
sg5
S'Steven Spears'
p463
sa(dp464
g3
S'#IfIonlyCould go to Munich and watch the Champions League final at the Allianz Arena!'
p465
sg5
S'Anglica Daz Basabe'
p466
sa(dp467
g3
S'So ready for this Chinese food.'
p468
sg5
S'Shay Horne'
p469
sa(dp470
g3
S'woww!! the big surprise   just 1 days your followers can reach 3000 up  visit here http://t.co/z9enUkA5 and discover the secret.'
p471
sg5
S'Paulo Vitor Alves'
p472
sa(dp473
g3
S'You not about that life ..'
p474
sg5
S'May 14th'
p475
sa(dp476
g3
S'#IfIonlyCould go to Munich and watch the Champions League final at the Allianz Arena!'
p477
sg5
S'Anglica Daz Basabe'
p478
sa(dp479
g3
S'So ready for this Chinese food.'
p480
sg5
S'Shay Horne'
p481
sa(dp482
g3
S"One day I'm gonna yell too much about a coupon and the item and get the cops called #crazy"
p483
sg5
S'Julia Moretz'
p484
sa(dp485
g3
S'Im ME no matter what. And I thank God for giving me the courage to do so.'
p486
sg5
S'Alakea Kiani'
p487
sa(dp488
g3
S"That was about the tweet I rt'd lmao @Razinbran_"
p489
sg5
S'Tits Hemingway-Janay'
p490
sa(dp491
g3
S'people got this "swagg" stuff confused'
p492
sg5
S"Promise A'sure"
p493
sa(dp494
g3
S"I'm too excited! I received the IB chords!"
p495
sg5
S'Hugh Ngo'
p496
sa(dp497
g3
S"We keep running after the people who least care about us. Why don't we just stop  and see who's running behind us."
p498
sg5
S'Carlos Gambino'
p499
sa(dp500
g3
S'Can I wear yoga pants to DC tmrw??'
p501
sg5
S'Lola Loveman'
p502
sa(dp503
g3
S'I wish my b-day was on the last day of skool........'
p504
sg5
S'aLL SmileS =D'
p505
sa(dp506
g3
S"I'm so happy that I still had a little bit of money to buy If I Die Tomorrow"
p507
sg5
S'Morena Mares Altorf'
p508
sa(dp509
g3
S"I can't focus at all for some reason"
p510
sg5
S'Brock Etters'
p511
sa(dp512
g3
S'I hate when people tell me to either chill or calm down'
p513
sg5
S'Taylor Stroble#19'
p514
sa(dp515
g3
S"For the first time  Kahlan wasn't afraid of the witch woman."
p516
sg5
S'cornforth'
p517
sa(dp518
g3
S'everybody has that 1 ex they regret &lt;&lt;&lt;'
p519
sg5
S'indiaa*'
p520
sa(dp521
g3
S'Can I wear yoga pants to DC tmrw??'
p522
sg5
S'Lola Loveman'
p523
sa(dp524
g3
S'Y must I be the first'
p525
sg5
S'_CELESTEMACAELA_'
p526
sa(dp527
g3
S'"A man can\'t be too careful in the choice of his enemies'
p528
sg5
S'Harper Johnson'
p529
sa(dp530
g3
S"That's real dumb smh"
p531
sg5
S'Huey'
p532
sa(dp533
g3
S'#oomf is mean to me'
p534
sg5
S'Khayla Leabough'
p535
sa(dp536
g3
S'There are some guys that will tell me they are different and I will believe them 100%'
p537
sg5
S'Koro Montana'
p538
sa(dp539
g3
S'Can I wear yoga pants to DC tmrw??'
p540
sg5
S'Lola Loveman'
p541
sa(dp542
g3
S"X's take on Sioux Falls to open up their 20th season of baseball at the top of the hour. Listen live 1360 KSCJ and http://t.co/4ISUk3rR"
p543
sg5
S'1360 KSCJ'
p544
sa(dp545
g3
S'fuuuh you talk shit about the girls that backed you up. (x'
p546
sg5
S'hyfr.'
p547
sa(dp548
g3
S'Kratch really put me in the penalty box today -___- #GymHockey'
p549
sg5
S'Little Abner'
p550
sa(dp551
g3
S'This shxt is a job in itself.!'
p552
sg5
S'*_LaLa_Licious_*'
p553
sa(dp554
g3
S'They come  They go .'
p555
sg5
S'JAHTrippy'
p556
sa(dp557
g3
S'Without comment he pulled a knife  pried a three-inch yellowish tooth from the mace where it was wedged between two of the blades  and...'
p558
sg5
S'kitanik'
p559
sa(dp560
g3
S'They come  They go .'
p561
sg5
S'JAHTrippy'
p562
sa(dp563
g3
S'Without comment he pulled a knife  pried a three-inch yellowish tooth from the mace where it was wedged between two of the blades  and...'
p564
sg5
S'kitanik'
p565
sa(dp566
g3
S'...shoulder was empty  the short sword missing.'
p567
sg5
S'Mehul Assel'
p568
sa(dp569
g3
S'im bullshiting w. this application though .'
p570
sg5
S'| TAYlOR |'
p571
sa(dp572
g3
S'cause when im angry. I do and say very angry things'
p573
sg5
S'Whooooooooop^___^'
p574
sa(dp575
g3
S'Ugh  Phil almost got out of that inning.'
p576
sg5
S'Harsh V Singh'
p577
sa(dp578
g3
S'Going to CiCis for the first time'
p579
sg5
S'Caitlin Knierim'
p580
sa(dp581
g3
S"I'm always in the grade 9 &amp; 10's business .  Aha oh well"
p582
sg5
S';'
sa(dp583
g3
S"Any obstacle they encountered had to be crossed  they couldn't go around; the boundary walls dictated where they went."
p584
sg5
S'gomzales'
p585
sa(dp586
g3
S'I love trinity for that :)'
p587
sg5
S'Chuck Tarver'
p588
sa(dp589
g3
S'Who dat on the pole ?'
p590
sg5
S'Trap Talk'
p591
sa(dp592
g3
S'390$ aint that bad!!!'
p593
sg5
S'Tevo'
p594
sa(dp595
g3
S'Refreshing little dip in the pool with @pedrovillela19 :)'
p596
sg5
S'Laura Schmitt'
p597
sa(dp598
g3
S'"I don\'t want to brag but ill be the best you ever had."'
p599
sg5
S'Rasha Steward'
p600
sa(dp601
g3
S's quero ver hein @_Ijustwantyou'
p602
sg5
S'dede macedo'
p603
sa(dp604
g3
S'i kind of just wanna punch you in the face'
p605
sg5
S'Claudiakins'
p606
sa(dp607
g3
S'I hope they share with me lol'
p608
sg5
S'S. Nichole'
p609
sa(dp610
g3
S"I'm tired but need to finish hw."
p611
sg5
S'Kristine Arechiga'
p612
sa(dp613
g3
S'#Np Chris Brown ; Wet The Bed'
p614
sg5
S"Timothy's Wife.!"
p615
sa(dp616
g3
S'#NeverShouldYouEver not be open to new experiences. Step out of your comfort zone.'
p617
sg5
S'The Side Chick Life'
p618
sa(dp619
g3
S'power of music tourDVD()Amazon'
p620
sg5
S'Noriko'
p621
sa(dp622
g3
S'We cannot afford some of your.'
p623
sg5
S'wolverton'
p624
sa(dp625
g3
S'I dont wanna pack  I dont wanna leave  and I sure as hell dont wanna clean. #procrastination'
p626
sg5
S'ali kokjohn'
p627
sa(dp628
g3
S'Should I buy Natural or Organic products only.  Deternine the true distinction  if any  between the two before buying'
p629
sg5
S'HoneyFactor'
p630
sa(dp631
g3
S'When the going gets tough  the tough get going.'
p632
sg5
S'Liz Castro'
p633
sa(dp634
g3
S'Birthday tomorrow and no school #18'
p635
sg5
S'Blake Wheeler'
p636
sa(dp637
g3
S'I got 160 220 points while escaping from demon monkeys in Temple Run. Beat that! http://t.co/55Cb9NsU'
p638
sg5
S'wayne'
p639
sa(dp640
g3
S'Frozen food in Italy to 2013: IntroductionThis databook provides key data and information on the frozen food mar... http://t.co/2xGldpdo'
p641
sg5
S'Mary Moore'
p642
sa(dp643
g3
S"I'm late already. But seeing the amt of people at je  gg. Bye attendance."
p644
sg5
S'Calista  YooChun'
p645
sa(dp646
g3
S'If someone walks out of your life  it gives someone you need a chance to walk in.'
p647
sg5
S'Dekkers Minura'
p648
sa(dp649
g3
S'Can I wear yoga pants to DC tmrw??'
p650
sg5
S'Lola Loveman'
p651
sa(dp652
g3
S'When the going gets tough  the tough get going.'
p653
sg5
S'Liz Castro'
p654
sa(dp655
g3
S'Birthday tomorrow and no school #18'
p656
sg5
S'Blake Wheeler'
p657
sa(dp658
g3
S'I got 160 220 points while escaping from demon monkeys in Temple Run. Beat that! http://t.co/55Cb9NsU'
p659
sg5
S'wayne'
p660
sa(dp661
g3
S'Frozen food in Italy to 2013: IntroductionThis databook provides key data and information on the frozen food mar... http://t.co/2xGldpdo'
p662
sg5
S'Mary Moore'
p663
sa(dp664
g3
S"I'm late already. But seeing the amt of people at je  gg. Bye attendance."
p665
sg5
S'Calista  YooChun'
p666
sa(dp667
g3
S'If someone walks out of your life  it gives someone you need a chance to walk in.'
p668
sg5
S'Dekkers Minura'
p669
sa(dp670
g3
S'Can I wear yoga pants to DC tmrw??'
p671
sg5
S'Lola Loveman'
p672
sa(dp673
g3
S'When the going gets tough  the tough get going.'
p674
sg5
S'Liz Castro'
p675
sa(dp676
g3
S'Birthday tomorrow and no school #18'
p677
sg5
S'Blake Wheeler'
p678
sa(dp679
g3
S'I got 160 220 points while escaping from demon monkeys in Temple Run. Beat that! http://t.co/55Cb9NsU'
p680
sg5
S'wayne'
p681
sa(dp682
g3
S'Frozen food in Italy to 2013: IntroductionThis databook provides key data and information on the frozen food mar... http://t.co/2xGldpdo'
p683
sg5
S'Mary Moore'
p684
sa(dp685
g3
S"I'm late already. But seeing the amt of people at je  gg. Bye attendance."
p686
sg5
S'Calista  YooChun'
p687
sa(dp688
g3
S'Should I buy Natural or Organic products only.  Deternine the true distinction  if any  between the two before buying'
p689
sg5
S'HoneyFactor'
p690
sa(dp691
g3
S'thats a double standard ..'
p692
sg5
S'Marissa Nitti'
p693
sa(dp694
g3
S'#Rugby rugby rugby rugby Rugby rugby rugby rugby Rugby rugby rugby rugby  O and rugby!'
p695
sg5
S'Joel Jachimowicz'
p696
sa(dp697
g3
S'Some of my kids have married and moved away. I value whatever face to face time I have with them'
p698
sg5
S'love teaching'
p699
sa(dp700
g3
S'Well  she decided  for today  at least  they would be away from trouble  and just enjoy being together.'
p701
sg5
S'platenburg'
p702
sa(dp703
g3
S'So that is why no one knows what his name is or who he is.'
p704
sg5
S'ginzel'
p705
sa(dp706
g3
S'nobodies opinion is needed.'
p707
sg5
S'Jalene Chanelle'
p708
sa(dp709
g3
S'Some of these kids gne be more focused on they clothes than they work !'
p710
sg5
S'Liyaah(:'
p711
sa(dp712
g3
S'Tess Jus perm my Hair she got them growing hands'
p713
sg5
S'Nichelle'
p714
sa(dp715
g3
S'Cairns Regional Council says it will replace the waterfront precinct project with a performing arts centre. http://t.co/i2AvUP4P'
p716
sg5
S'Samuel Davis'
p717
sa(dp718
g3
S'Dear God  you just love torchering me every time  same week  every year. Thnks for the support God!!!! :@'
p719
sg5
S'alessia canosa'
p720
sa(dp721
g3
S'#InCaseYouDidntKnow its not always about the cover of the book  but more about the content within it'
p722
sg5
S'Its all luv baby'
p723
sa(dp724
g3
S'One question  where these "leaders" be at when they actually needed?'
p725
sg5
S'the LEGEND'
p726
sa(dp727
g3
S'#NeverShouldYouEver not be open to new experiences. Step out of your comfort zone.'
p728
sg5
S'The Side Chick Life'
p729
sa(dp730
g3
S'......'
p731
sg5
S'XoXoXo'
p732
sa(dp733
g3
S'When we can laugh togather &gt;&gt;&gt;&gt;&gt;'
p734
sg5
S'GiGi'
p735
sa(dp736
g3
S'Just saw the cutest Mexican guy!'
p737
sg5
S'Fatima robles'
p738
sa(dp739
g3
S"HONESTLY.. I hateeee the pictures we took that day. All of them. They're ewwwww........ http://t.co/VK0X79pL"
p740
sg5
S'k a s s a n d r a'
p741
sa(dp742
g3
S'Caleb Williams: The reputation of WILLIAM GODWIN as a social philosopher  and the merits of his famous novel  "C... http://t.co/jK3IMBXX'
p743
sg5
S'Lonna Conales'
p744
sa(dp745
g3
S'Looking forward to the weekend!'
p746
sg5
S'sWeeTs!'
p747
sa(dp748
g3
S'......'
p749
sg5
S'XoXoXo'
p750
sa(dp751
g3
S'Test Ubersocial'
p752
sg5
S'Ir. Budi Utomo'
p753
sa(dp754
g3
S'That crap hurt .'
p755
sg5
S"' lola_bby !'"
p756
sa(dp757
g3
S'The best Unit Converter and Currency Converter application for iPhone free: http://t.co/Fay51HXj'
p758
sg5
S'Georgia Stamatop'
p759
sa(dp760
g3
S'Mom just told me about the funeral....... I wish i went..'
p761
sg5
S'PSOE :)'
p762
sa(dp763
g3
S'I Love The Red Head Cat On #Victorious'
p764
sg5
S"'Quita Tenae"
p765
sa(dp766
g3
S"Ooh I'm Tweeting in the church"
p767
sg5
S'Landi Blanco'
p768
sa(dp769
g3
S'I was thinking  when 1D comes to South America  they should bring Ed Sheeran as their opening act! If that happens my life would be complete'
p770
sg5
S'Aniiiiita! :)'
p771
sa(dp772
g3
S"It was rather nice to bump into a very drunk @Naabb21 and @SianSweeneyz. They didn't stop talking."
p773
sg5
S'Lewis Kenting'
p774
sa(dp775
g3
S'I swear   i have no friends'
p776
sg5
S'Kaia .'
p777
sa(dp778
g3
S'......'
p779
sg5
S'XoXoXo'
p780
sa(dp781
g3
S'When we can laugh togather &gt;&gt;&gt;&gt;&gt;'
p782
sg5
S'GiGi'
p783
sa(dp784
g3
S"I'm in love with a stripper."
p785
sg5
S'ThatBadAhScorpio'
p786
sa(dp787
g3
S"You really shouldn't need but so much on the job training at Walmart!"
p788
sg5
S'paigey wagey'
p789
sa(dp790
g3
S"When people say that they r gonna do something and then they don't &lt;&lt;&lt;&lt;&lt;&lt; if ur not gonna do it  tell me so I don't get my hopes up!!!/:&lt;"
p791
sg5
S'Jordan Pike(:'
p792
sa(dp793
g3
S"&amp; basically you all said I don't support @mslayel and I was the first one sticking up when she got hate cause she was cleaning the timeline"
p794
sg5
S'Layla Unlimited'
p795
sa(dp796
g3
S"I be bring up the weridest convo's .. Do not care"
p797
sg5
S'StonyBee ^__^'
p798
sa(dp799
g3
S'Ready to work and make these dollars'
p800
sg5
S'Kristian_Alivia'
p801
sa(dp802
g3
S'Just finished eating'
p803
sg5
S'Andy Locsin'
p804
sa(dp805
g3
S'I had to chug that creative girl!! Lmao RT @AneduKAtor_508: @breezybabez be trying to stall on this workout'
p806
sg5
S'Bree IvyD Hen.'
p807
sa(dp808
g3
S'Snagged that job'
p809
sg5
S'E R R O R ...'
p810
sa(dp811
g3
S"You really shouldn't need but so much on the job training at Walmart!"
p812
sg5
S'paigey wagey'
p813
sa(dp814
g3
S"When people say that they r gonna do something and then they don't &lt;&lt;&lt;&lt;&lt;&lt; if ur not gonna do it  tell me so I don't get my hopes up!!!/:&lt;"
p815
sg5
S'Jordan Pike(:'
p816
sa(dp817
g3
S"HONESTLY.. I hateeee the pictures we took that day. All of them. They're ewwwww........ http://t.co/VK0X79pL"
p818
sg5
S'k a s s a n d r a'
p819
sa(dp820
g3
S'Caleb Williams: The reputation of WILLIAM GODWIN as a social philosopher  and the merits of his famous novel  "C... http://t.co/jK3IMBXX'
p821
sg5
S'Lonna Conales'
p822
sa(dp823
g3
S'nobodies opinion is needed.'
p824
sg5
S'Jalene Chanelle'
p825
sa(dp826
g3
S'Maybe it was just a crush this whole time..'
p827
sg5
S'Micaelaaaa :)'
p828
sa(dp829
g3
S'LMAO @Bleepthat1 and @carlito_1989 just touched down and the random fuckery is well underway'
p830
sg5
S'Vlad'
p831
sa(dp832
g3
S'RT @WilI_Smith: The less you care  the happier you will be.'
p833
sg5
S'Cristal Natasia'
p834
sa(dp835
g3
S"I think it's all made up in their own heads."
p836
sg5
S'babula'
p837
sa(dp838
g3
S'This is what happens when you have a @Subway addiction and photo editing addiction... http://t.co/Nul8oZ8q'
p839
sg5
S'Zach Lonsinger'
p840
sa(dp841
g3
S'I be needing that'
p842
sg5
S'Electric Latimer'
p843
sa(dp844
g3
S'What. Is. This.'
p845
sg5
S'Lanita Rollins'
p846
sa(dp847
g3
S'Anyone wanna go to the movies tonight?'
p848
sg5
S'Michael D. Palumbo'
p849
sa(dp850
g3
S"I be bring up the weridest convo's .. Do not care"
p851
sg5
S'StonyBee ^__^'
p852
sa(dp853
g3
S"Just seen my high school white boy crush.... I'll still hit that! Lol"
p854
sg5
S'LNH'
p855
sa(dp856
g3
S"can't wait for @briheymann to be on that #iphone4 flow do we can FaceTime"
p857
sg5
S'joe cardillo'
p858
sa(dp859
g3
S'There are moments in life that I will always remember  not because they were important but because you were there. @iamtriciasantos'
p860
sg5
S'imPhamela'
p861
sa(dp862
g3
S'Go and dondo won the basketball game'
p863
sg5
S'Wesley Crawford'
p864
sa(dp865
g3
S"Why would anyone do this to me? I don't deserve any of the crap people give me. It gets overwhelming. Smiles are just cover ups for pain --&gt;"
p866
sg5
S'Bailey Gruber'
p867
sa(dp868
g3
S'Can I chisel some of the ice off your heart for my drink?'
p869
sg5
S'Braedon Jackson'
p870
sa(dp871
g3
S'LMAO @Bleepthat1 and @carlito_1989 just touched down and the random fuckery is well underway'
p872
sg5
S'Vlad'
p873
sa(dp874
g3
S'RT @WilI_Smith: The less you care  the happier you will be.'
p875
sg5
S'Cristal Natasia'
p876
sa(dp877
g3
S'Spending class lectures remembering the tips your tumbling instructor gave you #cheerobsessed'
p878
sg5
S'Taegan Bolden-Davis'
p879
sa(dp880
g3
S'I wanna have good dreams tonight  not wierd fucked up tings and not dejavu dreams either.'
p881
sg5
S'OG.'
p882
sa(dp883
g3
S'Ole girl just a second ago though &gt; lol'
p884
sg5
S'Kameron Price'
p885
sa(dp886
g3
S'Just got the response from Alpha/ Independence on earlier mining death. Updating our story now.'
p887
sg5
S'Taylor Kuykendall'
p888
sa(dp889
g3
S'RT @washingtonpost: What that study on the health benefits of coffee actually found: http://t.co/cfeui8Jd // Bummed'
p890
sg5
S'Fred Zumwalt'
p891
sa(dp892
g3
S';;'
p893
sg5
S''
sa(dp894
g3
S'There are moments in life that I will always remember  not because they were important but because you were there. @iamtriciasantos'
p895
sg5
S'imPhamela'
p896
sa(dp897
g3
S'Go and dondo won the basketball game'
p898
sg5
S'Wesley Crawford'
p899
sa(dp900
g3
S'There are moments in life that I will always remember  not because they were important but because you were there. @iamtriciasantos'
p901
sg5
S'imPhamela'
p902
sa(dp903
g3
S'Go and dondo won the basketball game'
p904
sg5
S'Wesley Crawford'
p905
sa(dp906
g3
S'Jack in the Crac do not go nomore that shit taste nasty now too me.'
p907
sg5
S'Iam_Hk MIDGETMACc'
p908
sa(dp909
g3
S'#ifonlyicould have not laughed while i wrote that last tweet.'
p910
sg5
S'Edward Wojciechowski'
p911
sa(dp912
g3
S'He is quoting all kind of things that had nothing to do with a commencement ceremony!!!!! Omg'
p913
sg5
S'Alexandria D.'
p914
sa(dp915
g3
S"Y'all make my lesbian seep thru the inseam of my panties."
p916
sg5
S'Andi'
p917
sa(dp918
g3
S'Gotta reread act three then finish the rest of the book by Monday -___- i hate that book i thought it would be good but it just confuses me'
p919
sg5
S'(Miranda)'
p920
sa(dp921
g3
S"RT @RevRunWisdom: The moment you become fed up.. You'll stop them from feeding it to u! #wordUp"
p922
sg5
S'Nombuso Makhathu'
p923
sa(dp924
g3
S'Shin looked like an interesting person. I wonder how he acts like. c:'
p925
sg5
S'Yuna Kion ()'
p926
sa(dp927
g3
S"Lmao the pacers ain't playin no games!"
p928
sg5
S'Mr.All Dat'
p929
sa(dp930
g3
S"Good morning  friends. Today  let's all count our blessings. Just need to find strength and hope that everyday is gonna be a better day."
p931
sg5
S'Arch'
p932
sa(dp933
g3
S'Getting ready for celebration'
p934
sg5
S'sofia reyes'
p935
sa(dp936
g3
S'I entered to win tix to see One Direction live #1DTourChicago | #UpAllNight The Live DVD is available 5/29! !!!'
p937
sg5
S'Kim London'
p938
sa(dp939
g3
S'Getting ready for celebration'
p940
sg5
S'sofia reyes'
p941
sa(dp942
g3
S'Girl im mad cause the things you cant see. #thatshowthingsaregonnabe'
p943
sg5
S'Oscar Rodriguez'
p944
sa(dp945
g3
S"If I can spend the rest of my life with my people I'd all over and over again"
p946
sg5
S'Infamous'
p947
sa(dp948
g3
S'Need something to get into..'
p949
sg5
S'Candilicious'
p950
sa(dp951
g3
S"U riding with me . Don't Touch The Radio. U listen to what I want to hear."
p952
sg5
S'32Fl@vors_+Sum'
p953
sa(dp954
g3
S'We threw a party  yea we through a party'
p955
sg5
S"'no fly zone'"
p956
sa(dp957
g3
S'Sittin wade on the Bench isnt gona get him Goin on offensive ..wtf is Spo doin?? They need to give me the Coachin job!'
p958
sg5
S'Ant Ortiz'
p959
sa(dp960
g3
S'Keep them squares up out yo circle'
p961
sg5
S''
sa(dp962
g3
S'watching american idol   i want jessica sanchez to win the whole thing'
p963
sg5
S'AndreaSecrets'
p964
sa(dp965
g3
S"When people ask me to do something or for something  I'm going to ask myself  would they do it for me?! That'll determine my answer!!!"
p966
sg5
S'Tiffany Brown'
p967
sa(dp968
g3
S"U riding with me . Don't Touch The Radio. U listen to what I want to hear."
p969
sg5
S'32Fl@vors_+Sum'
p970
sa(dp971
g3
S'Keep them squares up out yo circle'
p972
sg5
S''
sa(dp973
g3
S'watching american idol   i want jessica sanchez to win the whole thing'
p974
sg5
S'AndreaSecrets'
p975
sa(dp976
g3
S"When people ask me to do something or for something  I'm going to ask myself  would they do it for me?! That'll determine my answer!!!"
p977
sg5
S'Tiffany Brown'
p978
sa(dp979
g3
S"U riding with me . Don't Touch The Radio. U listen to what I want to hear."
p980
sg5
S'32Fl@vors_+Sum'
p981
sa(dp982
g3
S'Keep them squares up out yo circle'
p983
sg5
S''
sa(dp984
g3
S'watching american idol   i want jessica sanchez to win the whole thing'
p985
sg5
S'AndreaSecrets'
p986
sa(dp987
g3
S'I just unlocked the "Local" badge on @foursquare for checking in three times at the same place in one week! http://t.co/nHl1A3fJ'
p988
sg5
S'A7x'
p989
sa(dp990
g3
S"To much shit to watch  Missing is on  then Grey's &amp; Awake  the games nd idol..."
p991
sg5
S'Nikki xox'
p992
sa(dp993
g3
S'They tried stoning me my dear. It did not work.'
p994
sg5
S'Muhammed Taha'
p995
sa(dp996
g3
S'The laugh at the beginning of Inside The Fire by Disturbed is so badass.'
p997
sg5
S'Drake Gomez'
p998
sa(dp999
g3
S"Ughhh I don't wanna get up &amp; get the iPod ."
p1000
sg5
S'Selisa Gonzalez'
p1001
sa(dp1002
g3
S"The things that happen to you  shouldn't make or break you. You should learn and move on and push through with your life know what happened."
p1003
sg5
S'Miguel'
p1004
sa(dp1005
g3
S'She is going to regret that choice in a few years  duh.'
p1006
sg5
S'College kid'
p1007
sa(dp1008
g3
S"When people ask me to do something or for something  I'm going to ask myself  would they do it for me?! That'll determine my answer!!!"
p1009
sg5
S'Tiffany Brown'
p1010
sa(dp1011
g3
S"when people lol at themselves for even considering studying for the aphug exam... how are we supposed to know you won't #questionofrackem #."
p1012
sg5
S'Miguel Vasquez'
p1013
sa(dp1014
g3
S"Me before I sleep ;P the sun is rising :'( http://t.co/6uLFlxf9"
p1015
sg5
S'Sophia Boo'
p1016
sa(dp1017
g3
S'All the pieces are falling into place'
p1018
sg5
S'Epod BITCH'
p1019
sa(dp1020
g3
S'usually to ridiculous counter-arguments that have nothing to do with the original point.'
p1021
sg5
S'()'
p1022
sa(dp1023
g3
S'Now she wonder why ion be at home'
p1024
sg5
S'Michaelia Riggins'
p1025
sa(dp1026
g3
S"You are driving a mini van with rims on it  please don't hit on me that's a nono."
p1027
sg5
S'Menissa Blackwell'
p1028
sa(dp1029
g3
S"Since They Wanna Block Of Expressways and Streets.... I'm taking the streets to prom"
p1030
sg5
S'FinallyFamous SMDTMD'
p1031
sa(dp1032
g3
S'Nothing like going the wrong way in #Vegas'
p1033
sg5
S'Lexi Soukhaphaly'
p1034
sa(dp1035
g3
S"Cause you'll say you love me  and I'll end up lying  and say I love you too"
p1036
sg5
S'Khyati Patel'
p1037
sa(dp1038
g3
S'Night Twonkies.The days that i used to stay up nearly the whole night watching bunch of ppl living in a house are starting to catch up w/ me'
p1039
sg5
S'C.S'
p1040
sa(dp1041
g3
S'She is going to regret that choice in a few years  duh.'
p1042
sg5
S'College kid'
p1043
sa(dp1044
g3
S'Them Heat boys good .'
p1045
sg5
S'May 18th'
p1046
sa(dp1047
g3
S'just Trust and Believe'
p1048
sg5
S'ADEL SuJu'
p1049
sa(dp1050
g3
S'just Trust and Believe'
p1051
sg5
S'ADEL SuJu'
p1052
sa(dp1053
g3
S'Love being the youngest  newest  &amp;&amp; second female in the Fire Dept. Good training for my ambulance crew AND fire crew.'
p1054
sg5
S'Daanis Chosa'
p1055
sa(dp1056
g3
S'Gah who cares'
p1057
sg5
S'Syd NayNay'
p1058
sa(dp1059
g3
S"one day I'm gonna forget your name and one sweet day  you're gonna drown in my lost pain"
p1060
sg5
S'ananda'
p1061
sa(dp1062
g3
S'I need you in my life  I guess.'
p1063
sg5
S'Gio Beltran'
p1064
sa(dp1065
g3
S'This must be my Kassi poo with the phone LOL@psid412 Jhbweuyttty9idyYf'
p1066
sg5
S"SJ's Mom"
p1067
sa(dp1068
g3
S'Night Twonkies.The days that i used to stay up nearly the whole night watching bunch of ppl living in a house are starting to catch up w/ me'
p1069
sg5
S'C.S'
p1070
sa(dp1071
g3
S'Nothing like going the wrong way in #Vegas'
p1072
sg5
S'Lexi Soukhaphaly'
p1073
sa(dp1074
g3
S"Cause you'll say you love me  and I'll end up lying  and say I love you too"
p1075
sg5
S'Khyati Patel'
p1076
sa(dp1077
g3
S'Night Twonkies.The days that i used to stay up nearly the whole night watching bunch of ppl living in a house are starting to catch up w/ me'
p1078
sg5
S'C.S'
p1079
sa(dp1080
g3
S'She is going to regret that choice in a few years  duh.'
p1081
sg5
S'College kid'
p1082
sa(dp1083
g3
S'Them Heat boys good .'
p1084
sg5
S'May 18th'
p1085
sa(dp1086
g3
S'just Trust and Believe'
p1087
sg5
S'ADEL SuJu'
p1088
sa(dp1089
g3
S'I need you in my life  I guess.'
p1090
sg5
S'Gio Beltran'
p1091
sa(dp1092
g3
S'This must be my Kassi poo with the phone LOL@psid412 Jhbweuyttty9idyYf'
p1093
sg5
S"SJ's Mom"
p1094
sa(dp1095
g3
S'that LONG conversation me &amp; Vickia had .... &gt;&gt;&gt;&gt;&gt;&gt;&gt;&gt;&gt;&gt;&gt;&gt;&gt;'
p1096
sg5
S'thug life .'
p1097
sa(dp1098
g3
S'I have organic lemonade. Idk wtf that means.'
p1099
sg5
S'mamaaa kris'
p1100
sa(dp1101
g3
S"A cigarette pressed between her lips but I'm staring at her tits  its the wrong way"
p1102
sg5
S'Hunter Stern'
p1103
sa(dp1104
g3
S"She took a beating and all because she did not want other people losing what she'd lost and then the idea of admitting it was lost was too."
p1105
sg5
S'Dominque Crinson'
p1106
sa(dp1107
g3
S"If the heat win I'll my pants #CantBeatTheHeat"
p1108
sg5
S'alex quibano'
p1109
sa(dp1110
g3
S"She took a beating and all because she did not want other people losing what she'd lost and then the idea of admitting it was lost was too."
p1111
sg5
S'Dominque Crinson'
p1112
sa(dp1113
g3
S"If the heat win I'll my pants #CantBeatTheHeat"
p1114
sg5
S'alex quibano'
p1115
sa(dp1116
g3
S'lol i was at the jeopardy that aired tonight and new the kentucky derby answer and none of them did #imageniusiknow'
p1117
sg5
S'Charlie D'
p1118
sa(dp1119
g3
S'Fuck I need money for concerts'
p1120
sg5
S'Ville Valo'
p1121
sa(dp1122
g3
S"Clevvertv  the confusion you gave me is to decide weather to pick Taylor Swift or Vanessa when it comes to fashion. I really can't choose..."
p1123
sg5
S'Fearless4Efron'
p1124
sa(dp1125
g3
S'The b in apt 23 is the funniest show ever'
p1126
sg5
S'Erin Bodyshot'
p1127
sa(dp1128
g3
S'Quality bonding time with my car!'
p1129
sg5
S'Maddy Elking'
p1130
sa(dp1131
g3
S'Watching the game now'
p1132
sg5
S'LaMichael Bonds'
p1133
sa(dp1134
g3
S'I have organic lemonade. Idk wtf that means.'
p1135
sg5
S'mamaaa kris'
p1136
sa(dp1137
g3
S"A cigarette pressed between her lips but I'm staring at her tits  its the wrong way"
p1138
sg5
S'Hunter Stern'
p1139
sa(dp1140
g3
S"Don't forget to count ya blessings!"
p1141
sg5
S'Queen DEE'
p1142
sa(dp1143
g3
S"All y'all. Check out @Civilian_Sounds. Their debut album just released &amp; it's great! Pick it up and it's they who will feast on your ears."
p1144
sg5
S'Brandon Lee Tenney'
p1145
sa(dp1146
g3
S'#IncaseYouDidntKnow the world is suppose to end in 7 months! Best be doin some #PartyRockin'
p1147
sg5
S'T-SouY'
p1148
sa(dp1149
g3
S'I heard on the radio that in some parts of America you are considered poor if you use a washing line. Is this true?'
p1150
sg5
S'Georgia'
p1151
sa(dp1152
g3
S'Chillaxin 4 the night. Might hot tub it out'
p1153
sg5
S'T Murph'
p1154
sa(dp1155
g3
S'And now a piece of me is a piece of the beach  and it falls just where it needs to be  and rests peacefully'
p1156
sg5
S'Ellie'
p1157
sa(dp1158
g3
S'Waiting'
p1159
sg5
S'SupaaMcNastyy : ))'
p1160
sa(dp1161
g3
S"When people say they can't text but their tweet....#annoying"
p1162
sg5
S'Katie Rzepka'
p1163
sa(dp1164
g3
S'bacon is god'
p1165
sg5
S'Jill Lawler'
p1166
sa(dp1167
g3
S'#ifonlyicould slap the stupid out of people.'
p1168
sg5
S'Dossett Marchese'
p1169
sa(dp1170
g3
S'When you lie and I already know the truth&lt;&lt;&lt;&lt;&lt;&lt;'
p1171
sg5
S'~One&Only~'
p1172
sa(dp1173
g3
S'seee it aint even like that .....'
p1174
sg5
S'Chocolate Drop Ni Ni'
p1175
sa(dp1176
g3
S'chat to muh back!'
p1177
sg5
S'Ma-Ma :} !!!!'
p1178
sa(dp1179
g3
S'Good luck to all the girls going to the Nats this June long weekend  I hope that through my coaching camps I can... http://t.co/Ae7ZaWKh'
p1180
sg5
S'Zephyr Kite Tours'
p1181
sa(dp1182
g3
S'resisting the urge to shoot this tv.'
p1183
sg5
S''
sa(dp1184
g3
S'Wassup with the bol Wade tho.... 0 points'
p1185
sg5
S'Gnardeaux'
p1186
sa(dp1187
g3
S'Respect is all I ask for'
p1188
sg5
S'Em'
p1189
sa(dp1190
g3
S'i got niggas in YO hood thats riding with ME!'
p1191
sg5
S'melissa vee []'
p1192
sa(dp1193
g3
S'#ifonlyicould slap the stupid out of people.'
p1194
sg5
S'Dossett Marchese'
p1195
sa(dp1196
S'text'
p1197
S"Twitter get your life together I'm not in the mood"
p1198
sS'name'
p1199
S'Tess Gallagher'
p1200
sa(dp1201
g1197
S'Your fabricating an alternate reality'
p1202
sg1199
S'Alexa Belvedere'
p1203
sa(dp1204
g1197
S"For your information I don't know who you racing. I'm already at the finish-line with the flag waving."
p1205
sg1199
S'William Davis'
p1206
sa(dp1207
g1197
S'No  but seriously. Brock Zanrosso is one of the sexiest men alive  period.'
p1208
sg1199
S'Soraya'
p1209
sa(dp1210
g1197
S'when this comes out  mw3 is going inside the antique cabinet! http://t.co/yWLMGEPR'
p1211
sg1199
S'gunnergirl24'
p1212
sa(dp1213
g1197
S'Lord Please Tell Me That oomf is not lying to me!!'
p1214
sg1199
S'_Jourdashian'
p1215
sa(dp1216
g1197
S'The Celtics Balling Out!!!!!!'
p1217
sg1199
S'Isiah Sky Hadnott'
p1218
sa(dp1219
g1197
S"I can't wait to watch @Jessewelle &amp; @PhillyChic5 on @younow -- http://t.co/qwndbirS I want to win the iPad- Wed May 23rd!!!!!!!!!!!!!!!!!"
p1220
sg1199
S'Brian Esposito'
p1221
sa(dp1222
g1197
S'need somewhere to watch the game'
p1223
sg1199
S'Devon Barlow'
p1224
sa(dp1225
g1197
S'#NotBeingRudeBut this your 5th time saying hey to me im the same person every time you see me'
p1226
sg1199
S'M A R I  :)'
p1227
sa(dp1228
g1197
S"&amp; Passion ain't going to none of them !"
p1229
sg1199
S'Im Trillzill .'
p1230
sa(dp1231
g1197
S'why is my twitter not working'
p1232
sg1199
S'Sarah J.'
p1233
sa(dp1234
g1197
S'Hope your reading this'
p1235
sg1199
S'Ashley Main'
p1236
sa(dp1237
g1197
S'I hate wen ppl comment on mu picks talkin bullshit -_-'
p1238
sg1199
S'SB'
p1239
sa(dp1240
g1197
S'the cops are fuckin eveerryywheerrre!!!'
p1241
sg1199
S'kenzie sibley'
p1242
sa(dp1243
g1197
S'#NotBeingRudeBut this your 5th time saying hey to me im the same person every time you see me'
p1244
sg1199
S'M A R I  :)'
p1245
sa(dp1246
g1197
S"&amp; Passion ain't going to none of them !"
p1247
sg1199
S'Im Trillzill .'
p1248
sa(dp1249
g1197
S'why is my twitter not working'
p1250
sg1199
S'Sarah J.'
p1251
sa(dp1252
g1197
S'Good thing is.. I now have 2 company I.Ds! Ha ha!'
p1253
sg1199
S'NahanDonesBautista'
p1254
sa(dp1255
g1197
S'A perfect relationship to me = Two people never giving up on each other.'
p1256
sg1199
S'ReiiNa De Tu Vida'
p1257
sa(dp1258
g1197
S"Twitter get your life together I'm not in the mood"
p1259
sg1199
S'Tess Gallagher'
p1260
sa(dp1261
g1197
S'Its wild at this graduation doe lol'
p1262
sg1199
S'Moo Moo'
p1263
sa(dp1264
g1197
S"I can't reach you."
p1265
sg1199
S'Josie Kincaid'
p1266
sa(dp1267
g1197
S'I want man that can sing ! Sooo bad !'
p1268
sg1199
S'Ebony Love'
p1269
sa(dp1270
g1197
S'when this comes out  mw3 is going inside the antique cabinet! http://t.co/yWLMGEPR'
p1271
sg1199
S'gunnergirl24'
p1272
sa(dp1273
g1197
S'Lord Please Tell Me That oomf is not lying to me!!'
p1274
sg1199
S'_Jourdashian'
p1275
sa(dp1276
g1197
S'Did my earlier tweets go through? Boston guy doing flips on the concrete earlier was Chris. #NATO #OccupyBoston'
p1277
sg1199
S'JHL'
p1278
sa(dp1279
g1197
S'Shower time'
p1280
sg1199
S'ESpaulding'
p1281
sa(dp1282
g1197
S"Obviously I'm not gonna talk to you for what you did last week ! #thefuck"
p1283
sg1199
S'Clarissa De La Cruz'
p1284
sa(dp1285
g1197
S'Taisha just farted'
p1286
sg1199
S'FreeMyDAD&BRODashawn'
p1287
sa(dp1288
g1197
S'#NotBeingRudeBut this your 5th time saying hey to me im the same person every time you see me'
p1289
sg1199
S'M A R I  :)'
p1290
sa(dp1291
g1197
S"&amp; Passion ain't going to none of them !"
p1292
sg1199
S'Im Trillzill .'
p1293
sa(dp1294
g1197
S'why is my twitter not working'
p1295
sg1199
S'Sarah J.'
p1296
sa(dp1297
g1197
S'Hope your reading this'
p1298
sg1199
S'Ashley Main'
p1299
sa(dp1300
g1197
S'I hate wen ppl comment on mu picks talkin bullshit -_-'
p1301
sg1199
S'SB'
p1302
sa(dp1303
g1197
S'#NotBeingRudeBut one direction is way too over exposed.'
p1304
sg1199
S'Hannah'
p1305
sa(dp1306
g1197
S"No one understands my obsession with #House. And now it's over. These commercials are pissing me off."
p1307
sg1199
S'Madison Evans'
p1308
sa(dp1309
g1197
S'The "lol " moment when someone is lying oh god :D'
p1310
sg1199
S"l'amour est une doul"
p1311
sa(dp1312
g1197
S'Thares alout of pplz tryin to get into bars on a holiday ha$'
p1313
sg1199
S'Karmatic'
p1314
sa(dp1315
g1197
S"So we can't find smithville"
p1316
sg1199
S'Adam Lundberg'
p1317
sa(dp1318
g1197
S"Borrowed a lighter from the clerk to light my blunt... You could hit it I don't care"
p1319
sg1199
S'Corbin Nicholl'
p1320
sa(dp1321
g1197
S'Fuck being above the influence. I want to get high  like now.'
p1322
sg1199
S'Princess Unicorn'
p1323
sa(dp1324
g1197
S'Had she been trying to grab.'
p1325
sg1199
S'Bhagavana Guiso'
p1326
sa(dp1327
g1197
S'How will #house end? Soooo excited!!'
p1328
sg1199
S'Sara Dunegan'
p1329
sa(dp1330
g1197
S'New episode of The Simpsons is So bad! Lady Gaga came in on her whore train and shit all over the place. Watch with morbid curiosity.'
p1331
sg1199
S'Luke Vernon'
p1332
sa(dp1333
g1197
S'it dont matter as long as i get to be 1 of their #1 girl http://t.co/LJCAkOh8'
p1334
sg1199
S'jalyce lewis'
p1335
sa(dp1336
g1197
S'Bed in an hour.... Sigh'
p1337
sg1199
S'Symone A. Davis'
p1338
sa(dp1339
g1197
S'Literally no one wants to be on the phone with you less than the lady who answers the phone at a Chinese restaurant...and I fuckin hate her'
p1340
sg1199
S'Freddy Gad'
p1341
sa(dp1342
g1197
S'I need a vacation'
p1343
sg1199
S''
sa(dp1344
g1197
S'Diamond shirts came in :))'
p1345
sg1199
S'Newo Llod'
p1346
sa(dp1347
g1197
S"It's so annoying that my dog's afraid of fireworks cause on nights like these he's super clingy"
p1348
sg1199
S'Onella Charles'
p1349
sa(dp1350
g1197
S"Fuxx All This I'm  Ready For The Reunion &gt;"
p1351
sg1199
S'Laci Kelly'
p1352
sa(dp1353
g1197
S"Twitter  I think I'll be back for a while"
p1354
sg1199
S'TREY A BOSS'
p1355
sa(dp1356
g1197
S'Hubby is out with the boys and babygirl is in the bed #metime'
p1357
sg1199
S'Ebby'
p1358
sa(dp1359
g1197
S'Bad play Tex  should had the easy out'
p1360
sg1199
S"Dallas O'Meara"
p1361
sa(dp1362
g1197
S'Oh my god are you serious right now!? These guys just put on the Batman song while they are playing COD..gettin all into it and shit bahaha'
p1363
sg1199
S'Carly Waters'
p1364
sa(dp1365
g1197
S'The "lol " moment when someone is lying oh god :D'
p1366
sg1199
S"l'amour est une doul"
p1367
sa(dp1368
g1197
S'Like i want to but then......'
p1369
sg1199
S''
sa(dp1370
g1197
S'This is the best movie George and Mike Kuchar never made.'
p1371
sg1199
S'Pat'
p1372
sa(dp1373
g1197
S'i dont care what your after as long as im the one'
p1374
sg1199
S'karina lozano'
p1375
sa(dp1376
g1197
S"Looking back at me &amp; @0meza 's convo over the past yrs and laughing about how we use to flirt &amp; talk to eachother lol"
p1377
sg1199
S'Alyssa Alva'
p1378
sa(dp1379
g1197
S'we should go see Adreal.'
p1380
sg1199
S'June 8 ( ;'
p1381
sa(dp1382
g1197
S'Life goes on'
p1383
sg1199
S'AO'
p1384
sa(dp1385
g1197
S'Take It To The Head .'
p1386
sg1199
S'CeCeTheRealest'
p1387
sa(dp1388
g1197
S'Jus cut the cake :)'
p1389
sg1199
S'MAY 21ST'
p1390
sa(dp1391
g1197
S"Lmfao   me and this nigga JUST start conversating &amp;' ha already want me to come see him ! #HeThrough"
p1392
sg1199
S'EssTee Jae : )'
p1393
sa(dp1394
g1197
S'Threats and curses.'
p1395
sg1199
S'offley'
p1396
sa(dp1397
g1197
S'About herself  Sonia wrote that she had succeeded in making some.'
p1398
sg1199
S'confrey'
p1399
sa(dp1400
g1197
S'This week gonna be fun !'
p1401
sg1199
S'Hunter Reynolds'
p1402
sa(dp1403
g1197
S'pisseddddddddddd off.'
p1404
sg1199
S'blow'
p1405
sa(dp1406
g1197
S'The "lol " moment when someone is lying oh god :D'
p1407
sg1199
S"l'amour est une doul"
p1408
sa(dp1409
g1197
S"A Bugs Life is only trending because it's on TV and people are freaking out about it. I own the DVD of that movie. #True90sKid"
p1410
sg1199
S'Joey Rondo Wilson'
p1411
sa(dp1412
g1197
S'Seriously?  Fuck you.  Never been so frustrated and pissed off.'
p1413
sg1199
S'Connor Smith'
p1414
sa(dp1415
g1197
S'I had a recurring dream last night about tons of tornados in one place nearly killing me and here it is bad weather.'
p1416
sg1199
S'AmberNeal'
p1417
sa(dp1418
g1197
S'RT @BernieStillFly: That odd moment when u are about to walk by a group of black men and they all of a sudden get quiet... -_-'
p1419
sg1199
S'Priscilla O'
p1420
sa(dp1421
g1197
S"fstw.. I guess I'll just smoke alone and go to bed."
p1422
sg1199
S'laurenelizabeth'
p1423
sa(dp1424
g1197
S'Attributed this sensation to pity--immeasurable pity  and this.'
p1425
sg1199
S'mittendorf'
p1426
sa(dp1427
g1197
S'Drinking with my lovie'
p1428
sg1199
S'Kaitlyn Kramer'
p1429
sa(dp1430
g1197
S'Women who CAN cook more then noodles and hotdogs &gt;&gt;&gt;&gt;'
p1431
sg1199
S'Darrion Tate'
p1432
sa(dp1433
g1197
S'I miss the lips that made me fly'
p1434
sg1199
S'Shannon McCool'
p1435
sa(dp1436
g1197
S'I use to be excited to talk to special people on the phone..'
p1437
sg1199
S"I'm Just B"
p1438
sa(dp1439
g1197
S"The females these days.U shouldn't have to act to please anyone. Be yo own person and stop tryna fit in to be cool. Cuz that'll get u no whr"
p1440
sg1199
S'JASMINE'
p1441
sa(dp1442
g1197
S'wyd hit me up thoe'
p1443
sg1199
S'KIRBY+3'
p1444
sa(dp1445
g1197
S"I'm so hungry and I really just want school to be over. Only good thing is #OneTreeHill is on tonight!!!"
p1446
sg1199
S'Emily Bark'
p1447
sa(dp1448
g1197
S'i really want #oomf to be minessssssss !'
p1449
sg1199
S'Yonn'
p1450
sa(dp1451
g1197
S"I'd like to nap but then that's just wasting my day"
p1452
sg1199
S'shannon raess'
p1453
sa(dp1454
g1197
S'pisseddddddddddd off.'
p1455
sg1199
S'blow'
p1456
sa(dp1457
g1197
S"i can't watch that game anymore  the 76er's litterally turn it over every poesssion  It's ridicolous"
p1458
sg1199
S'Jesus Shuttlesworth'
p1459
sa(dp1460
g1197
S'i need new headphones. any suggestions?'
p1461
sg1199
S'Neda Shahoori'
p1462
sa(dp1463
g1197
S'Women who CAN cook more then noodles and hotdogs &gt;&gt;&gt;&gt;'
p1464
sg1199
S'Darrion Tate'
p1465
sa(dp1466
g1197
S"It's so annoying that my dog's afraid of fireworks cause on nights like these he's super clingy"
p1467
sg1199
S'Onella Charles'
p1468
sa(dp1469
g1197
S"Fuxx All This I'm  Ready For The Reunion &gt;"
p1470
sg1199
S'Laci Kelly'
p1471
sa(dp1472
g1197
S'pisseddddddddddd off.'
p1473
sg1199
S'blow'
p1474
sa(dp1475
g1197
S'The "lol " moment when someone is lying oh god :D'
p1476
sg1199
S"l'amour est une doul"
p1477
sa(dp1478
g1197
S'Lord Royce on the trip'
p1479
sg1199
S'TruthTella'
p1480
sa(dp1481
g1197
S'I will respect those who respect me  and forget those who forget me. Simple as that.'
p1482
sg1199
S'tiffany fernandez :)'
p1483
sa(dp1484
g1197
S'Mumford and Sons'
p1485
sg1199
S'Halee Simmons'
p1486
sa(dp1487
g1197
S'Brought him to this place  to this extremity.'
p1488
sg1199
S'Triinu Joderli'
p1489
sa(dp1490
g1197
S'I need of a nice massage'
p1491
sg1199
S'Rachael Correia'
p1492
sa(dp1493
g1197
S"I can't get over that movie. Two hours of my life...gone."
p1494
sg1199
S'Steph'
p1495
sa(dp1496
g1197
S"yolo yolo yolo yolo. It's all about that yolo right now."
p1497
sg1199
S'Alma D.'
p1498
sa(dp1499
g1197
S'I need a vacation'
p1500
sg1199
S''
sa(dp1501
g1197
S'Treat you parents with respect  no matter what there ATTITUDE is  you never know what ya got till its gone.'
p1502
sg1199
S'Johnathan'
p1503
sa(dp1504
g1197
S'i can say that my dress is okay'
p1505
sg1199
S'z grci.'
p1506
sa(dp1507
g1197
S'First day out of high school?  Work painting and sitting on my mac!  #Whatalife'
p1508
sg1199
S'Kristen Beneke'
p1509
sa(dp1510
g1197
S'Aw the last episode of house! *tear*'
p1511
sg1199
S'zenzele ubaka'
p1512
sa(dp1513
g1197
S'Nosey bitches das that shit ion like  bitch watch out   mind your!  Preciate cha :)'
p1514
sg1199
S'S y i d a h'
p1515
sa(dp1516
g1197
S'all i do now a days is study  sigh end of school hurry.'
p1517
sg1199
S'theresa'
p1518
sa(dp1519
g1197
S'that was loud.'
p1520
sg1199
S'---'
p1521
sa(dp1522
g1197
S'Pulling up at the crib.... Laawweeed I got so much shit to get out'
p1523
sg1199
S'C.Y.U.N.V BJ'
p1524
sa(dp1525
g1197
S'Oomf Is refering to that bunk ass party that took my $2 and shut down immediately  i got forced out "Law Enforced Out" lmao'
p1526
sg1199
S"New'ERA"
p1527
sa(dp1528
g1197
S'Listening to CDs and reading books is the best way to get positive input. http://t.co/z9kQDuYP #motivation #inspiration'
p1529
sg1199
S'Brian K Wright'
p1530
sa(dp1531
g1197
S"it's just rain on my face dont worry"
p1532
sg1199
S'kathleen'
p1533
sa(dp1534
g1197
S"Ditto and @Weezer concerts. @grahamorama I've said it before and I'll say it again: Big Brother is the highlight of my year  every year."
p1535
sg1199
S'Dan Gheesling'
p1536
sa(dp1537
g1197
S'Rondo is a beast! way better then that lebron kid'
p1538
sg1199
S'Raghu Podipireddy'
p1539
sa(dp1540
g1197
S"I'm actually going to watch this Laker game tonight though!"
p1541
sg1199
S'@RajonRondo Wifee'
p1542
sa(dp1543
g1197
S'Ring The Alarm. . =)'
p1544
sg1199
S"A Scorpio's World"
p1545
sa(dp1546
g1197
S'Listening to 2chainz and thinking what the fuck?.. #IstayLaughing'
p1547
sg1199
S'Carlos saavedra'
p1548
sa(dp1549
g1197
S"Lala please stop wearing shoes you can't walk in!!!! And they're not even that cute!!"
p1550
sg1199
S'Winter'
p1551
sa(dp1552
g1197
S'That awkward moment when everyone is laughing at peoples jokes when you try to say something then no one laughs.'
p1553
sg1199
S'Laura Toledano'
p1554
sa(dp1555
g1197
S'Yentl &lt;3 Love this movie'
p1556
sg1199
S'Loren-Marie'
p1557
sa(dp1558
g1197
S'katy perry - part of me'
p1559
sg1199
S'Annisa MFH'
p1560
sa(dp1561
g1197
S'Coming from the YMCA'
p1562
sg1199
S'Mr.Thumbs-Up'
p1563
sa(dp1564
g1197
S'#oomf tweets referring to #lucianturnoffs is on point right now'
p1565
sg1199
S'Evana'
p1566
sa(dp1567
g1197
S'God is way bigger than your problems  no matter how big or how difficult your situation appears  it is no big deal to Him'
p1568
sg1199
S'Saud Alzamil'
p1569
sa(dp1570
g1197
S"Welp tonight's one of those nights"
p1571
sg1199
S'Amy VanHouwe'
p1572
sa(dp1573
g1197
S'This is a set up what is the speed limit'
p1574
sg1199
S'Chantler Ritchie'
p1575
sa(dp1576
g1197
S'They accused one another.'
p1577
sg1199
S'falkiewicz'
p1578
sa(dp1579
g1197
S"Lil Wayne can't be the son of rap  last time I checked  Mr. Mathers didn't have a son."
p1580
sg1199
S'Shane Dumond'
p1581
sa(dp1582
g1197
S'RT: If yu wanna fuq one of ur followers'
p1583
sg1199
S'Always On Top'
p1584
sa(dp1585
g1197
S'does anybody else say "water you doing?" or am I the only person who does that?'
p1586
sg1199
S'Yazmin'
p1587
sa(dp1588
g1197
S'I just noticed every even number has a hole in it'
p1589
sg1199
S'Cameron Campbell'
p1590
sa(dp1591
g1197
S'Ugh really! Are serious!'
p1592
sg1199
S'kaylee boaz'
p1593
sa(dp1594
g1197
S'I have a serious addiction to nail polish.. #help'
p1595
sg1199
S''
sa(dp1596
g1197
S"Welp tonight's one of those nights"
p1597
sg1199
S'Amy VanHouwe'
p1598
sa(dp1599
g1197
S"Don't be oblivious to the truth."
p1600
sg1199
S'G.'
p1601
sa(dp1602
g1197
S'Rethinking professional governance: International directions in healthcare: In bringing together research from a... http://t.co/mwipZRbo'
p1603
sg1199
S'Robyn Schultz'
p1604
sa(dp1605
g1197
S"Welp tonight's one of those nights"
p1606
sg1199
S'Amy VanHouwe'
p1607
sa(dp1608
g1197
S"Don't be oblivious to the truth."
p1609
sg1199
S'G.'
p1610
sa(dp1611
g1197
S"People can change up real fast when some body gets around them. It's a shame"
p1612
sg1199
S'India Johnson'
p1613
sa(dp1614
g1197
S"I don't understand how people can be so cruel."
p1615
sg1199
S'Tesia Davis'
p1616
sa(dp1617
g1197
S"Shit I don't have a circle   I fucks with who ever ."
p1618
sg1199
S'Infinity'
p1619
sa(dp1620
g1197
S'When you walk into a room and forget what you looking for  the remember later when its useless&lt;&lt;&lt;&lt;&lt;&lt;&lt;&lt;&lt;&lt;&lt;&lt;&lt;&lt;'
p1621
sg1199
S'U Mad Bro?'
p1622
sa(dp1623
g1197
S'Ugh really! Are serious!'
p1624
sg1199
S'kaylee boaz'
p1625
sa(dp1626
g1197
S'I have a serious addiction to nail polish.. #help'
p1627
sg1199
S''
sa(dp1628
g1197
S'Round of showers pushing through the city now making it wet 4 last few innings at CBP #Phillies'
p1629
sg1199
S'Caitlin Roth'
p1630
sa(dp1631
g1197
S'EVERYONE is going out to watch fireworks :('
p1632
sg1199
S'poriya khoshdel'
p1633
sa(dp1634
g1197
S"These hoes ain't gt no hone training"
p1635
sg1199
S'Torah'
p1636
sa(dp1637
g1197
S'So glad that blakeeeeeee is comin ovaaaaa! #missedhim'
p1638
sg1199
S'Megan Sparks'
p1639
sa(dp1640
g1197
S'cuzz when I step out they loving the crew the loving the crew the loving the CREEEEEEEWWWWW!!'
p1641
sg1199
S"ms.dollA's"
p1642
sa(dp1643
g1197
S'I need a !'
p1644
sg1199
S'Tysie Milliken'
p1645
sa(dp1646
g1197
S'Summer  hurry the fuck up!'
p1647
sg1199
S'G'
sa(dp1648
g1197
S'About to find a movie to watch ;)'
p1649
sg1199
S'UNEQUUUUUE :)'
p1650
sa(dp1651
g1197
S'Out of it right now #drained #readyforbed'
p1652
sg1199
S'SIMON-P'
p1653
sa(dp1654
g1197
S'Ima Chill and smke strong to tht one #Realshit'
p1655
sg1199
S'GO_Getta'
p1656
sa(dp1657
g1197
S"Welp tonight's one of those nights"
p1658
sg1199
S'Amy VanHouwe'
p1659
sa(dp1660
g1197
S"Don't be oblivious to the truth."
p1661
sg1199
S'G.'
p1662
sa(dp1663
g1197
S'bench warmers do ride foreiGn...'
p1664
sg1199
S'FOREVER FLY'
p1665
sa(dp1666
g1197
S'The new c63 black series gt3 is my new addiction #lovemercs'
p1667
sg1199
S'lucas kinney'
p1668
sa(dp1669
g1197
S'I dislike a lot of ppl'
p1670
sg1199
S"DeMarion's Universe"
p1671
sa(dp1672
g1197
S'On that other shit.'
p1673
sg1199
S'JrawH'
p1674
sa(dp1675
g1197
S'To Much Conversation  Though'
p1676
sg1199
S'Jazmine DeBlaw'
p1677
sa(dp1678
g1197
S'Reminds me of the movie called Obsessed lol...'
p1679
sg1199
S'Camonee Myers'
p1680
sa(dp1681
g1197
S"grew up a fuckin' screw up got introduced to the game got an ounce &amp; fuckin' blew up"
p1682
sg1199
S'maura !'
p1683
sa(dp1684
g1197
S'i think i will pee myself to death thanks a lot ed sheeran'
p1685
sg1199
S'Bew Bews'
p1686
sa(dp1687
g1197
S"I'm kinda okay with paper1  since we get to use the calculator. Hm paper2 sux."
p1688
sg1199
S'Anonymous.'
p1689
sa(dp1690
g1197
S'shouldve coniued the life we were living with the decisiom we botth made #ugh'
p1691
sg1199
S'Casey Hicks'
p1692
sa(dp1693
g1197
S"Welp tonight's one of those nights"
p1694
sg1199
S'Amy VanHouwe'
p1695
sa(dp1696
g1197
S'Ran into the basketball goal now my Shoulder hurtin'
p1697
sg1199
S'Luquince Harris'
p1698
sa(dp1699
g1197
S"Shit I don't have a circle   I fucks with who ever ."
p1700
sg1199
S'Infinity'
p1701
sa(dp1702
g1197
S'My Mom and Dad :)'
p1703
sg1199
S'Coco Chaneil'
p1704
sa(dp1705
g1197
S'I had my share of lovers some say im damn good'
p1706
sg1199
S'Chris McCarroll'
p1707
sa(dp1708
g1197
S'mornings earthly creatures'
p1709
sg1199
S'farhana rahim'
p1710
sa(dp1711
g1197
S"Den missed bout half the season of Lala's Full Court Life !!!! It'll come on in the summer so I aint tripping to hard !!!"
p1712
sg1199
S'Pimp J In The Crib'
p1713
sa(dp1714
g1197
S'The Devil Sent Me #here'
p1715
sg1199
S'TWIGGY'
p1716
sa(dp1717
g1197
S"I mean  in a way  the AA community does lack strong work ethic y'all complain about Bowie and its not challenging but what he said was wrong"
p1718
sg1199
S'Chuchaa Madre'
p1719
sa(dp1720
g1197
S"Got a white girl  and a redbone put'em together #CandyCane"
p1721
sg1199
S'Jason Taylor'
p1722
sa(dp1723
g1197
S'this is Patrick.'
p1724
sg1199
S'No'
p1725
sa(dp1726
g1197
S'-  Lorraine be twatching me'
p1727
sg1199
S'-RestOnDaddy'
p1728
sa(dp1729
g1197
S"When I'm talking football with someone and they bring up Tebow at any point in the conversation you're instantly considered a dumb fuck"
p1730
sg1199
S'Mr Hamm'
p1731
sa(dp1732
g1197
S'I put my love on top: loving me from me!'
p1733
sg1199
S'Luis Montano'
p1734
sa(dp1735
g1197
S'my sleepis off  just woke up for the day -_-'
p1736
sg1199
S'Jefferson'
p1737
sa(dp1738
g1197
S'Music heals the soul.'
p1739
sg1199
S'Jason Anderson'
p1740
sa(dp1741
g1197
S'Never leave the on you love  for the one you like  because the one you like will leave you for th one you love &lt;/3'
p1742
sg1199
S'MonicaAshlynn(:'
p1743
sa(dp1744
g1197
S'Sore throat!! Bad headache!! Now what????!!! ()'
p1745
sg1199
S'Josie Adree Annie'
p1746
sa(dp1747
g1197
S'Bitches be blocking me and shit omfg'
p1748
sg1199
S''
sa(dp1749
g1197
S"In fairness  I'd rather get leprosy than have to put up with anymore of your bullshit...  Your the commonality in all the problems  twat."
p1750
sg1199
S'Jerry Lane'
p1751
sa(dp1752
g1197
S'I have the best grandparents in the world. Left my books at dads and they go out of their way to bring them to me'
p1753
sg1199
S'Kylee King'
p1754
sa(dp1755
g1197
S'Me n da bestie just left da park I needed that workout.... Bout to get bk on da workout grind dis summer!!'
p1756
sg1199
S'cAnDiCePaTrICe'
p1757
sa(dp1758
g1197
S'God is love  learn to love young world!!'
p1759
sg1199
S'luna'
p1760
sa(dp1761
g1197
S'Stayed up for the lakers'
p1762
sg1199
S'Carlos'
p1763
sa(dp1764
g1197
S"I'm forever grateful to the Maker!"
p1765
sg1199
S'phyllis.tenkorang'
p1766
sa(dp1767
g1197
S'Music heals the soul.'
p1768
sg1199
S'Jason Anderson'
p1769
sa(dp1770
g1197
S'Never leave the on you love  for the one you like  because the one you like will leave you for th one you love &lt;/3'
p1771
sg1199
S'MonicaAshlynn(:'
p1772
sa(dp1773
g1197
S"Regrets are for people who don't understand life."
p1774
sg1199
S'DeAsia Jackson'
p1775
sa(dp1776
g1197
S"We've had our doubts but now we're fine  and I love u  I swear that's true. I cannot live without u."
p1777
sg1199
S'Shishu'
p1778
sa(dp1779
g1197
S'I wish I could live with the duck dynasty crew'
p1780
sg1199
S'Adam Posey'
p1781
sa(dp1782
g1197
S"The stuff I can't tell her I tweet it cuz I know she will read it"
p1783
sg1199
S'iTweetMyHeart'
p1784
sa(dp1785
g1197
S"I'll probably be sleep at 12:00"
p1786
sg1199
S'JaQuita Brown'
p1787
sa(dp1788
g1197
S'Meatball lied to me.'
p1789
sg1199
S"Briana Sharae'"
p1790
sa(dp1791
g1197
S'i can feel the difference #idontlikeit'
p1792
sg1199
S'Baylee Stovall'
p1793
sa(dp1794
g1197
S"That's just the way it is"
p1795
sg1199
S'Mariah K. Brown'
p1796
sa(dp1797
g1197
S'Need to do something to make time pass ..'
p1798
sg1199
S'Samarri Hunter'
p1799
sa(dp1800
g1197
S"sobbing just sobbing that's all sob"
p1801
sg1199
S'r ryponll'
p1802
sa(dp1803
g1197
S'The amount of homework I have &lt;&lt;&lt;&lt;'
p1804
sg1199
S'Jillian Jacques'
p1805
sa(dp1806
g1197
S'thats why your ass questioned me that day bout him. lmfao'
p1807
sg1199
S'Mandaaaa'
p1808
sa(dp1809
g1197
S'moms turnt to baseball o_O'
p1810
sg1199
S'natural`B E A U T Y*'
p1811
sa(dp1812
g1197
S'concert in two days #GetHype'
p1813
sg1199
S'Lexi_Flamingo'
p1814
sa(dp1815
g1197
S"People overact when they find out someone cheated  Build a bridge &amp; get over it bitch  its nothing new he just wasn't the one for you."
p1816
sg1199
S'Sasha Gatti'
p1817
sa(dp1818
g1197
S'Who wna mention / Dm? #RT'
p1819
sg1199
S"North'Sidee'Mir"
p1820
sa(dp1821
g1197
S"Sooo  what is on everyone else's agenda for the summer?"
p1822
sg1199
S'TURNT UP !!'
p1823
sa(dp1824
g1197
S'Must of been a sign..'
p1825
sg1199
S'Chris Johnson'
p1826
sa(dp1827
g1197
S'He stared out the window at the bright blue morning sky  at the.'
p1828
sg1199
S'bayas'
p1829
sa(dp1830
g1197
S"People overact when they find out someone cheated  Build a bridge &amp; get over it bitch  its nothing new he just wasn't the one for you."
p1831
sg1199
S'Sasha Gatti'
p1832
sa(dp1833
g1197
S'Who wna mention / Dm? #RT'
p1834
sg1199
S"North'Sidee'Mir"
p1835
sa(dp1836
g1197
S'~Temptations **'
p1837
sg1199
S'~'
sa(dp1838
g1197
S"Don't know what to believe.."
p1839
sg1199
S'linny wood'
p1840
sa(dp1841
g1197
S"there's never a wish  better than this ()"
p1842
sg1199
S'Elfira Virginia'
p1843
sa(dp1844
g1197
S'It feels weird not having a tail now. The back of my head is cold lol'
p1845
sg1199
S'Irving | MK3R$'
p1846
sa(dp1847
g1197
S'here we go again with the fireworks..my poor dog can not take it!'
p1848
sg1199
S'Sacha McAndrew'
p1849
sa(dp1850
g1197
S"This the last time I'ma play this song."
p1851
sg1199
S"A'janae"
p1852
sa(dp1853
g1197
S'concert in two days #GetHype'
p1854
sg1199
S'Lexi_Flamingo'
p1855
sa(dp1856
g1197
S'Just waitin on my turn..'
p1857
sg1199
S'Kiara'
p1858
sa(dp1859
g1197
S"They say time waits for nobody I suppose it's true"
p1860
sg1199
S'Ashley'
p1861
sa(dp1862
g1197
S'Doing what my bestfriend said : LETTING G O'
p1863
sg1199
S'Princess Tae'
p1864
sa(dp1865
g1197
S'This day is irritating me!'
p1866
sg1199
S'Monchis'
p1867
sa(dp1868
g1197
S'Patterns 2. Design  Art and Architecture (No. 2): With more than ten thousand copies sold of Patterns in Design ... http://t.co/A3w3cvVS'
p1869
sg1199
S'Shayne Lehner'
p1870
sa(dp1871
g1197
S'She may be on the hate list this season  but @Teresa_Giudice takes the cake for best people skills! #RHONJ She is so great with her fans!'
p1872
sg1199
S'Ashley Walters'
p1873
sa(dp1874
g1197
S"I've been thanking god all day today and praying like no other! I must say I'm at peace right now!"
p1875
sg1199
S'Shaya yaya'
p1876
sa(dp1877
g1197
S'Hate doing things at the last minute.'
p1878
sg1199
S'Dianna c:'
p1879
sa(dp1880
g1197
S'Ooo the drunkken hiccups!'
p1881
sg1199
S'Paige'
p1882
sa(dp1883
g1197
S'concert in two days #GetHype'
p1884
sg1199
S'Lexi_Flamingo'
p1885
sa(dp1886
g1197
S'concert in two days #GetHype'
p1887
sg1199
S'Lexi_Flamingo'
p1888
sa(dp1889
g1197
S'concert in two days #GetHype'
p1890
sg1199
S'Lexi_Flamingo'
p1891
sa(dp1892
g1197
S'concert in two days #GetHype'
p1893
sg1199
S'Lexi_Flamingo'
p1894
sa(dp1895
g1197
S"I'm all hype cause of the monster drink Ratana bought me. .-."
p1896
sg1199
S'laurie.'
p1897
sa(dp1898
g1197
S"Approach the game with no preset agendas and you'll probably come away surprised at your overall efforts"
p1899
sg1199
S'FUCK SHIT-TTG-'
p1900
sa(dp1901
g1197
S'who want a mention ? #rt'
p1902
sg1199
S'SuPaMcNasTy'
p1903
sa(dp1904
g1197
S'Consider the lilies of the field  shut up  shut up.'
p1905
sg1199
S'meydid'
p1906
sa(dp1907
g1197
S"There is always somebody who doesn't like something #opinions ughh  that's the world"
p1908
sg1199
S'India Carter'
p1909
sa(dp1910
g1197
S'It feels weird not having a tail now. The back of my head is cold lol'
p1911
sg1199
S'Irving | MK3R$'
p1912
sa(dp1913
g1197
S'@_PickUrPoison_: Her time of the month I guess respect that.'
p1914
sg1199
S'Shaquilla Ferguson'
p1915
sa(dp1916
g1197
S"I'm all hype cause of the monster drink Ratana bought me. .-."
p1917
sg1199
S'laurie.'
p1918
sa(dp1919
g1197
S"Approach the game with no preset agendas and you'll probably come away surprised at your overall efforts"
p1920
sg1199
S'FUCK SHIT-TTG-'
p1921
sa(dp1922
g1197
S'The Borrowers ruled  but im excited to buy The Secret World of Arietty! Yeeahhhh'
p1923
sg1199
S'Sam Meisenhelder'
p1924
sa(dp1925
g1197
S'Catching up with old friends &gt;&gt;&gt;'
p1926
sg1199
S'Shelby Grace Mays'
p1927
sa(dp1928
g1197
S'Holy cow. There are about 46.7 million gay people in the u.s.'
p1929
sg1199
S'Davin Boggess'
p1930
sa(dp1931
g1197
S'If its one thing I should be known for especially doing business is being on time and most times well before.'
p1932
sg1199
S'Terry Chambers'
p1933
sa(dp1934
g1197
S'thats why i really dont fuck with her all like that'
p1935
sg1199
S'Instagram: _toobutta'
p1936
sa(dp1937
g1197
S'Reality is an illustion that occurs due to the lack of alcohol.'
p1938
sg1199
S'Steph Shimon'
p1939
sa(dp1940
g1197
S'If i can have YOU dat a really blow my mind o_O'
p1941
sg1199
S'Lexy M. Walker'
p1942
sa(dp1943
g1197
S'Now this a 20 point lead . They got it'
p1944
sg1199
S'iGuess_kmsl'
p1945
sa(dp1946
g1197
S"Fuck I'm ready to go"
p1947
sg1199
S'Dr.Archelaos'
p1948
sa(dp1949
g1197
S'Why must the interview be so early? Why not 3pm? -.-'
p1950
sg1199
S'Fwok Kai Shi'
p1951
sa(dp1952
g1197
S'Sometimes the person you least expected  becomes the one person you need the most.'
p1953
sg1199
S'Erin Tracy'
p1954
sa(dp1955
g1197
S'Going 5-9 in school ball and not caring because summer ball starts next week #whocares'
p1956
sg1199
S'Tyler hansing'
p1957
sa(dp1958
g1197
S"This ain't how I pictured good bye.."
p1959
sg1199
S'Lindsey Berry'
p1960
sa(dp1961
g1197
S"There's just a lot of things to be grateful of. &lt;3"
p1962
sg1199
S'Chelsea Natividad'
p1963
sa(dp1964
g1197
S'I hate crying'
p1965
sg1199
S'Dafne Ayala'
p1966
sa(dp1967
g1197
S'Tahlia said balloons &amp; confetti is going to fall outta the sky at Midnight !!!! I love ha lil ass !!!!'
p1968
sg1199
S'[Kwa-Nah] Belle'
p1969
sa(dp1970
g1197
S'It is far better to be alone  than to be in bad company. -George Washington'
p1971
sg1199
S'BSK=BullShitKillers'
p1972
sa(dp1973
g1197
S"This ain't how I pictured good bye.."
p1974
sg1199
S'Lindsey Berry'
p1975
sa(dp1976
g1197
S"There's just a lot of things to be grateful of. &lt;3"
p1977
sg1199
S'Chelsea Natividad'
p1978
sa(dp1979
g1197
S'Goin big on the next'
p1980
sg1199
S'CLAUDIA GRILLON'
p1981
sa(dp1982
g1197
S'All with the help of the 2nd loml @KurlieSuzahn!'
p1983
sg1199
S'Jade'
p1984
sa(dp1985
g1197
S'need to get out of my house'
p1986
sg1199
S'John Franchini'
p1987
sa(dp1988
g1197
S'stock jeep wheels with pathfinder trail ap. size p235-70r16104s in really good condition $300 obo http://t.co/xu6pw1IR'
p1989
sg1199
S'matt erwin'
p1990
sa(dp1991
g1197
S'Goin big on the next'
p1992
sg1199
S'CLAUDIA GRILLON'
p1993
sa(dp1994
g1197
S'All with the help of the 2nd loml @KurlieSuzahn!'
p1995
sg1199
S'Jade'
p1996
sa(dp1997
g1197
S"There's no such thing as being bisexual   you'll always like one gender more."
p1998
sg1199
S'ALEXANDRA TAYLOR'
p1999
sa(dp2000
g1197
S'Sensitive ass people.. thats all I deal with now. Damn  suck it up..'
p2001
sg1199
S'N-Dawg'
p2002
sa(dp2003
g1197
S'this is the ultimate solution instant gratification  http://t.co/yhuVnuIU'
p2004
sg1199
S'^KLVN J0$^'
p2005
sa(dp2006
g1197
S'one more 20 question test and i will have my permit ;)'
p2007
sg1199
S"Gucci Mane La'Flare."
p2008
sa(dp2009
g1197
S"I'm trying to decide what was worse: this main event  the Punjabi prison match or 'Taker vs Giant Gonzales at WM9. #OverTheLimit"
p2010
sg1199
S'Michael Galligan'
p2011
sa(dp2012
g1197
S'I wonder if anyone gets irritated when i tweet this much.. I hope so'
p2013
sg1199
S'dell'
p2014
sa(dp2015
g1197
S'Reminding my sister of this $300 debt every two hours up until this trip on Thursday &gt;&gt;&gt;'
p2016
sg1199
S'CHiLL Gates'
p2017
sa(dp2018
g1197
S'Chris webber is such a sack of shit'
p2019
sg1199
S'Kevin Finner Jr.'
p2020
sa(dp2021
g1197
S'#HouseFinale I am going to miss House. I am glad that there are still reruns and marathons'
p2022
sg1199
S'iheartpolarbears'
p2023
sa(dp2024
g1197
S"I don't have time  and tonight is not the night! Calling it a night early ."
p2025
sg1199
S'GetHIGH on La'
p2026
sa(dp2027
g1197
S';) &lt;-- the "i want to fuck" face'
p2028
sg1199
S'Alfredo Sanchez'
p2029
sa(dp2030
g1197
S'Soo obsessed  with the killing I have watched 13 episodes in like 3 days'
p2031
sg1199
S'Kathryn Summer'
p2032
sa(dp2033
g1197
S'No one knows what being alone is anymore'
p2034
sg1199
S'You have reached'
p2035
sa(dp2036
g1197
S"That's wat I hate about spring and summer all these ffffff bugs damn"
p2037
sg1199
S'shanaemartin'
p2038
sa(dp2039
g1197
S"If I start hurting myself again just know you're the reason why."
p2040
sg1199
S"I'm The Girl Who"
p2041
sa(dp2042
g1197
S"totally jelly of all these cute as couples  welp  its okay  my time will come .. :') &lt;3"
p2043
sg1199
S'Oh Hello There! (:'
p2044
sa(dp2045
g1197
S'not even talking about that'
p2046
sg1199
S'BASE POSITIVE'
p2047
sa(dp2048
g1197
S'I care for the wrong people..... *oh well*'
p2049
sg1199
S'CocaineWhite'
p2050
sa(dp2051
g1197
S"I guess I'll do my work while I'm waiting for him."
p2052
sg1199
S'LaTeseee'
p2053
sa(dp2054
g1197
S'Goin big on the next'
p2055
sg1199
S'CLAUDIA GRILLON'
p2056
sa(dp2057
g1197
S'All with the help of the 2nd loml @KurlieSuzahn!'
p2058
sg1199
S'Jade'
p2059
sa(dp2060
g1197
S'Going to sleep early tonight .'
p2061
sg1199
S'LovePINK'
p2062
sa(dp2063
g1199
S'Shaena'
p2064
sa(dp2065
g1197
S"Dear @TurdFerguson135   @ohheyitscallie and I are so proud of you. Just thought I'd let you know."
p2066
sg1199
S'Barnes'
p2067
sa(dp2068
g1197
S"I don't like it when people ask me questions about other people. kuvunzana makhuwa bhodho just ask the person directly"
p2069
sg1199
S'MukadziMutsvuku'
p2070
sa(dp2071
g1197
S'Fenna get in the shower .'
p2072
sg1199
S'$$$$$$$'
p2073
sa(dp2074
g1197
S'I was overwhelmed  and frankly scared as hell (8)'
p2075
sg1199
S'Yvonne Villarino'
p2076
sa(dp2077
g1197
S'Im ready to move away.'
p2078
sg1199
S'Dionna Hardin'
p2079
sa(dp2080
g1197
S'this is the ultimate solution instant gratification  http://t.co/yhuVnuIU'
p2081
sg1199
S'^KLVN J0$^'
p2082
sa(dp2083
g1197
S'one more 20 question test and i will have my permit ;)'
p2084
sg1199
S"Gucci Mane La'Flare."
p2085
sa(dp2086
g1197
S"I'm trying to decide what was worse: this main event  the Punjabi prison match or 'Taker vs Giant Gonzales at WM9. #OverTheLimit"
p2087
sg1199
S'Michael Galligan'
p2088
sa(dp2089
g1197
S'Fresh Prince is by a long shot the best television show in t.v history! Non-negotiable!'
p2090
sg1199
S'R11S dreamchasers'
p2091
sa(dp2092
g1197
S'I feel so blessed-of all the billions of people who could have shared my path  I stumbled across you.#NothingCanTearUsApart #NotEvenDistance'
p2093
sg1199
S'Megan Hardiman'
p2094
sa(dp2095
g1197
S'Working on a New Single with Dele Christie  title and date will be announced soon watch out guys.'
p2096
sg1199
S'DavidKing'
p2097
sa(dp2098
g1197
S'now she want a photo'
p2099
sg1199
S'NaE WeLcoME'
p2100
sa(dp2101
g1197
S'Why are people nice to you one min then the next they are a complete dick to you! I seriously give up!'
p2102
sg1199
S'Rach'
p2103
sa(dp2104
g1197
S'finding someone to work for you is the worst :( #busybusybusy'
p2105
sg1199
S'Rachel Steffel'
p2106
sa(dp2107
g1197
S'I bet cereal would taste unbelievable out of the cup.....with beer! #BecauseItsOURcup'
p2108
sg1199
S'UG'
p2109
sa(dp2110
g1197
S"Omg I hit 10 000 tweets and didn't realize it"
p2111
sg1199
S'Plain Jane'
p2112
sa(dp2113
g1197
S'Boutta hop in the shower'
p2114
sg1199
S'Rosy Russo'
p2115
sa(dp2116
g1197
S'If they really did care about you  they would never question how they feel about you. Others would not even matter to them. #fact'
p2117
sg1199
S'Abbey Greene'
p2118
sa(dp2119
g1197
S'the people in this town &lt;'
p2120
sg1199
S'Soliiie'
p2121
sa(dp2122
g1197
S'Good looking girls who can play the guitar &gt;&gt;&gt;'
p2123
sg1199
S'Kyle Campbell'
p2124
sa(dp2125
g1197
S"Sometimes a song can say exactly what's going on in your life."
p2126
sg1199
S'maureen vicencio'
p2127
sa(dp2128
g1197
S'The most interesting birthday yet... thanks to a very beautiful friend of mine... *all smiles*'
p2129
sg1199
S"AseNViRoyale'"
p2130
sa(dp2131
g1197
S'So James is a whore now? Smh'
p2132
sg1199
S'Steve Downie'
p2133
sa(dp2134
g1197
S'Stressing over history #TheUsual'
p2135
sg1199
S'Katie Boston'
p2136
sa(dp2137
g1197
S'he was not sitting on a boar'
p2138
sg1199
S'Iqra Payne'
p2139
sa(dp2140
g1197
S"Sometimes a song can say exactly what's going on in your life."
p2141
sg1199
S'maureen vicencio'
p2142
sa(dp2143
g1197
S'Finally I have convinced her to abandon her husband  and make our lives one.'
p2144
sg1199
S'Alexei Vronsky'
p2145
sa(dp2146
g1197
S'the people in this town &lt;'
p2147
sg1199
S'Soliiie'
p2148
sa(dp2149
g1197
S'Good looking girls who can play the guitar &gt;&gt;&gt;'
p2150
sg1199
S'Kyle Campbell'
p2151
sa(dp2152
g1197
S'Good looking girls who can play the guitar &gt;&gt;&gt;'
p2153
sg1199
S'Kyle Campbell'
p2154
sa(dp2155
g1197
S'I always see people get mad and into argument over the littlest things  and I hate arguing .'
p2156
sg1199
S'BuggzBunny'
p2157
sa(dp2158
g1197
S'Waiting For The Sun To Go Awayy  So I Could Go Run!'
p2159
sg1199
S'Norma Avalos'
p2160
sa(dp2161
g1197
S'I just did this to the dudes in my dm \\~/ lmfaooo'
p2162
sg1199
S'I go by TINK :)'
p2163
sa(dp2164
g1197
S'I wish I could say things get easier.'
p2165
sg1199
S'Deejay Macyke'
p2166
sa(dp2167
g1197
S'I told him somebody was sick in there  and asked what I could do for.'
p2168
sg1199
S'hamlett'
p2169
sa(dp2170
g1197
S'Good looking girls who can play the guitar &gt;&gt;&gt;'
p2171
sg1199
S'Kyle Campbell'
p2172
sa(dp2173
g1197
S"I can't be the only person who thinx a Yellawolf and MGK would be amazing!!!!!!"
p2174
sg1199
S'Kameren Bridges'
p2175
sa(dp2176
g1197
S"You don't know what I'm capable of."
p2177
sg1199
S'Kevin Johnson Ruiz'
p2178
sa(dp2179
g1197
S"the sun is out...everyone is happier! it's going to be a good week..."
p2180
sg1199
S'Leanen Philmen'
p2181
sa(dp2182
g1197
S"my grandma told my boyfriend to shut the fuck up. i'm weak as hell."
p2183
sg1199
S'mekayla wilkerson.'
p2184
sa(dp2185
g1197
S"There's so many different sides to me ."
p2186
sg1199
S'Brande'
p2187
sa(dp2188
g1197
S'Hate this place .'
p2189
sg1199
S'Genesia lemuel'
p2190
sa(dp2191
g1197
S'I wanna be the best'
p2192
sg1199
S'HBK Ralph!'
p2193
sa(dp2194
g1197
S'Gotta call on Friday for 1 &amp; did the app for it the day b4... So hopefully this will be easy for me *fingers Cross*'
p2195
sg1199
S'HotTopic ;)'
p2196
sa(dp2197
g1197
S'Looking at your ex and wondering "was I drunk the whole relationship?"'
p2198
sg1199
S'SixFourSix'
p2199
sa(dp2200
g1197
S'Kobe and pau gasol finna look like the old kobe and pau back when they won back to back championships'
p2201
sg1199
S'Young Fly nigga'
p2202
sa(dp2203
g1197
S'the text messages between @jkalanie_x3 and I are too real'
p2204
sg1199
S'Farrah Garrido'
p2205
sa(dp2206
g1197
S'and keep thoe rude comments to yourself'
p2207
sg1199
S'Kimmy palala'
p2208
sa(dp2209
g1197
S"There's no such thing as being bisexual   you'll always like one gender more."
p2210
sg1199
S'ALEXANDRA TAYLOR'
p2211
sa(dp2212
g1197
S'#Celtics beat the brakes off of the sixers... #OKC up next!!!'
p2213
sg1199
S'Bianca'
p2214
sa(dp2215
g1197
S"I love you You were ready The pain is strong and urges rise But I'll see you You'll let me Your pain is gone  your hands untied"
p2216
sg1199
S'Uma Skilletfan :3'
p2217
sa(dp2218
g1197
S'this needs to trend!!! #MichiganFanciesA1DSigning'
p2219
sg1199
S'Bailey Kesteloot'
p2220
sa(dp2221
g1197
S"I really don't give a fuck about work today. Or any day to be honest. I have no attention span for this"
p2222
sg1199
S'Craig Atkins'
p2223
sa(dp2224
g1197
S'Good looking girls who can play the guitar &gt;&gt;&gt;'
p2225
sg1199
S'Kyle Campbell'
p2226
sa(dp2227
g1197
S"I'm not the fighting type  but best believe aint no b*tch in my blood at all."
p2228
sg1199
S'Lalalalalaa'
p2229
sa(dp2230
g1197
S"There's a luxury box at the Trop done up like the inside of a Hooters. Yeah  I'm never moving back here ever."
p2231
sg1199
S'Voodoo 5'
p2232
sa(dp2233
g1197
S'I always see people get mad and into argument over the littlest things  and I hate arguing .'
p2234
sg1199
S'BuggzBunny'
p2235
sa(dp2236
g1197
S'Waiting For The Sun To Go Awayy  So I Could Go Run!'
p2237
sg1199
S'Norma Avalos'
p2238
sa(dp2239
g1197
S'True Love Never Diess'
p2240
sg1199
S'THE_HAT || HA'
p2241
sa(dp2242
g1197
S"RT @TheBoysWho: RT @TheGlrlsWho: Here's to the girls who have self respect"
p2243
sg1199
S'Darren Lejuez'
p2244
sa(dp2245
g1197
S'True Love Never Diess'
p2246
sg1199
S'THE_HAT || HA'
p2247
sa(dp2248
g1197
S'I feel so hurt   ion kno wat to believe :('
p2249
sg1199
S"LEGALLY B L U E'"
p2250
sa(dp2251
g1197
S"At my grandma's with my cousin  dad  grandma  grandpa  and sister! But I'm on the laptop.. http://t.co/ISc4XBz3"
p2252
sg1199
S'Brytnae Wiswell'
p2253
sa(dp2254
g1197
S'These Direct Tv commercials are starting to get out of hand now #ijs'
p2255
sg1199
S'Namon Barnes'
p2256
sa(dp2257
g1197
S'Its depressing'
p2258
sg1199
S'No More Mr.Nice Guy'
p2259
sa(dp2260
g1197
S'The Cubs are about to be 12 games under 500 considering they are already losing 7-0. They were just 5 last week about to lose 7 in a row'
p2261
sg1199
S'Derek Skinner'
p2262
sa(dp2263
g1197
S'"just to see you smile  id do anything  that you wanted me to" @MPalestisxo'
p2264
sg1199
S'austin councill'
p2265
sa(dp2266
g1197
S"it's not that there's someone else  it's the fact that it's awkward."
p2267
sg1199
S'Chayton Rice'
p2268
sa(dp2269
g1197
S"I want to have fun this summer!! I think it'll be a good one."
p2270
sg1199
S'demi trybala'
p2271
sa(dp2272
g1197
S'Are you pushing the river? http://t.co/QMThx7Ek'
p2273
sg1199
S'Martina Oehlinger'
p2274
sa(dp2275
g1197
S'I always see people get mad and into argument over the littlest things  and I hate arguing .'
p2276
sg1199
S'BuggzBunny'
p2277
sa(dp2278
g1197
S'Waiting For The Sun To Go Awayy  So I Could Go Run!'
p2279
sg1199
S'Norma Avalos'
p2280
sa(dp2281
g1197
S'I just did this to the dudes in my dm \\~/ lmfaooo'
p2282
sg1199
S'I go by TINK :)'
p2283
sa(dp2284
g1197
S'I wish I could say things get easier.'
p2285
sg1199
S'Deejay Macyke'
p2286
sa(dp2287
g1197
S'I told him somebody was sick in there  and asked what I could do for.'
p2288
sg1199
S'hamlett'
p2289
sa(dp2290
g1197
S'There is a whole lot of people I wanna punch in the face right now .'
p2291
sg1199
S'Melinda'
p2292
sa(dp2293
g1197
S'I always see people get mad and into argument over the littlest things  and I hate arguing .'
p2294
sg1199
S'BuggzBunny'
p2295
sa(dp2296
g1197
S'Waiting For The Sun To Go Awayy  So I Could Go Run!'
p2297
sg1199
S'Norma Avalos'
p2298
sa(dp2299
g1197
S'I wish I could say things get easier.'
p2300
sg1199
S'Deejay Macyke'
p2301
sa(dp2302
g1197
S'Meeting\\happyhour after the second mambo taxi the meeting turned to a party lol #fail'
p2303
sg1199
S'Stela Griffin'
p2304
sa(dp2305
g1197
S"Oh well...I've learn from that bs."
p2306
sg1199
S'Su Yung Bitch'
p2307
sa(dp2308
g1197
S"You can't ignore the truth &lt;3"
p2309
sg1199
S'Adammmm'
p2310
sa(dp2311
g1197
S'What ever happened to Ashanti? I loved her'
p2312
sg1199
S'$YD.'
p2313
sa(dp2314
g1197
S'so orange this weekend  hanging with my dad!'
p2315
sg1199
S'Reckless'
p2316
sa(dp2317
g1197
S"I'm on to my third wall in my room already  it's full of pissssshers and random stuff :)"
p2318
sg1199
S'Kim Tee'
p2319
sa(dp2320
g1197
S'Ok I need to go too sleep this headache is raging out of control :('
p2321
sg1199
S'acire'
p2322
sa.