(lp1
(dp2
S'text'
p3
S'#BMets now lead 4-2 in 2nd. But Reese Havens has just been ejected for arguing balls and strikes with home plate umpire. #Mets'
p4
sS'name'
p5
S'Lynn Worthy'
p6
sa(dp7
g3
S'That shit scarred me'
p8
sg5
S'Roger That !'
p9
sa(dp10
g3
S'Loosin focus on what really matters'
p11
sg5
S'SPEECHless'
p12
sa(dp13
g3
S'#oomf trying to cook'
p14
sg5
S'Mella World'
p15
sa(dp16
g3
S"Michael was usually off with his friends  and had no interest in going into the woods even if he was at home  and it wasn't uncommon for..."
p17
sg5
S'dibernardo'
p18
sa(dp19
g3
S'Some things really get on your nerves like running out of gas in te middle of nowhere and walking 4 miles home'
p20
sg5
S'Daniel Griffith'
p21
sa(dp22
g3
S'new twitcon ;D'
p23
sg5
S'Lyssa Marie (:'
p24
sa(dp25
g3
S'So fucking tired of you. Stop trying to be me.'
p26
sg5
S'Alliey'
p27
sa(dp28
g3
S'Is it a law that whenever a musician dies you call Paul Gambaccini?'
p29
sg5
S"Will O'Connor"
p30
sa(dp31
g3
S'dinner with the brothaa and mo'
p32
sg5
S'Sophia Cuzzupe'
p33
sa(dp34
g3
S'The score is what?'
p35
sg5
S'Villain'
p36
sa(dp37
g3
S"I either want Chinese Food tonight  or seafood! It's gotta be one or the other"
p38
sg5
S'ENiGMiC SOUL'
p39
sa(dp40
g3
S'when a women feed up its nothin yu can do abou it'
p41
sg5
S'Angie Kates'
p42
sa(dp43
g3
S'this shit is what you make of it'
p44
sg5
S'#chillcharlie'
p45
sa(dp46
g3
S'Tonight we are young! So lets set the world on Fire! We can burn brighter than te sun (:'
p47
sg5
S'Vane Bp'
p48
sa(dp49
g3
S'Thank you @265lisa for a great day that included the Avengers + pickled onion Monster Munch - and despite the incessant nagging xxxx'
p50
sg5
S'Ellie Thomas'
p51
sa(dp52
g3
S'After this week only 8 days left of school. Looking forward to the BEST EVER lay in!'
p53
sg5
S'miidGe'
p54
sa(dp55
g3
S'Khloe &amp; Kourtney have the best personality'
p56
sg5
S'solekah'
p57
sa(dp58
g3
S"One day i'll pee in a mf's mouth !"
p59
sg5
S'Hillary Lanoah .'
p60
sa(dp61
g3
S'1974 edition of King John  nice cover by David Gentleman  from Act 4 Sc 1 #g2g http://t.co/9B4YV9aJ'
p62
sg5
S'a j d e h a n y'
p63
sa(dp64
g3
S"You know what's almost not-as-fun as pouring boiling water on your hand? Fishing bowling pins out of the ball return with a burnt hand."
p65
sg5
S'Katherine Beaman'
p66
sa(dp67
g3
S"I'm always waking up needing the toilet. :( If only it could wait 'til the morning."
p68
sg5
S'Roko Mono'
p69
sa(dp70
g3
S"So I'm wearing this shirt......."
p71
sg5
S'Erik Anthony'
p72
sa(dp73
g3
S'I was addicted to buying them things at one point'
p74
sg5
S'Ashley F'
p75
sa(dp76
g3
S"Whatevr u got that's financially winning...cut me n with it"
p77
sg5
S'Gregory Hart'
p78
sa(dp79
g3
S'did i say that right?'
p80
sg5
S'Major Queen Fan'
p81
sa(dp82
g3
S'Ay. Say no to the YA #writeurpassage'
p83
sg5
S'Sydney Leung'
p84
sa(dp85
g3
S'And I am changed by you  The more I get to know you.'
p86
sg5
S'Scott Rennie'
p87
sa(dp88
g3
S'Mwah to all uu bitches !!!'
p89
sg5
S'Takoria Williams'
p90
sa(dp91
g3
S'If I Die Tomorrow   I\'ll go to London and see the boys of "One Direction" taking a shower and everything that I can do!'
p92
sg5
S'property of Niall'
p93
sa(dp94
g3
S'Had just heard that Richard Bruton is launching another leadership challenge  then on advice from Coveney  retracted the thought..'
p95
sg5
S'#kevq'
p96
sa(dp97
g3
S'If I Die Tomorrow  someone needs to bring Zayn Malik to my house PRONTO so we can get the love session over with'
p98
sg5
S'Noelle'
p99
sa(dp100
g3
S'Wondering...even though I have bought an incense holder.The incense still manages to land on the counter...  #DidYouReallyJust'
p101
sg5
S'Niki Cureton'
p102
sa(dp103
g3
S'related?"@Mzz_Akua: loosing a mum is one of the worst things to happen to anyone....what did this 3 months old baby do to deserve that?"'
p104
sg5
S'Its_luekid'
p105
sa(dp106
g3
S'in a very weird mood'
p107
sg5
S'Michael Audette'
p108
sa(dp109
g3
S"This email-intensive job takes the personality out of me. All of my tweets and emails tend to be functional and short. I'm losing me!"
p110
sg5
S'Trista Kempa'
p111
sa(dp112
g3
S"I'm looking for Bron &amp; Wade to go off"
p113
sg5
S'Shemaiah Price'
p114
sa(dp115
g3
S'in such a great mood'
p116
sg5
S'Andrew Gonzalez'
p117
sa(dp118
g3
S"Watch the heat fans storm my timeline now that they're back in the game"
p119
sg5
S'Kourt'
p120
sa(dp121
g3
S'It takes hard work and dedication..no half stepping either'
p122
sg5
S"Sher'e D"
p123
sa(dp124
g3
S'Where the real niggas at  ? Where the real niggas at ? I guess no where around here . *shrugs*'
p125
sg5
S'.. Asianna Monroe'
p126
sa(dp127
g3
S'Swea everytime that song comes on and im driving i blast it #judgeme'
p128
sg5
S'Brandon Anderson'
p129
sa(dp130
g3
S'When people start fights to get attention &lt;&lt;&lt; all attention is not good attention'
p131
sg5
S'Breanna White'
p132
sa(dp133
g3
S"Now that Wayne has brainwashed me into believing BMW's suck  it won't be a BMW."
p134
sg5
S'Krysten'
p135
sa(dp136
g3
S"It's not about being who everyone else wants you to be. It's about being yourself and finding someone who loves every bit of it."
p137
sg5
S'SuxkOnMyDopeSwag(;'
p138
sa(dp139
g3
S'A good agave pia ( hearth of agave plant after leaves are cut) is selected by its #Jimador ( he who harvest the plant) after 7-10 years'
p140
sg5
S'Andres'
p141
sa(dp142
g3
S'we threw a party  yeah  we threw a party.'
p143
sg5
S'King Rohn'
p144
sa(dp145
g3
S'Debating whether to leave the comfort of my bed to get something to eat? #lifechangingdecisions'
p146
sg5
S'Josh Owens'
p147
sa(dp148
g3
S'...I was not just singing at the top of my lungs when my neighbor is mowing his lawn outside.'
p149
sg5
S'Rachel Cohen'
p150
sa(dp151
g3
S"No one touch me or talk to me  worst mood I've been in for awhile"
p152
sg5
S'Laura Honsberger'
p153
sa(dp154
g3
S'Exams; bad for your health and may lead to your death .. Be aware'
p155
sg5
S'Ahmed zakaria'
p156
sa(dp157
g3
S"and that's how its done #proudofyeah"
p158
sg5
S'regan tracey'
p159
sa(dp160
g3
S'Then and now #wow http://t.co/J4WpekUV'
p161
sg5
S'Just Adam'
p162
sa(dp163
g3
S'I refuse for my summer to be anything less than EXCITING so from tomorrow plans with start being put in place #operationspiceupsummer2012'
p164
sg5
S'chloe richardson'
p165
sa(dp166
g3
S'Coming up to my last 12 hours of dance... Guys this is so weird.'
p167
sg5
S'Chloe'
p168
sa(dp169
g3
S'View from the office http://t.co/PJgL2sDY'
p170
sg5
S'True Breeze'
p171
sa(dp172
g3
S'#Cancers are care-givers but that doesnt mean they dont expect to be taken care of in return.'
p173
sg5
S'# THE FEMALE BOSS .'
p174
sa(dp175
g3
S'Flustered as could be  running all ways at once  and falling over.'
p176
sg5
S'goldthwaite'
p177
sa(dp178
g3
S"I used to be one of the rotten ones and you liked me for that. Now I'm all gone  got my makeup on  and I'm not coming back. #DreamAboutMe"
p179
sg5
S'M'
sa(dp180
g3
S"I'm forever wearing a cap or beanie and if I don't  I leave my hair crazy huge and curly."
p181
sg5
S'Deneshia Saylor'
p182
sa(dp183
g3
S'Ate too much food!!!! But Qdoba is the shit'
p184
sg5
S'Morgan Raynor'
p185
sa(dp186
g3
S'i love the ones who are in my life and make it amazing. i also love the ones who left my life and made it fantastic.'
p187
sg5
S'Cori Lynn Echols'
p188
sa(dp189
g3
S'Decided to catch the 804 cos I cbb walking or paying for a ticket LOL'
p190
sg5
S'Genevieve'
p191
sa(dp192
g3
S'I swear sometimes they piss me off but I love em'
p193
sg5
S'Caressa'
p194
sa(dp195
g3
S"me &amp; @CatherineYS could not stop creasing on the way home  what we were laughing at? I don't even know :L"
p196
sg5
S'Charlotte Morrice'
p197
sa(dp198
g3
S'ugh gotta do some wit dis head'
p199
sg5
S'Girl Wit Da Tattoos'
p200
sa(dp201
g3
S'this fone tweakin out'
p202
sg5
S'Raven Nevar'
p203
sa(dp204
g3
S'Bill  breathing hard  squeezed in and pushed the door shut with his back.'
p205
sg5
S'obradovich'
p206
sa(dp207
g3
S'You can cut with a razor the silence in here...'
p208
sg5
S'alexsimball'
p209
sa(dp210
g3
S'my little sister hit her head while opening the fridge  !'
p211
sg5
S'J  N E 5TH .'
p212
sa(dp213
g3
S'needs to be finished'
p214
sg5
S'Dominique'
p215
sa(dp216
g3
S"If I die tomorrow I couldn't wait to see JoJo and my nanny &lt;3"
p217
sg5
S'Shyann Harris'
p218
sa(dp219
g3
S"Tengo un ridiculous amount of homework to do  but I'm going to the 36 instead #lickmybuttholeb #andcallmemaybe"
p220
sg5
S'Colin Furr'
p221
sa(dp222
g3
S'OMC! What if they played one direction at the dance. I would not be able to breath. Oh my gosh. I will go crazy.'
p223
sg5
S'Mayra.'
p224
sa(dp225
g3
S'Go to a place with an elevator and pretend you live there.'
p226
sg5
S'Rasha Alaa Mohamed'
p227
sa(dp228
g3
S'Phone ringing  gotta be the Mexicans!!!'
p229
sg5
S'Avery Oliver'
p230
sa(dp231
g3
S'I would like to see what members of the Bar Council would do if people kick them  smash their cars windscreen and overturn them.'
p232
sg5
S'sofia rashid'
p233
sa(dp234
g3
S'She jus care of ha self ..'
p235
sg5
S"J   Z (forever'his)"
p236
sa(dp237
g3
S'RT @_Brickks: I hate when i give my all and get nothing in return.'
p238
sg5
S'Ciara Murtey'
p239
sa(dp240
g3
S'Uhhhh that was just dumb to say.'
p241
sg5
S'Breasia Sams'
p242
sa(dp243
g3
S'Its to bad i dont speak the language -.-'
p244
sg5
S'tj murphy'
p245
sa(dp246
g3
S'about to put some throwbacks on here  lol'
p247
sg5
S'Messican Model : )'
p248
sa(dp249
g3
S'dance central with the team;p #lmfao!'
p250
sg5
S'Haley Tolitsky'
p251
sa(dp252
g3
S'Wen strangers try to hit yo blunt &lt;&lt;  Hell no wtf u come from pass that shit right on to me.'
p253
sg5
S"doni'June8th!"
p254
sa(dp255
g3
S'Aint nothin to it gangster rap made me do it'
p256
sg5
S'austin johnson'
p257
sa(dp258
g3
S'Sometimes you have to be your own hero'
p259
sg5
S'Run Into The Light'
p260
sa(dp261
g3
S'Chilli with corn on the cob'
p262
sg5
S'Jika'
p263
sa(dp264
g3
S'Holy wind.'
p265
sg5
S'Danielle Wagner'
p266
sa(dp267
g3
S'no Paris'
p268
sg5
S'Loreal'
p269
sa(dp270
g3
S'Basketball season need to hurry up and get here !'
p271
sg5
S'Slick_Pulla'
p272
sa(dp273
g3
S'How many licks do it take to the center of your ()'
p274
sg5
S'Pink_Cash'
p275
sa(dp276
g3
S'hate whens there nothing to watch on t.v'
p277
sg5
S'Jocelyn Marie'
p278
sa(dp279
g3
S"SO much drama lately  y'all need to hit that IDGAF button and actually MEAN IT."
p280
sg5
S'Barbara Martins'
p281
sa(dp282
g3
S'Time to play some Call of Duty :)'
p283
sg5
S'Cheryl Pohlert'
p284
sa(dp285
g3
S"Can't live with Em and u can't live without Em #women"
p286
sg5
S'Dom B'
p287
sa(dp288
g3
S'How to Drop 20 lbs. of Fat in 30 Days http://t.co/C7viT5OX'
p289
sg5
S'Maci  McDaniel'
p290
sa(dp291
g3
S'When does the new season of the boondocks start ?'
p292
sg5
S'Mani .'
p293
sa(dp294
g3
S'As fancy as this place was  it felt cold to her.'
p295
sg5
S'heuring'
p296
sa(dp297
g3
S'now the word follow sounds fuuuuuuunnnnnyyy'
p298
sg5
S'Laura Cameron'
p299
sa(dp300
g3
S'NIggas being thirsty for RTs &lt;&lt;&lt;&lt;&lt;&lt;&lt;&lt;&lt;'
p301
sg5
S'Dee Jay'
p302
sa(dp303
g3
S'I have to do something tonight whats up somebody tell me something'
p304
sg5
S'Mikey $mith'
p305
sa(dp306
g3
S"Emoji's are so fun to play with!"
p307
sg5
S'Sara Stevens'
p308
sa(dp309
g3
S'all of the jaquan`s swear they got hoes ..'
p310
sg5
S'A$AP Trinity .'
p311
sa(dp312
g3
S'Welp bout to finish chilling until my black ass babyfather show up'
p313
sg5
S'Da Envied Bitch'
p314
sa(dp315
g3
S'The things people say and do&lt;&lt;&lt;&lt;'
p316
sg5
S'Antonio Gooden'
p317
sa(dp318
g3
S"just promise me you won't fall in love with me ."
p319
sg5
S'Breanna Buck'
p320
sa(dp321
g3
S'requested Moments by One Direction on Default Name'
p322
sg5
S'Taylor Roberts'
p323
sa(dp324
g3
S'Ray Charles to the bullshit.'
p325
sg5
S'BriCrowe'
p326
sa(dp327
g3
S'When you really care about someone  their mistakes never change our feelings because the mind gets angry but the heart that still cares'
p328
sg5
S'Norris scott'
p329
sa(dp330
g3
S'How do you start the game so well and then go completely cold!? Wahhhh.'
p331
sg5
S'Courtney Girt'
p332
sa(dp333
g3
S'I must have been less that nothing to you'
p334
sg5
S'Harriet Montague'
p335
sa(dp336
g3
S'I be doing the same thing!! haha'
p337
sg5
S'Candace D. Ellis'
p338
sa(dp339
g3
S'Is there anything better than observing the play and laughter of children?'
p340
sg5
S"Kat's Meoww"
p341
sa(dp342
g3
S"I don't understand people who just plain don't want to be happy"
p343
sg5
S'Chelsea Bailey'
p344
sa(dp345
g3
S'Do you know what "nemesis" means? A righteous infliction of retribution manifested by an appropriate agent. Personified in this case by ME!'
p346
sg5
S'Faiz Ilyas'
p347
sa(dp348
g3
S"I walked by the Alamo today. They get mad if you ask to rent a car. Other than that it wasn't that memorable."
p349
sg5
S'Leif Cedar'
p350
sa(dp351
g3
S'Just went for a much needed run. #ClearedMyMind'
p352
sg5
S'KylieJo Kleinendorst'
p353
sa(dp354
g3
S'1 pitch was the difference between a win and a loss if we got that strike out we would have won'
p355
sg5
S'Jordan Montalvan'
p356
sa(dp357
g3
S"One day I'm gonna yell too much about a coupon and the item and get the cops called #crazy"
p358
sg5
S'Julia Moretz'
p359
sa(dp360
g3
S'I hate Tyler hansbrough'
p361
sg5
S'Nicklaus Smith'
p362
sa(dp363
g3
S'these grapes though'
p364
sg5
S'Gee Grant'
p365
sa(dp366
g3
S'Follow me on instagram  I dont have no type of followers lol @imjustessence'
p367
sg5
S'Essence'
p368
sa(dp369
g3
S"I'm in a funk. Not the good kind either."
p370
sg5
S'Sarah'
p371
sa(dp372
g3
S'In which Ronald Reagan tells a seventh grader to clean his room: http://t.co/FV88kOH7'
p373
sg5
S'Joseph Mosby'
p374
sa(dp375
g3
S'Keep my long hair or change into a bob?'
p376
sg5
S'Sophia Salim'
p377
sa(dp378
g3
S"I don't need your money  I have mine. But share some of that ambition I love a man with some of that"
p379
sg5
S'Karen Gonzalez'
p380
sa(dp381
g3
S'Is this heaven? No  its Iowa'
p382
sg5
S'Steven Spears'
p383
sa(dp384
g3
S'#IfIonlyCould go to Munich and watch the Champions League final at the Allianz Arena!'
p385
sg5
S'Anglica Daz Basabe'
p386
sa(dp387
g3
S'So ready for this Chinese food.'
p388
sg5
S'Shay Horne'
p389
sa(dp390
g3
S'woww!! the big surprise   just 1 days your followers can reach 3000 up  visit here http://t.co/z9enUkA5 and discover the secret.'
p391
sg5
S'Paulo Vitor Alves'
p392
sa(dp393
g3
S'You not about that life ..'
p394
sg5
S'May 14th'
p395
sa(dp396
g3
S'Im ME no matter what. And I thank God for giving me the courage to do so.'
p397
sg5
S'Alakea Kiani'
p398
sa(dp399
g3
S"That was about the tweet I rt'd lmao @Razinbran_"
p400
sg5
S'Tits Hemingway-Janay'
p401
sa(dp402
g3
S'people got this "swagg" stuff confused'
p403
sg5
S"Promise A'sure"
p404
sa(dp405
g3
S"I'm too excited! I received the IB chords!"
p406
sg5
S'Hugh Ngo'
p407
sa(dp408
g3
S"We keep running after the people who least care about us. Why don't we just stop  and see who's running behind us."
p409
sg5
S'Carlos Gambino'
p410
sa(dp411
g3
S'Can I wear yoga pants to DC tmrw??'
p412
sg5
S'Lola Loveman'
p413
sa(dp414
g3
S'I wish my b-day was on the last day of skool........'
p415
sg5
S'aLL SmileS =D'
p416
sa(dp417
g3
S"I'm so happy that I still had a little bit of money to buy If I Die Tomorrow"
p418
sg5
S'Morena Mares Altorf'
p419
sa(dp420
g3
S"I can't focus at all for some reason"
p421
sg5
S'Brock Etters'
p422
sa(dp423
g3
S'I hate when people tell me to either chill or calm down'
p424
sg5
S'Taylor Stroble#19'
p425
sa(dp426
g3
S"For the first time  Kahlan wasn't afraid of the witch woman."
p427
sg5
S'cornforth'
p428
sa(dp429
g3
S'everybody has that 1 ex they regret &lt;&lt;&lt;'
p430
sg5
S'indiaa*'
p431
sa(dp432
g3
S'Y must I be the first'
p433
sg5
S'_CELESTEMACAELA_'
p434
sa(dp435
g3
S'"A man can\'t be too careful in the choice of his enemies'
p436
sg5
S'Harper Johnson'
p437
sa(dp438
g3
S"That's real dumb smh"
p439
sg5
S'Huey'
p440
sa(dp441
g3
S'#oomf is mean to me'
p442
sg5
S'Khayla Leabough'
p443
sa(dp444
g3
S'There are some guys that will tell me they are different and I will believe them 100%'
p445
sg5
S'Koro Montana'
p446
sa(dp447
g3
S"X's take on Sioux Falls to open up their 20th season of baseball at the top of the hour. Listen live 1360 KSCJ and http://t.co/4ISUk3rR"
p448
sg5
S'1360 KSCJ'
p449
sa(dp450
g3
S'fuuuh you talk shit about the girls that backed you up. (x'
p451
sg5
S'hyfr.'
p452
sa(dp453
g3
S'Kratch really put me in the penalty box today -___- #GymHockey'
p454
sg5
S'Little Abner'
p455
sa(dp456
g3
S'This shxt is a job in itself.!'
p457
sg5
S'*_LaLa_Licious_*'
p458
sa(dp459
g3
S'They come  They go .'
p460
sg5
S'JAHTrippy'
p461
sa(dp462
g3
S'Without comment he pulled a knife  pried a three-inch yellowish tooth from the mace where it was wedged between two of the blades  and...'
p463
sg5
S'kitanik'
p464
sa(dp465
g3
S'...shoulder was empty  the short sword missing.'
p466
sg5
S'Mehul Assel'
p467
sa(dp468
g3
S'im bullshiting w. this application though .'
p469
sg5
S'| TAYlOR |'
p470
sa(dp471
g3
S'cause when im angry. I do and say very angry things'
p472
sg5
S'Whooooooooop^___^'
p473
sa(dp474
g3
S'Ugh  Phil almost got out of that inning.'
p475
sg5
S'Harsh V Singh'
p476
sa(dp477
g3
S'Going to CiCis for the first time'
p478
sg5
S'Caitlin Knierim'
p479
sa(dp480
g3
S"I'm always in the grade 9 &amp; 10's business .  Aha oh well"
p481
sg5
S';'
sa(dp482
g3
S"Any obstacle they encountered had to be crossed  they couldn't go around; the boundary walls dictated where they went."
p483
sg5
S'gomzales'
p484
sa(dp485
g3
S'I love trinity for that :)'
p486
sg5
S'Chuck Tarver'
p487
sa(dp488
g3
S'Who dat on the pole ?'
p489
sg5
S'Trap Talk'
p490
sa(dp491
g3
S'390$ aint that bad!!!'
p492
sg5
S'Tevo'
p493
sa(dp494
g3
S'Refreshing little dip in the pool with @pedrovillela19 :)'
p495
sg5
S'Laura Schmitt'
p496
sa(dp497
g3
S'"I don\'t want to brag but ill be the best you ever had."'
p498
sg5
S'Rasha Steward'
p499
sa(dp500
g3
S's quero ver hein @_Ijustwantyou'
p501
sg5
S'dede macedo'
p502
sa(dp503
g3
S'i kind of just wanna punch you in the face'
p504
sg5
S'Claudiakins'
p505
sa(dp506
g3
S'I hope they share with me lol'
p507
sg5
S'S. Nichole'
p508
sa(dp509
g3
S"I'm tired but need to finish hw."
p510
sg5
S'Kristine Arechiga'
p511
sa(dp512
g3
S'#Np Chris Brown ; Wet The Bed'
p513
sg5
S"Timothy's Wife.!"
p514
sa(dp515
g3
S'#NeverShouldYouEver not be open to new experiences. Step out of your comfort zone.'
p516
sg5
S'The Side Chick Life'
p517
sa(dp518
g3
S'power of music tourDVD()Amazon'
p519
sg5
S'Noriko'
p520
sa(dp521
g3
S'We cannot afford some of your.'
p522
sg5
S'wolverton'
p523
sa(dp524
g3
S'I dont wanna pack  I dont wanna leave  and I sure as hell dont wanna clean. #procrastination'
p525
sg5
S'ali kokjohn'
p526
sa(dp527
g3
S'Should I buy Natural or Organic products only.  Deternine the true distinction  if any  between the two before buying'
p528
sg5
S'HoneyFactor'
p529
sa(dp530
g3
S'When the going gets tough  the tough get going.'
p531
sg5
S'Liz Castro'
p532
sa(dp533
g3
S'Birthday tomorrow and no school #18'
p534
sg5
S'Blake Wheeler'
p535
sa(dp536
g3
S'I got 160 220 points while escaping from demon monkeys in Temple Run. Beat that! http://t.co/55Cb9NsU'
p537
sg5
S'wayne'
p538
sa(dp539
g3
S'Frozen food in Italy to 2013: IntroductionThis databook provides key data and information on the frozen food mar... http://t.co/2xGldpdo'
p540
sg5
S'Mary Moore'
p541
sa(dp542
g3
S"I'm late already. But seeing the amt of people at je  gg. Bye attendance."
p543
sg5
S'Calista  YooChun'
p544
sa(dp545
g3
S'If someone walks out of your life  it gives someone you need a chance to walk in.'
p546
sg5
S'Dekkers Minura'
p547
sa(dp548
g3
S'thats a double standard ..'
p549
sg5
S'Marissa Nitti'
p550
sa(dp551
g3
S'#Rugby rugby rugby rugby Rugby rugby rugby rugby Rugby rugby rugby rugby  O and rugby!'
p552
sg5
S'Joel Jachimowicz'
p553
sa(dp554
g3
S'Some of my kids have married and moved away. I value whatever face to face time I have with them'
p555
sg5
S'love teaching'
p556
sa(dp557
g3
S'Well  she decided  for today  at least  they would be away from trouble  and just enjoy being together.'
p558
sg5
S'platenburg'
p559
sa(dp560
g3
S'So that is why no one knows what his name is or who he is.'
p561
sg5
S'ginzel'
p562
sa(dp563
g3
S'nobodies opinion is needed.'
p564
sg5
S'Jalene Chanelle'
p565
sa(dp566
g3
S'Some of these kids gne be more focused on they clothes than they work !'
p567
sg5
S'Liyaah(:'
p568
sa(dp569
g3
S'Tess Jus perm my Hair she got them growing hands'
p570
sg5
S'Nichelle'
p571
sa(dp572
g3
S'Cairns Regional Council says it will replace the waterfront precinct project with a performing arts centre. http://t.co/i2AvUP4P'
p573
sg5
S'Samuel Davis'
p574
sa(dp575
g3
S'Dear God  you just love torchering me every time  same week  every year. Thnks for the support God!!!! :@'
p576
sg5
S'alessia canosa'
p577
sa(dp578
g3
S'#InCaseYouDidntKnow its not always about the cover of the book  but more about the content within it'
p579
sg5
S'Its all luv baby'
p580
sa(dp581
g3
S'One question  where these "leaders" be at when they actually needed?'
p582
sg5
S'the LEGEND'
p583
sa(dp584
g3
S'......'
p585
sg5
S'XoXoXo'
p586
sa(dp587
g3
S'When we can laugh togather &gt;&gt;&gt;&gt;&gt;'
p588
sg5
S'GiGi'
p589
sa(dp590
g3
S'Just saw the cutest Mexican guy!'
p591
sg5
S'Fatima robles'
p592
sa(dp593
g3
S"HONESTLY.. I hateeee the pictures we took that day. All of them. They're ewwwww........ http://t.co/VK0X79pL"
p594
sg5
S'k a s s a n d r a'
p595
sa(dp596
g3
S'Caleb Williams: The reputation of WILLIAM GODWIN as a social philosopher  and the merits of his famous novel  "C... http://t.co/jK3IMBXX'
p597
sg5
S'Lonna Conales'
p598
sa(dp599
g3
S'Looking forward to the weekend!'
p600
sg5
S'sWeeTs!'
p601
sa(dp602
g3
S'Test Ubersocial'
p603
sg5
S'Ir. Budi Utomo'
p604
sa(dp605
g3
S'That crap hurt .'
p606
sg5
S"' lola_bby !'"
p607
sa(dp608
g3
S'The best Unit Converter and Currency Converter application for iPhone free: http://t.co/Fay51HXj'
p609
sg5
S'Georgia Stamatop'
p610
sa(dp611
g3
S'Mom just told me about the funeral....... I wish i went..'
p612
sg5
S'PSOE :)'
p613
sa(dp614
g3
S'I Love The Red Head Cat On #Victorious'
p615
sg5
S"'Quita Tenae"
p616
sa(dp617
g3
S"Ooh I'm Tweeting in the church"
p618
sg5
S'Landi Blanco'
p619
sa(dp620
g3
S'I was thinking  when 1D comes to South America  they should bring Ed Sheeran as their opening act! If that happens my life would be complete'
p621
sg5
S'Aniiiiita! :)'
p622
sa(dp623
g3
S"It was rather nice to bump into a very drunk @Naabb21 and @SianSweeneyz. They didn't stop talking."
p624
sg5
S'Lewis Kenting'
p625
sa(dp626
g3
S'I swear   i have no friends'
p627
sg5
S'Kaia .'
p628
sa(dp629
g3
S"I'm in love with a stripper."
p630
sg5
S'ThatBadAhScorpio'
p631
sa(dp632
g3
S"You really shouldn't need but so much on the job training at Walmart!"
p633
sg5
S'paigey wagey'
p634
sa(dp635
g3
S"When people say that they r gonna do something and then they don't &lt;&lt;&lt;&lt;&lt;&lt; if ur not gonna do it  tell me so I don't get my hopes up!!!/:&lt;"
p636
sg5
S'Jordan Pike(:'
p637
sa(dp638
g3
S"&amp; basically you all said I don't support @mslayel and I was the first one sticking up when she got hate cause she was cleaning the timeline"
p639
sg5
S'Layla Unlimited'
p640
sa(dp641
g3
S"I be bring up the weridest convo's .. Do not care"
p642
sg5
S'StonyBee ^__^'
p643
sa(dp644
g3
S'Ready to work and make these dollars'
p645
sg5
S'Kristian_Alivia'
p646
sa(dp647
g3
S'Just finished eating'
p648
sg5
S'Andy Locsin'
p649
sa(dp650
g3
S'I had to chug that creative girl!! Lmao RT @AneduKAtor_508: @breezybabez be trying to stall on this workout'
p651
sg5
S'Bree IvyD Hen.'
p652
sa(dp653
g3
S'Snagged that job'
p654
sg5
S'E R R O R ...'
p655
sa(dp656
g3
S'Maybe it was just a crush this whole time..'
p657
sg5
S'Micaelaaaa :)'
p658
sa(dp659
g3
S'LMAO @Bleepthat1 and @carlito_1989 just touched down and the random fuckery is well underway'
p660
sg5
S'Vlad'
p661
sa(dp662
g3
S'RT @WilI_Smith: The less you care  the happier you will be.'
p663
sg5
S'Cristal Natasia'
p664
sa(dp665
g3
S"I think it's all made up in their own heads."
p666
sg5
S'babula'
p667
sa(dp668
g3
S'This is what happens when you have a @Subway addiction and photo editing addiction... http://t.co/Nul8oZ8q'
p669
sg5
S'Zach Lonsinger'
p670
sa(dp671
g3
S'I be needing that'
p672
sg5
S'Electric Latimer'
p673
sa(dp674
g3
S'What. Is. This.'
p675
sg5
S'Lanita Rollins'
p676
sa(dp677
g3
S'Anyone wanna go to the movies tonight?'
p678
sg5
S'Michael D. Palumbo'
p679
sa(dp680
g3
S"Just seen my high school white boy crush.... I'll still hit that! Lol"
p681
sg5
S'LNH'
p682
sa(dp683
g3
S"can't wait for @briheymann to be on that #iphone4 flow do we can FaceTime"
p684
sg5
S'joe cardillo'
p685
sa(dp686
g3
S'There are moments in life that I will always remember  not because they were important but because you were there. @iamtriciasantos'
p687
sg5
S'imPhamela'
p688
sa(dp689
g3
S'Go and dondo won the basketball game'
p690
sg5
S'Wesley Crawford'
p691
sa(dp692
g3
S"Why would anyone do this to me? I don't deserve any of the crap people give me. It gets overwhelming. Smiles are just cover ups for pain --&gt;"
p693
sg5
S'Bailey Gruber'
p694
sa(dp695
g3
S'Can I chisel some of the ice off your heart for my drink?'
p696
sg5
S'Braedon Jackson'
p697
sa(dp698
g3
S'Spending class lectures remembering the tips your tumbling instructor gave you #cheerobsessed'
p699
sg5
S'Taegan Bolden-Davis'
p700
sa(dp701
g3
S'I wanna have good dreams tonight  not wierd fucked up tings and not dejavu dreams either.'
p702
sg5
S'OG.'
p703
sa(dp704
g3
S'Ole girl just a second ago though &gt; lol'
p705
sg5
S'Kameron Price'
p706
sa(dp707
g3
S'Just got the response from Alpha/ Independence on earlier mining death. Updating our story now.'
p708
sg5
S'Taylor Kuykendall'
p709
sa(dp710
g3
S'RT @washingtonpost: What that study on the health benefits of coffee actually found: http://t.co/cfeui8Jd // Bummed'
p711
sg5
S'Fred Zumwalt'
p712
sa(dp713
g3
S';;'
p714
sg5
S''
sa(dp715
g3
S'Jack in the Crac do not go nomore that shit taste nasty now too me.'
p716
sg5
S'Iam_Hk MIDGETMACc'
p717
sa(dp718
g3
S'#ifonlyicould have not laughed while i wrote that last tweet.'
p719
sg5
S'Edward Wojciechowski'
p720
sa(dp721
g3
S'He is quoting all kind of things that had nothing to do with a commencement ceremony!!!!! Omg'
p722
sg5
S'Alexandria D.'
p723
sa(dp724
g3
S"Y'all make my lesbian seep thru the inseam of my panties."
p725
sg5
S'Andi'
p726
sa(dp727
g3
S'Gotta reread act three then finish the rest of the book by Monday -___- i hate that book i thought it would be good but it just confuses me'
p728
sg5
S'(Miranda)'
p729
sa(dp730
g3
S"RT @RevRunWisdom: The moment you become fed up.. You'll stop them from feeding it to u! #wordUp"
p731
sg5
S'Nombuso Makhathu'
p732
sa(dp733
g3
S'Shin looked like an interesting person. I wonder how he acts like. c:'
p734
sg5
S'Yuna Kion ()'
p735
sa(dp736
g3
S"Lmao the pacers ain't playin no games!"
p737
sg5
S'Mr.All Dat'
p738
sa(dp739
g3
S"Good morning  friends. Today  let's all count our blessings. Just need to find strength and hope that everyday is gonna be a better day."
p740
sg5
S'Arch'
p741
sa(dp742
g3
S'Getting ready for celebration'
p743
sg5
S'sofia reyes'
p744
sa(dp745
g3
S'I entered to win tix to see One Direction live #1DTourChicago | #UpAllNight The Live DVD is available 5/29! !!!'
p746
sg5
S'Kim London'
p747
sa(dp748
g3
S'Girl im mad cause the things you cant see. #thatshowthingsaregonnabe'
p749
sg5
S'Oscar Rodriguez'
p750
sa(dp751
g3
S"If I can spend the rest of my life with my people I'd all over and over again"
p752
sg5
S'Infamous'
p753
sa(dp754
g3
S'Need something to get into..'
p755
sg5
S'Candilicious'
p756
sa(dp757
g3
S"U riding with me . Don't Touch The Radio. U listen to what I want to hear."
p758
sg5
S'32Fl@vors_+Sum'
p759
sa(dp760
g3
S'We threw a party  yea we through a party'
p761
sg5
S"'no fly zone'"
p762
sa(dp763
g3
S'Sittin wade on the Bench isnt gona get him Goin on offensive ..wtf is Spo doin?? They need to give me the Coachin job!'
p764
sg5
S'Ant Ortiz'
p765
sa(dp766
g3
S'Keep them squares up out yo circle'
p767
sg5
S''
sa(dp768
g3
S'watching american idol   i want jessica sanchez to win the whole thing'
p769
sg5
S'AndreaSecrets'
p770
sa(dp771
g3
S"When people ask me to do something or for something  I'm going to ask myself  would they do it for me?! That'll determine my answer!!!"
p772
sg5
S'Tiffany Brown'
p773
sa(dp774
g3
S'I just unlocked the "Local" badge on @foursquare for checking in three times at the same place in one week! http://t.co/nHl1A3fJ'
p775
sg5
S'A7x'
p776
sa(dp777
g3
S"To much shit to watch  Missing is on  then Grey's &amp; Awake  the games nd idol..."
p778
sg5
S'Nikki xox'
p779
sa(dp780
g3
S'They tried stoning me my dear. It did not work.'
p781
sg5
S'Muhammed Taha'
p782
sa(dp783
g3
S'The laugh at the beginning of Inside The Fire by Disturbed is so badass.'
p784
sg5
S'Drake Gomez'
p785
sa(dp786
g3
S"Ughhh I don't wanna get up &amp; get the iPod ."
p787
sg5
S'Selisa Gonzalez'
p788
sa(dp789
g3
S"The things that happen to you  shouldn't make or break you. You should learn and move on and push through with your life know what happened."
p790
sg5
S'Miguel'
p791
sa(dp792
g3
S'She is going to regret that choice in a few years  duh.'
p793
sg5
S'College kid'
p794
sa(dp795
g3
S"when people lol at themselves for even considering studying for the aphug exam... how are we supposed to know you won't #questionofrackem #."
p796
sg5
S'Miguel Vasquez'
p797
sa(dp798
g3
S"Me before I sleep ;P the sun is rising :'( http://t.co/6uLFlxf9"
p799
sg5
S'Sophia Boo'
p800
sa(dp801
g3
S'All the pieces are falling into place'
p802
sg5
S'Epod BITCH'
p803
sa(dp804
g3
S'usually to ridiculous counter-arguments that have nothing to do with the original point.'
p805
sg5
S'()'
p806
sa(dp807
g3
S'Now she wonder why ion be at home'
p808
sg5
S'Michaelia Riggins'
p809
sa(dp810
g3
S"You are driving a mini van with rims on it  please don't hit on me that's a nono."
p811
sg5
S'Menissa Blackwell'
p812
sa(dp813
g3
S"Since They Wanna Block Of Expressways and Streets.... I'm taking the streets to prom"
p814
sg5
S'FinallyFamous SMDTMD'
p815
sa(dp816
g3
S'Nothing like going the wrong way in #Vegas'
p817
sg5
S'Lexi Soukhaphaly'
p818
sa(dp819
g3
S"Cause you'll say you love me  and I'll end up lying  and say I love you too"
p820
sg5
S'Khyati Patel'
p821
sa(dp822
g3
S'Night Twonkies.The days that i used to stay up nearly the whole night watching bunch of ppl living in a house are starting to catch up w/ me'
p823
sg5
S'C.S'
p824
sa(dp825
g3
S'Them Heat boys good .'
p826
sg5
S'May 18th'
p827
sa(dp828
g3
S'just Trust and Believe'
p829
sg5
S'ADEL SuJu'
p830
sa(dp831
g3
S'Love being the youngest  newest  &amp;&amp; second female in the Fire Dept. Good training for my ambulance crew AND fire crew.'
p832
sg5
S'Daanis Chosa'
p833
sa(dp834
g3
S'Gah who cares'
p835
sg5
S'Syd NayNay'
p836
sa(dp837
g3
S"one day I'm gonna forget your name and one sweet day  you're gonna drown in my lost pain"
p838
sg5
S'ananda'
p839
sa(dp840
g3
S'I need you in my life  I guess.'
p841
sg5
S'Gio Beltran'
p842
sa(dp843
g3
S'This must be my Kassi poo with the phone LOL@psid412 Jhbweuyttty9idyYf'
p844
sg5
S"SJ's Mom"
p845
sa(dp846
g3
S'that LONG conversation me &amp; Vickia had .... &gt;&gt;&gt;&gt;&gt;&gt;&gt;&gt;&gt;&gt;&gt;&gt;&gt;'
p847
sg5
S'thug life .'
p848
sa(dp849
g3
S'I have organic lemonade. Idk wtf that means.'
p850
sg5
S'mamaaa kris'
p851
sa(dp852
g3
S"A cigarette pressed between her lips but I'm staring at her tits  its the wrong way"
p853
sg5
S'Hunter Stern'
p854
sa(dp855
g3
S"She took a beating and all because she did not want other people losing what she'd lost and then the idea of admitting it was lost was too."
p856
sg5
S'Dominque Crinson'
p857
sa(dp858
g3
S"If the heat win I'll my pants #CantBeatTheHeat"
p859
sg5
S'alex quibano'
p860
sa(dp861
g3
S'lol i was at the jeopardy that aired tonight and new the kentucky derby answer and none of them did #imageniusiknow'
p862
sg5
S'Charlie D'
p863
sa(dp864
g3
S'Fuck I need money for concerts'
p865
sg5
S'Ville Valo'
p866
sa(dp867
g3
S"Clevvertv  the confusion you gave me is to decide weather to pick Taylor Swift or Vanessa when it comes to fashion. I really can't choose..."
p868
sg5
S'Fearless4Efron'
p869
sa(dp870
g3
S'The b in apt 23 is the funniest show ever'
p871
sg5
S'Erin Bodyshot'
p872
sa(dp873
g3
S'Quality bonding time with my car!'
p874
sg5
S'Maddy Elking'
p875
sa(dp876
g3
S'Watching the game now'
p877
sg5
S'LaMichael Bonds'
p878
sa(dp879
g3
S"Don't forget to count ya blessings!"
p880
sg5
S'Queen DEE'
p881
sa(dp882
g3
S"All y'all. Check out @Civilian_Sounds. Their debut album just released &amp; it's great! Pick it up and it's they who will feast on your ears."
p883
sg5
S'Brandon Lee Tenney'
p884
sa(dp885
g3
S'#IncaseYouDidntKnow the world is suppose to end in 7 months! Best be doin some #PartyRockin'
p886
sg5
S'T-SouY'
p887
sa(dp888
g3
S'I heard on the radio that in some parts of America you are considered poor if you use a washing line. Is this true?'
p889
sg5
S'Georgia'
p890
sa(dp891
g3
S'Chillaxin 4 the night. Might hot tub it out'
p892
sg5
S'T Murph'
p893
sa(dp894
g3
S'And now a piece of me is a piece of the beach  and it falls just where it needs to be  and rests peacefully'
p895
sg5
S'Ellie'
p896
sa(dp897
g3
S'Waiting'
p898
sg5
S'SupaaMcNastyy : ))'
p899
sa(dp900
g3
S"When people say they can't text but their tweet....#annoying"
p901
sg5
S'Katie Rzepka'
p902
sa(dp903
g3
S'bacon is god'
p904
sg5
S'Jill Lawler'
p905
sa(dp906
g3
S'#ifonlyicould slap the stupid out of people.'
p907
sg5
S'Dossett Marchese'
p908
sa(dp909
g3
S'When you lie and I already know the truth&lt;&lt;&lt;&lt;&lt;&lt;'
p910
sg5
S'~One&Only~'
p911
sa(dp912
g3
S'seee it aint even like that .....'
p913
sg5
S'Chocolate Drop Ni Ni'
p914
sa(dp915
g3
S'chat to muh back!'
p916
sg5
S'Ma-Ma :} !!!!'
p917
sa(dp918
g3
S'Good luck to all the girls going to the Nats this June long weekend  I hope that through my coaching camps I can... http://t.co/Ae7ZaWKh'
p919
sg5
S'Zephyr Kite Tours'
p920
sa(dp921
g3
S'resisting the urge to shoot this tv.'
p922
sg5
S''
sa(dp923
g3
S'Wassup with the bol Wade tho.... 0 points'
p924
sg5
S'Gnardeaux'
p925
sa(dp926
g3
S'Respect is all I ask for'
p927
sg5
S'Em'
p928
sa(dp929
g3
S'i got niggas in YO hood thats riding with ME!'
p930
sg5
S'melissa vee []'
p931
sa(dp932
S'text'
p933
S"Twitter get your life together I'm not in the mood"
p934
sS'name'
p935
S'Tess Gallagher'
p936
sa(dp937
g933
S'Your fabricating an alternate reality'
p938
sg935
S'Alexa Belvedere'
p939
sa(dp940
g933
S"For your information I don't know who you racing. I'm already at the finish-line with the flag waving."
p941
sg935
S'William Davis'
p942
sa(dp943
g933
S'No  but seriously. Brock Zanrosso is one of the sexiest men alive  period.'
p944
sg935
S'Soraya'
p945
sa(dp946
g933
S'when this comes out  mw3 is going inside the antique cabinet! http://t.co/yWLMGEPR'
p947
sg935
S'gunnergirl24'
p948
sa(dp949
g933
S'Lord Please Tell Me That oomf is not lying to me!!'
p950
sg935
S'_Jourdashian'
p951
sa(dp952
g933
S'The Celtics Balling Out!!!!!!'
p953
sg935
S'Isiah Sky Hadnott'
p954
sa(dp955
g933
S"I can't wait to watch @Jessewelle &amp; @PhillyChic5 on @younow -- http://t.co/qwndbirS I want to win the iPad- Wed May 23rd!!!!!!!!!!!!!!!!!"
p956
sg935
S'Brian Esposito'
p957
sa(dp958
g933
S'need somewhere to watch the game'
p959
sg935
S'Devon Barlow'
p960
sa(dp961
g933
S'#NotBeingRudeBut this your 5th time saying hey to me im the same person every time you see me'
p962
sg935
S'M A R I  :)'
p963
sa(dp964
g933
S"&amp; Passion ain't going to none of them !"
p965
sg935
S'Im Trillzill .'
p966
sa(dp967
g933
S'why is my twitter not working'
p968
sg935
S'Sarah J.'
p969
sa(dp970
g933
S'Hope your reading this'
p971
sg935
S'Ashley Main'
p972
sa(dp973
g933
S'I hate wen ppl comment on mu picks talkin bullshit -_-'
p974
sg935
S'SB'
p975
sa(dp976
g933
S'the cops are fuckin eveerryywheerrre!!!'
p977
sg935
S'kenzie sibley'
p978
sa(dp979
g933
S'Good thing is.. I now have 2 company I.Ds! Ha ha!'
p980
sg935
S'NahanDonesBautista'
p981
sa(dp982
g933
S'A perfect relationship to me = Two people never giving up on each other.'
p983
sg935
S'ReiiNa De Tu Vida'
p984
sa(dp985
g933
S'Its wild at this graduation doe lol'
p986
sg935
S'Moo Moo'
p987
sa(dp988
g933
S"I can't reach you."
p989
sg935
S'Josie Kincaid'
p990
sa(dp991
g933
S'I want man that can sing ! Sooo bad !'
p992
sg935
S'Ebony Love'
p993
sa(dp994
g933
S'Did my earlier tweets go through? Boston guy doing flips on the concrete earlier was Chris. #NATO #OccupyBoston'
p995
sg935
S'JHL'
p996
sa(dp997
g933
S'Shower time'
p998
sg935
S'ESpaulding'
p999
sa(dp1000
g933
S"Obviously I'm not gonna talk to you for what you did last week ! #thefuck"
p1001
sg935
S'Clarissa De La Cruz'
p1002
sa(dp1003
g933
S'Taisha just farted'
p1004
sg935
S'FreeMyDAD&BRODashawn'
p1005
sa(dp1006
g933
S'#NotBeingRudeBut one direction is way too over exposed.'
p1007
sg935
S'Hannah'
p1008
sa(dp1009
g933
S"No one understands my obsession with #House. And now it's over. These commercials are pissing me off."
p1010
sg935
S'Madison Evans'
p1011
sa(dp1012
g933
S'The "lol " moment when someone is lying oh god :D'
p1013
sg935
S"l'amour est une doul"
p1014
sa(dp1015
g933
S'Thares alout of pplz tryin to get into bars on a holiday ha$'
p1016
sg935
S'Karmatic'
p1017
sa(dp1018
g933
S"So we can't find smithville"
p1019
sg935
S'Adam Lundberg'
p1020
sa(dp1021
g933
S"Borrowed a lighter from the clerk to light my blunt... You could hit it I don't care"
p1022
sg935
S'Corbin Nicholl'
p1023
sa(dp1024
g933
S'Fuck being above the influence. I want to get high  like now.'
p1025
sg935
S'Princess Unicorn'
p1026
sa(dp1027
g933
S'Had she been trying to grab.'
p1028
sg935
S'Bhagavana Guiso'
p1029
sa(dp1030
g933
S'How will #house end? Soooo excited!!'
p1031
sg935
S'Sara Dunegan'
p1032
sa(dp1033
g933
S'New episode of The Simpsons is So bad! Lady Gaga came in on her whore train and shit all over the place. Watch with morbid curiosity.'
p1034
sg935
S'Luke Vernon'
p1035
sa(dp1036
g933
S'it dont matter as long as i get to be 1 of their #1 girl http://t.co/LJCAkOh8'
p1037
sg935
S'jalyce lewis'
p1038
sa(dp1039
g933
S'Bed in an hour.... Sigh'
p1040
sg935
S'Symone A. Davis'
p1041
sa(dp1042
g933
S'Literally no one wants to be on the phone with you less than the lady who answers the phone at a Chinese restaurant...and I fuckin hate her'
p1043
sg935
S'Freddy Gad'
p1044
sa(dp1045
g933
S'I need a vacation'
p1046
sg935
S''
sa(dp1047
g933
S'Diamond shirts came in :))'
p1048
sg935
S'Newo Llod'
p1049
sa(dp1050
g933
S"It's so annoying that my dog's afraid of fireworks cause on nights like these he's super clingy"
p1051
sg935
S'Onella Charles'
p1052
sa(dp1053
g933
S"Fuxx All This I'm  Ready For The Reunion &gt;"
p1054
sg935
S'Laci Kelly'
p1055
sa(dp1056
g933
S"Twitter  I think I'll be back for a while"
p1057
sg935
S'TREY A BOSS'
p1058
sa(dp1059
g933
S'Hubby is out with the boys and babygirl is in the bed #metime'
p1060
sg935
S'Ebby'
p1061
sa(dp1062
g933
S'Bad play Tex  should had the easy out'
p1063
sg935
S"Dallas O'Meara"
p1064
sa(dp1065
g933
S'Oh my god are you serious right now!? These guys just put on the Batman song while they are playing COD..gettin all into it and shit bahaha'
p1066
sg935
S'Carly Waters'
p1067
sa(dp1068
g933
S'Like i want to but then......'
p1069
sg935
S''
sa(dp1070
g933
S'This is the best movie George and Mike Kuchar never made.'
p1071
sg935
S'Pat'
p1072
sa(dp1073
g933
S'i dont care what your after as long as im the one'
p1074
sg935
S'karina lozano'
p1075
sa(dp1076
g933
S"Looking back at me &amp; @0meza 's convo over the past yrs and laughing about how we use to flirt &amp; talk to eachother lol"
p1077
sg935
S'Alyssa Alva'
p1078
sa(dp1079
g933
S'we should go see Adreal.'
p1080
sg935
S'June 8 ( ;'
p1081
sa(dp1082
g933
S'Life goes on'
p1083
sg935
S'AO'
p1084
sa(dp1085
g933
S'Take It To The Head .'
p1086
sg935
S'CeCeTheRealest'
p1087
sa(dp1088
g933
S'Jus cut the cake :)'
p1089
sg935
S'MAY 21ST'
p1090
sa(dp1091
g933
S"Lmfao   me and this nigga JUST start conversating &amp;' ha already want me to come see him ! #HeThrough"
p1092
sg935
S'EssTee Jae : )'
p1093
sa(dp1094
g933
S'Threats and curses.'
p1095
sg935
S'offley'
p1096
sa(dp1097
g933
S'About herself  Sonia wrote that she had succeeded in making some.'
p1098
sg935
S'confrey'
p1099
sa(dp1100
g933
S'This week gonna be fun !'
p1101
sg935
S'Hunter Reynolds'
p1102
sa(dp1103
g933
S'pisseddddddddddd off.'
p1104
sg935
S'blow'
p1105
sa(dp1106
g933
S"A Bugs Life is only trending because it's on TV and people are freaking out about it. I own the DVD of that movie. #True90sKid"
p1107
sg935
S'Joey Rondo Wilson'
p1108
sa(dp1109
g933
S'Seriously?  Fuck you.  Never been so frustrated and pissed off.'
p1110
sg935
S'Connor Smith'
p1111
sa(dp1112
g933
S'I had a recurring dream last night about tons of tornados in one place nearly killing me and here it is bad weather.'
p1113
sg935
S'AmberNeal'
p1114
sa(dp1115
g933
S'RT @BernieStillFly: That odd moment when u are about to walk by a group of black men and they all of a sudden get quiet... -_-'
p1116
sg935
S'Priscilla O'
p1117
sa(dp1118
g933
S"fstw.. I guess I'll just smoke alone and go to bed."
p1119
sg935
S'laurenelizabeth'
p1120
sa(dp1121
g933
S'Attributed this sensation to pity--immeasurable pity  and this.'
p1122
sg935
S'mittendorf'
p1123
sa(dp1124
g933
S'Drinking with my lovie'
p1125
sg935
S'Kaitlyn Kramer'
p1126
sa(dp1127
g933
S'Women who CAN cook more then noodles and hotdogs &gt;&gt;&gt;&gt;'
p1128
sg935
S'Darrion Tate'
p1129
sa(dp1130
g933
S'I miss the lips that made me fly'
p1131
sg935
S'Shannon McCool'
p1132
sa(dp1133
g933
S'I use to be excited to talk to special people on the phone..'
p1134
sg935
S"I'm Just B"
p1135
sa(dp1136
g933
S"The females these days.U shouldn't have to act to please anyone. Be yo own person and stop tryna fit in to be cool. Cuz that'll get u no whr"
p1137
sg935
S'JASMINE'
p1138
sa(dp1139
g933
S'wyd hit me up thoe'
p1140
sg935
S'KIRBY+3'
p1141
sa(dp1142
g933
S"I'm so hungry and I really just want school to be over. Only good thing is #OneTreeHill is on tonight!!!"
p1143
sg935
S'Emily Bark'
p1144
sa(dp1145
g933
S'i really want #oomf to be minessssssss !'
p1146
sg935
S'Yonn'
p1147
sa(dp1148
g933
S"I'd like to nap but then that's just wasting my day"
p1149
sg935
S'shannon raess'
p1150
sa(dp1151
g933
S"i can't watch that game anymore  the 76er's litterally turn it over every poesssion  It's ridicolous"
p1152
sg935
S'Jesus Shuttlesworth'
p1153
sa(dp1154
g933
S'i need new headphones. any suggestions?'
p1155
sg935
S'Neda Shahoori'
p1156
sa(dp1157
g933
S'Lord Royce on the trip'
p1158
sg935
S'TruthTella'
p1159
sa(dp1160
g933
S'I will respect those who respect me  and forget those who forget me. Simple as that.'
p1161
sg935
S'tiffany fernandez :)'
p1162
sa(dp1163
g933
S'Mumford and Sons'
p1164
sg935
S'Halee Simmons'
p1165
sa(dp1166
g933
S'Brought him to this place  to this extremity.'
p1167
sg935
S'Triinu Joderli'
p1168
sa(dp1169
g933
S'I need of a nice massage'
p1170
sg935
S'Rachael Correia'
p1171
sa(dp1172
g933
S"I can't get over that movie. Two hours of my life...gone."
p1173
sg935
S'Steph'
p1174
sa(dp1175
g933
S"yolo yolo yolo yolo. It's all about that yolo right now."
p1176
sg935
S'Alma D.'
p1177
sa(dp1178
g933
S'Treat you parents with respect  no matter what there ATTITUDE is  you never know what ya got till its gone.'
p1179
sg935
S'Johnathan'
p1180
sa(dp1181
g933
S'i can say that my dress is okay'
p1182
sg935
S'z grci.'
p1183
sa(dp1184
g933
S'First day out of high school?  Work painting and sitting on my mac!  #Whatalife'
p1185
sg935
S'Kristen Beneke'
p1186
sa(dp1187
g933
S'Aw the last episode of house! *tear*'
p1188
sg935
S'zenzele ubaka'
p1189
sa(dp1190
g933
S'Nosey bitches das that shit ion like  bitch watch out   mind your!  Preciate cha :)'
p1191
sg935
S'S y i d a h'
p1192
sa(dp1193
g933
S'all i do now a days is study  sigh end of school hurry.'
p1194
sg935
S'theresa'
p1195
sa(dp1196
g933
S'that was loud.'
p1197
sg935
S'---'
p1198
sa(dp1199
g933
S'Pulling up at the crib.... Laawweeed I got so much shit to get out'
p1200
sg935
S'C.Y.U.N.V BJ'
p1201
sa(dp1202
g933
S'Oomf Is refering to that bunk ass party that took my $2 and shut down immediately  i got forced out "Law Enforced Out" lmao'
p1203
sg935
S"New'ERA"
p1204
sa(dp1205
g933
S'Listening to CDs and reading books is the best way to get positive input. http://t.co/z9kQDuYP #motivation #inspiration'
p1206
sg935
S'Brian K Wright'
p1207
sa(dp1208
g933
S"it's just rain on my face dont worry"
p1209
sg935
S'kathleen'
p1210
sa(dp1211
g933
S"Ditto and @Weezer concerts. @grahamorama I've said it before and I'll say it again: Big Brother is the highlight of my year  every year."
p1212
sg935
S'Dan Gheesling'
p1213
sa(dp1214
g933
S'Rondo is a beast! way better then that lebron kid'
p1215
sg935
S'Raghu Podipireddy'
p1216
sa(dp1217
g933
S"I'm actually going to watch this Laker game tonight though!"
p1218
sg935
S'@RajonRondo Wifee'
p1219
sa(dp1220
g933
S'Ring The Alarm. . =)'
p1221
sg935
S"A Scorpio's World"
p1222
sa(dp1223
g933
S'Listening to 2chainz and thinking what the fuck?.. #IstayLaughing'
p1224
sg935
S'Carlos saavedra'
p1225
sa(dp1226
g933
S"Lala please stop wearing shoes you can't walk in!!!! And they're not even that cute!!"
p1227
sg935
S'Winter'
p1228
sa(dp1229
g933
S'That awkward moment when everyone is laughing at peoples jokes when you try to say something then no one laughs.'
p1230
sg935
S'Laura Toledano'
p1231
sa(dp1232
g933
S'Yentl &lt;3 Love this movie'
p1233
sg935
S'Loren-Marie'
p1234
sa(dp1235
g933
S'katy perry - part of me'
p1236
sg935
S'Annisa MFH'
p1237
sa(dp1238
g933
S'Coming from the YMCA'
p1239
sg935
S'Mr.Thumbs-Up'
p1240
sa(dp1241
g933
S'#oomf tweets referring to #lucianturnoffs is on point right now'
p1242
sg935
S'Evana'
p1243
sa(dp1244
g933
S'God is way bigger than your problems  no matter how big or how difficult your situation appears  it is no big deal to Him'
p1245
sg935
S'Saud Alzamil'
p1246
sa(dp1247
g933
S"Welp tonight's one of those nights"
p1248
sg935
S'Amy VanHouwe'
p1249
sa(dp1250
g933
S'This is a set up what is the speed limit'
p1251
sg935
S'Chantler Ritchie'
p1252
sa(dp1253
g933
S'They accused one another.'
p1254
sg935
S'falkiewicz'
p1255
sa(dp1256
g933
S"Lil Wayne can't be the son of rap  last time I checked  Mr. Mathers didn't have a son."
p1257
sg935
S'Shane Dumond'
p1258
sa(dp1259
g933
S'RT: If yu wanna fuq one of ur followers'
p1260
sg935
S'Always On Top'
p1261
sa(dp1262
g933
S'does anybody else say "water you doing?" or am I the only person who does that?'
p1263
sg935
S'Yazmin'
p1264
sa(dp1265
g933
S'I just noticed every even number has a hole in it'
p1266
sg935
S'Cameron Campbell'
p1267
sa(dp1268
g933
S'Ugh really! Are serious!'
p1269
sg935
S'kaylee boaz'
p1270
sa(dp1271
g933
S'I have a serious addiction to nail polish.. #help'
p1272
sg935
S''
sa(dp1273
g933
S"Don't be oblivious to the truth."
p1274
sg935
S'G.'
p1275
sa(dp1276
g933
S'Rethinking professional governance: International directions in healthcare: In bringing together research from a... http://t.co/mwipZRbo'
p1277
sg935
S'Robyn Schultz'
p1278
sa(dp1279
g933
S"People can change up real fast when some body gets around them. It's a shame"
p1280
sg935
S'India Johnson'
p1281
sa(dp1282
g933
S"I don't understand how people can be so cruel."
p1283
sg935
S'Tesia Davis'
p1284
sa(dp1285
g933
S"Shit I don't have a circle   I fucks with who ever ."
p1286
sg935
S'Infinity'
p1287
sa(dp1288
g933
S'When you walk into a room and forget what you looking for  the remember later when its useless&lt;&lt;&lt;&lt;&lt;&lt;&lt;&lt;&lt;&lt;&lt;&lt;&lt;&lt;'
p1289
sg935
S'U Mad Bro?'
p1290
sa(dp1291
g933
S'Round of showers pushing through the city now making it wet 4 last few innings at CBP #Phillies'
p1292
sg935
S'Caitlin Roth'
p1293
sa(dp1294
g933
S'EVERYONE is going out to watch fireworks :('
p1295
sg935
S'poriya khoshdel'
p1296
sa(dp1297
g933
S"These hoes ain't gt no hone training"
p1298
sg935
S'Torah'
p1299
sa(dp1300
g933
S'So glad that blakeeeeeee is comin ovaaaaa! #missedhim'
p1301
sg935
S'Megan Sparks'
p1302
sa(dp1303
g933
S'cuzz when I step out they loving the crew the loving the crew the loving the CREEEEEEEWWWWW!!'
p1304
sg935
S"ms.dollA's"
p1305
sa(dp1306
g933
S'I need a !'
p1307
sg935
S'Tysie Milliken'
p1308
sa(dp1309
g933
S'Summer  hurry the fuck up!'
p1310
sg935
S'G'
sa(dp1311
g933
S'About to find a movie to watch ;)'
p1312
sg935
S'UNEQUUUUUE :)'
p1313
sa(dp1314
g933
S'Out of it right now #drained #readyforbed'
p1315
sg935
S'SIMON-P'
p1316
sa(dp1317
g933
S'Ima Chill and smke strong to tht one #Realshit'
p1318
sg935
S'GO_Getta'
p1319
sa(dp1320
g933
S'bench warmers do ride foreiGn...'
p1321
sg935
S'FOREVER FLY'
p1322
sa(dp1323
g933
S'The new c63 black series gt3 is my new addiction #lovemercs'
p1324
sg935
S'lucas kinney'
p1325
sa(dp1326
g933
S'I dislike a lot of ppl'
p1327
sg935
S"DeMarion's Universe"
p1328
sa(dp1329
g933
S'On that other shit.'
p1330
sg935
S'JrawH'
p1331
sa(dp1332
g933
S'To Much Conversation  Though'
p1333
sg935
S'Jazmine DeBlaw'
p1334
sa(dp1335
g933
S'Reminds me of the movie called Obsessed lol...'
p1336
sg935
S'Camonee Myers'
p1337
sa(dp1338
g933
S"grew up a fuckin' screw up got introduced to the game got an ounce &amp; fuckin' blew up"
p1339
sg935
S'maura !'
p1340
sa(dp1341
g933
S'i think i will pee myself to death thanks a lot ed sheeran'
p1342
sg935
S'Bew Bews'
p1343
sa(dp1344
g933
S"I'm kinda okay with paper1  since we get to use the calculator. Hm paper2 sux."
p1345
sg935
S'Anonymous.'
p1346
sa(dp1347
g933
S'shouldve coniued the life we were living with the decisiom we botth made #ugh'
p1348
sg935
S'Casey Hicks'
p1349
sa(dp1350
g933
S'Ran into the basketball goal now my Shoulder hurtin'
p1351
sg935
S'Luquince Harris'
p1352
sa(dp1353
g933
S'My Mom and Dad :)'
p1354
sg935
S'Coco Chaneil'
p1355
sa(dp1356
g933
S'I had my share of lovers some say im damn good'
p1357
sg935
S'Chris McCarroll'
p1358
sa(dp1359
g933
S'mornings earthly creatures'
p1360
sg935
S'farhana rahim'
p1361
sa(dp1362
g933
S"Den missed bout half the season of Lala's Full Court Life !!!! It'll come on in the summer so I aint tripping to hard !!!"
p1363
sg935
S'Pimp J In The Crib'
p1364
sa(dp1365
g933
S'The Devil Sent Me #here'
p1366
sg935
S'TWIGGY'
p1367
sa(dp1368
g933
S"I mean  in a way  the AA community does lack strong work ethic y'all complain about Bowie and its not challenging but what he said was wrong"
p1369
sg935
S'Chuchaa Madre'
p1370
sa(dp1371
g933
S"Got a white girl  and a redbone put'em together #CandyCane"
p1372
sg935
S'Jason Taylor'
p1373
sa(dp1374
g933
S'this is Patrick.'
p1375
sg935
S'No'
p1376
sa(dp1377
g933
S'-  Lorraine be twatching me'
p1378
sg935
S'-RestOnDaddy'
p1379
sa(dp1380
g933
S"When I'm talking football with someone and they bring up Tebow at any point in the conversation you're instantly considered a dumb fuck"
p1381
sg935
S'Mr Hamm'
p1382
sa(dp1383
g933
S'I put my love on top: loving me from me!'
p1384
sg935
S'Luis Montano'
p1385
sa(dp1386
g933
S'my sleepis off  just woke up for the day -_-'
p1387
sg935
S'Jefferson'
p1388
sa.